 ac_server

 Timestamp is 687efc68 (Mon Jul 21 22:50:16 2025)

 Preferred load address is 00400000

 Start         Length     Name                   Class
 0001:00000000 00005750H .text                   CODE
 0001:00005750 000016c0H .text$di                CODE
 0001:00006e10 00057e61H .text$mn                CODE
 0001:0005ec71 000000dfH .text$x                 CODE
 0001:0005ed50 0000069eH .text$yd                CODE
 0002:00000000 000002a4H .idata$5                DATA
 0002:000002a4 00000008H .00cfg                  DATA
 0002:000002ac 00000004H .CRT$XCA                DATA
 0002:000002b0 00000004H .CRT$XCAA               DATA
 0002:000002b4 000000f4H .CRT$XCU                DATA
 0002:000003a8 00000004H .CRT$XCZ                DATA
 0002:000003ac 00000004H .CRT$XIA                DATA
 0002:000003b0 00000004H .CRT$XIAA               DATA
 0002:000003b4 00000004H .CRT$XIAC               DATA
 0002:000003b8 00000014H .CRT$XIC                DATA
 0002:000003cc 00000004H .CRT$XIZ                DATA
 0002:000003d0 00000004H .CRT$XLA                DATA
 0002:000003d4 00000004H .CRT$XLZ                DATA
 0002:000003d8 00000004H .CRT$XPA                DATA
 0002:000003dc 00000008H .CRT$XPX                DATA
 0002:000003e4 00000004H .CRT$XPXA               DATA
 0002:000003e8 00000004H .CRT$XPZ                DATA
 0002:000003ec 00000004H .CRT$XTA                DATA
 0002:000003f0 00000010H .CRT$XTZ                DATA
 0002:000003f4 00000000H .gfids$y                DATA
 0002:00000400 00028840H .rdata                  DATA
 0002:00028c40 00000000H .rdata$CastGuardVftablesA DATA
 0002:00028c40 00000000H .rdata$CastGuardVftablesC DATA
 0002:00028c40 00000018H .rdata$T                DATA
 0002:00028c58 00000b80H .rdata$r                DATA
 0002:000297d8 000000b8H .rdata$voltmd           DATA
 0002:00029890 0000008cH .rdata$zzz              DATA
 0002:0002991c 00000440H .rdata$zzzdbg           DATA
 0002:00029d5c 00000004H .rtc$IAA                DATA
 0002:00029d60 00000004H .rtc$IZZ                DATA
 0002:00029d64 00000004H .rtc$TAA                DATA
 0002:00029d68 00000004H .rtc$TZZ                DATA
 0002:00029d6c 00000004H .tls                    DATA
 0002:00029d70 00000004H .tls$                   DATA
 0002:00029d74 00000004H .tls$ZZZ                DATA
 0002:00029d78 000009fcH .xdata$x                DATA
 0002:0002a774 00000000H .edata                  DATA
 0002:0002a774 0000008cH .idata$2                DATA
 0002:0002a800 00000014H .idata$3                DATA
 0002:0002a814 000002a4H .idata$4                DATA
 0002:0002aab8 00000a78H .idata$6                DATA
 0003:00000000 00003b60H .data                   DATA
 0003:00003b60 00000080H .data$r                 DATA
 0003:00003be0 00000420H .data$rs                DATA
 0003:00004000 00010030H .bss                    DATA
 0004:00000000 000001c0H .rsrc$01                DATA
 0004:000001c0 00010ce8H .rsrc$02                DATA

  Address         Publics by Value              Rva+Base       Lib:Object

 0000:00000000       ___AbsoluteZero            00000000     <absolute>
 0000:00000000       ___arm64x_extra_rfe_table  00000000     <absolute>
 0000:00000000       ___arm64x_extra_rfe_table_size 00000000     <absolute>
 0000:00000000       ___arm64x_native_entrypoint 00000000     <absolute>
 0000:00000000       ___arm64x_redirection_metadata 00000000     <absolute>
 0000:00000000       ___arm64x_redirection_metadata_count 00000000     <absolute>
 0000:00000000       ___dynamic_value_reloc_table 00000000     <absolute>
 0000:00000000       ___enclave_config          00000000     <absolute>
 0000:00000000       ___guard_check_icall_a64n_fptr 00000000     <absolute>
 0000:00000000       ___guard_eh_cont_count     00000000     <absolute>
 0000:00000000       ___guard_eh_cont_table     00000000     <absolute>
 0000:00000000       ___guard_fids_count        00000000     <absolute>
 0000:00000000       ___guard_fids_table        00000000     <absolute>
 0000:00000000       ___guard_iat_count         00000000     <absolute>
 0000:00000000       ___guard_iat_table         00000000     <absolute>
 0000:00000000       ___guard_longjmp_count     00000000     <absolute>
 0000:00000000       ___guard_longjmp_table     00000000     <absolute>
 0000:00000000       ___hybrid_auxiliary_delayload_iat 00000000     <absolute>
 0000:00000000       ___hybrid_auxiliary_delayload_iat_copy 00000000     <absolute>
 0000:00000000       ___hybrid_auxiliary_iat    00000000     <absolute>
 0000:00000000       ___hybrid_auxiliary_iat_copy 00000000     <absolute>
 0000:00000000       ___hybrid_code_map         00000000     <absolute>
 0000:00000000       ___hybrid_code_map_count   00000000     <absolute>
 0000:00000000       ___hybrid_image_info_bitfield 00000000     <absolute>
 0000:00000000       ___safe_se_handler_count   00000000     <absolute>
 0000:00000000       ___safe_se_handler_table   00000000     <absolute>
 0000:00000000       ___x64_code_ranges_to_entry_points 00000000     <absolute>
 0000:00000000       ___x64_code_ranges_to_entry_points_count 00000000     <absolute>
 0000:00000000       __except_list              00000000     <absolute>
 0000:0000002c       __tls_array                0000002c     <absolute>
 0000:00000100       ___guard_flags             00000100     <absolute>
 0000:00000000       ___ImageBase               00400000     <linker-defined>
 0001:00000000       _enet_initialize           00401000 f   enet:win32.o
 0001:00000070       _enet_deinitialize         00401070 f   enet:win32.o
 0001:00000090       _enet_time_get             00401090 f   enet:win32.o
 0001:000000b0       _enet_time_set             004010b0 f   enet:win32.o
 0001:000000d0       _enet_address_set_host     004010d0 f   enet:win32.o
 0001:00000130       _enet_address_get_host_ip  00401130 f   enet:win32.o
 0001:00000180       _enet_address_get_host     00401180 f   enet:win32.o
 0001:00000200       _enet_socket_bind          00401200 f   enet:win32.o
 0001:00000280       _enet_socket_listen        00401280 f   enet:win32.o
 0001:000002c0       _enet_socket_create        004012c0 f   enet:win32.o
 0001:000002f0       _enet_socket_set_option    004012f0 f   enet:win32.o
 0001:00000440       _enet_socket_connect       00401440 f   enet:win32.o
 0001:000004e0       _enet_socket_accept        004014e0 f   enet:win32.o
 0001:00000570       _enet_socket_shutdown      00401570 f   enet:win32.o
 0001:000005a0       _enet_socket_destroy       004015a0 f   enet:win32.o
 0001:000005c0       _enet_socket_send          004015c0 f   enet:win32.o
 0001:000006a0       _enet_socket_receive       004016a0 f   enet:win32.o
 0001:00000790       _enet_socketset_select     00401790 f   enet:win32.o
 0001:000007f0       _enet_socket_wait          004017f0 f   enet:win32.o
 0001:000009c0       _enet_peer_throttle        004019c0 f   enet:peer.o
 0001:00000a40       _enet_peer_receive         00401a40 f   enet:peer.o
 0001:00000aa0       _enet_peer_reset_queues    00401aa0 f   enet:peer.o
 0001:00000ba0       _enet_peer_reset           00401ba0 f   enet:peer.o
 0001:00000d40       _enet_peer_ping_interval   00401d40 f   enet:peer.o
 0001:00000d60       _enet_peer_timeout         00401d60 f   enet:peer.o
 0001:00000db0       _enet_peer_queue_acknowledgement 00401db0 f   enet:peer.o
 0001:00000e90       _enet_peer_setup_outgoing_command 00401e90 f   enet:peer.o
 0001:00001010       _enet_peer_queue_outgoing_command 00402010 f   enet:peer.o
 0001:000010c0       _enet_peer_throttle_configure 004020c0 f   enet:peer.o
 0001:00001150       _enet_peer_send            00402150 f   enet:peer.o
 0001:00001460       _enet_peer_ping            00402460 f   enet:peer.o
 0001:000014b0       _enet_peer_disconnect_now  004024b0 f   enet:peer.o
 0001:00001530       _enet_peer_disconnect      00402530 f   enet:peer.o
 0001:000015f0       _enet_peer_disconnect_later 004025f0 f   enet:peer.o
 0001:00001650       _enet_peer_dispatch_incoming_unreliable_commands 00402650 f   enet:peer.o
 0001:00001890       _enet_peer_dispatch_incoming_reliable_commands 00402890 f   enet:peer.o
 0001:00001990       _enet_peer_queue_incoming_command 00402990 f   enet:peer.o
 0001:00002e90       _enet_protocol_command_size 00403e90 f   enet:protocol.o
 0001:00002ea0       _enet_host_flush           00403ea0 f   enet:protocol.o
 0001:00002ec0       _enet_host_check_events    00403ec0 f   enet:protocol.o
 0001:00002ef0       _enet_host_service         00403ef0 f   enet:protocol.o
 0001:000048b0       _enet_packet_create        004058b0 f   enet:packet.o
 0001:00004950       _enet_packet_destroy       00405950 f   enet:packet.o
 0001:000049a0       _enet_packet_resize        004059a0 f   enet:packet.o
 0001:00004a00       _enet_crc32                00405a00 f   enet:packet.o
 0001:00004a80       _enet_crc32_inc            00405a80 f   enet:packet.o
 0001:00004ab0       _enet_host_create          00405ab0 f   enet:host.o
 0001:00004e30       _enet_host_destroy         00405e30 f   enet:host.o
 0001:00004ec0       _enet_host_connect         00405ec0 f   enet:host.o
 0001:00005150       _enet_host_broadcast       00406150 f   enet:host.o
 0001:000051d0       _enet_host_compress        004061d0 f   enet:host.o
 0001:00005240       _enet_host_channel_limit   00406240 f   enet:host.o
 0001:00005260       _enet_host_bandwidth_limit 00406260 f   enet:host.o
 0001:00005280       _enet_host_bandwidth_throttle 00406280 f   enet:host.o
 0001:00005610       _enet_initialize_with_callbacks 00406610 f   enet:callbacks.o
 0001:00005660       _enet_malloc               00406660 f   enet:callbacks.o
 0001:000056a0       _enet_free                 004066a0 f   enet:callbacks.o
 0001:000056b0       _enet_list_clear           004066b0 f   enet:list.o
 0001:000056c0       _enet_list_insert          004066c0 f   enet:list.o
 0001:000056e0       _enet_list_remove          004066e0 f   enet:list.o
 0001:00005700       _enet_list_move            00406700 f   enet:list.o
 0001:00005730       _enet_list_size            00406730 f   enet:list.o
 0001:00006e10       ___local_stdio_printf_options 00407e10 f i server.obj
 0001:00006e20       ___local_stdio_scanf_options 00407e20 f i server.obj
 0001:00006e30       __vfprintf_l               00407e30 f i server.obj
 0001:00006e60       _printf                    00407e60 f i server.obj
 0001:00006e80       __vsnprintf_l              00407e80 f i server.obj
 0001:00006ec0       _sscanf                    00407ec0 f i server.obj
 0001:00006ef0       ?vformatstring_@@YAXPADPBD0H@Z 00407ef0 f i server.obj
 0001:00006f10       ?copystring@@YAPADPADPBDI@Z 00407f10 f i server.obj
 0001:00006f30       ?concatstring@@YAPADPADPBDI@Z 00407f30 f i server.obj
 0001:00006f70       ??0stringformatter@@QAE@PAD@Z 00407f70 f i server.obj
 0001:00006f80       ??Rstringformatter@@QAAXPBDZZ 00407f80 f i server.obj
 0001:00006fb0       ??0packetbuf@@QAE@HH@Z     00407fb0 f i server.obj
 0001:00007000       ??1packetbuf@@QAE@XZ       00408000 f i server.obj
 0001:00007040       ?put@packetbuf@@QAEXPBEH@Z 00408040 f i server.obj
 0001:000070c0       ?finalize@packetbuf@@QAEPAU_ENetPacket@@XZ 004080c0 f i server.obj
 0001:000070f0       ?dist@vec@@QBEMABU1@@Z     004080f0 f i server.obj
 0001:00007170       ?pickup@playerstate@@QAEXH@Z 00408170 f i server.obj
 0001:00007270       ?spawnstate@playerstate@@UAEXH@Z 00408270 f i server.obj
 0001:00007450       ??_Eplayerstate@@UAEPAXI@Z 00408450 f i * CIL library *:* CIL module *
 0001:00007450       ??_Gplayerstate@@UAEPAXI@Z 00408450 f i server.obj
 0001:00007480       ??0serverconfigfile@@QAE@XZ 00408480 f i server.obj
 0001:000074e0       ??1serverconfigfile@@UAE@XZ 004084e0 f i server.obj
 0001:00007520       ?clear@serverconfigfile@@UAEXXZ 00408520 f i server.obj
 0001:00007520       ?fflush@stream@@UAEXXZ     00408520 f i stream.obj
 0001:00007520       ?perform@recorddemoaction@@UAEXXZ 00408520 f i server.obj
 0001:00007520       ?read@serverconfigfile@@UAEXXZ 00408520 f i server.obj
 0001:00007520       @_guard_check_icall_nop@4  00408520 f i LIBCMT:guard_support.obj
 0001:00007520       __initialize_denormal_control 00408520 f i LIBCMT:denormal_control.obj
 0001:00007520       __initialize_invalid_parameter_handler 00408520 f i LIBCMT:invalid_parameter_handler.obj
 0001:00007530       ??_Eserverconfigfile@@UAEPAXI@Z 00408530 f i * CIL library *:* CIL module *
 0001:00007530       ??_Eserverparameter@@UAEPAXI@Z 00408530 f i * CIL library *:* CIL module *
 0001:00007530       ??_Gserverconfigfile@@UAEPAXI@Z 00408530 f i server.obj
 0001:00007530       ??_Gserverparameter@@UAEPAXI@Z 00408530 f i server.obj
 0001:00007590       ?checkarg@servercommandline@@QAE_NPBD@Z 00408590 f i server.obj
 0001:00007f40       ?isalive@clientstate@@QAE_NH@Z 00408f40 f i server.obj
 0001:00007f70       ?respawn@clientstate@@QAEXXZ 00408f70 f i server.obj
 0001:00008010       ??_Eclientstate@@UAEPAXI@Z 00409010 f i * CIL library *:* CIL module *
 0001:00008010       ??_Gclientstate@@UAEPAXI@Z 00409010 f i server.obj
 0001:00008040       ?save@savedscore@@QAEXAAUclientstate@@H@Z 00409040 f i server.obj
 0001:000080d0       ?addevent@client@@QAEAATgameevent@@XZ 004090d0 f i server.obj
 0001:00008180       ?mapchange@client@@QAEX_N@Z 00409180 f i server.obj
 0001:00008340       ?reset@client@@QAEXXZ      00409340 f i server.obj
 0001:000084c0       ?checkvitadate@client@@QAE_NH@Z 004094c0 f i server.obj
 0001:000084f0       ??_Eservercontroller@@UAEPAXI@Z 004094f0 f i * CIL library *:* CIL module *
 0001:000084f0       ??_Gservercontroller@@UAEPAXI@Z 004094f0 f i server.obj
 0001:00008520       ??0winservice@@QAE@PBDHPAPAD@Z 00409520 f i server.obj
 0001:00008550       ?start@winservice@@UAEXXZ  00409550 f i server.obj
 0001:000085a0       ?keepalive@winservice@@UAEXXZ 004095a0 f i server.obj
 0001:00008600       ?stop@winservice@@UAEXXZ   00409600 f i server.obj
 0001:00008680       ?main@callbacks@winservice@@SGHXZ 00409680 f i server.obj
 0001:00008800       ?requesthandler@callbacks@winservice@@SGXK@Z 00409800 f i server.obj
 0001:000088a0       ??_Ewinservice@@UAEPAXI@Z  004098a0 f i * CIL library *:* CIL module *
 0001:000088a0       ??_Gwinservice@@UAEPAXI@Z  004098a0 f i server.obj
 0001:00008950       ??0servermap@@QAE@PBD0@Z   00409950 f i server.obj
 0001:000089b0       ?load@servermap@@QAEXXZ    004099b0 f i server.obj
 0001:00009bc0       ?clear@servermaprot@@UAEXXZ 0040abc0 f i server.obj
 0001:00009c20       ?load@servermaprot@@UAE_NXZ 0040ac20 f i server.obj
 0001:0000a0f0       ?read@servermaprot@@UAEXXZ 0040b0f0 f i server.obj
 0001:0000a220       ?initmap@servermaprot@@QAEXPAUservermap@@PAUstream@@@Z 0040b220 f i server.obj
 0001:0000a7a0       ??_Eservermaprot@@UAEPAXI@Z 0040b7a0 f i * CIL library *:* CIL module *
 0001:0000a7a0       ??_Gservermaprot@@UAEPAXI@Z 0040b7a0 f i server.obj
 0001:0000a7d0       ??1servermaprot@@UAE@XZ    0040b7d0 f i server.obj
 0001:0000a860       ?clear@serverinfofile@@UAEXXZ 0040b860 f i server.obj
 0001:0000a860       ?clear@serveripblacklist@@UAEXXZ 0040b860 f i server.obj
 0001:0000a860       ?clear@serveripcclist@@UAEXXZ 0040b860 f i server.obj
 0001:0000a880       ?read@serveripcclist@@UAEXXZ 0040b880 f i server.obj
 0001:0000ae40       ?read@serveripblacklist@@UAEXXZ 0040be40 f i server.obj
 0001:0000b200       ?check@serveripblacklist@@QAE_NI@Z 0040c200 f i server.obj
 0001:0000b250       ?clear@servernickblacklist@@UAEXXZ 0040c250 f i server.obj
 0001:0000b310       ?read@servernickblacklist@@UAEXXZ 0040c310 f i server.obj
 0001:0000be40       ?checkwhitelist@servernickblacklist@@QAEHABUclient@@@Z 0040ce40 f i server.obj
 0001:0000bfa0       ?checkblacklist@servernickblacklist@@QAEHPBD@Z 0040cfa0 f i server.obj
 0001:0000c0e0       ?clear@serverforbiddenlist@@UAEXXZ 0040d0e0 f i server.obj
 0001:0000c110       ?read@serverforbiddenlist@@UAEXXZ 0040d110 f i server.obj
 0001:0000c250       ?canspeech@serverforbiddenlist@@QAE_NPAD@Z 0040d250 f i server.obj
 0001:0000c3d0       ?clear@serverpasswords@@UAEXXZ 0040d3d0 f i server.obj
 0001:0000c3f0       ?read@serverpasswords@@UAEXXZ 0040d3f0 f i server.obj
 0001:0000c6b0       ?check@serverpasswords@@QAE_NPBD0HPAUpwddetail@@I@Z 0040d6b0 f i server.obj
 0001:0000c980       ??_Eserverinfofile@@UAEPAXI@Z 0040d980 f i * CIL library *:* CIL module *
 0001:0000c980       ??_Eserverpasswords@@UAEPAXI@Z 0040d980 f i * CIL library *:* CIL module *
 0001:0000c980       ??_Gserverinfofile@@UAEPAXI@Z 0040d980 f i server.obj
 0001:0000c980       ??_Gserverpasswords@@UAEPAXI@Z 0040d980 f i server.obj
 0001:0000c9b0       ??1serverinfofile@@UAE@XZ  0040d9b0 f i server.obj
 0001:0000c9b0       ??1serveripblacklist@@UAE@XZ 0040d9b0 f i server.obj
 0001:0000c9b0       ??1serveripcclist@@UAE@XZ  0040d9b0 f i server.obj
 0001:0000c9b0       ??1serverpasswords@@UAE@XZ 0040d9b0 f i server.obj
 0001:0000ca20       ?read@serverinfofile@@UAEXXZ 0040da20 f i server.obj
 0001:0000cb30       ?update@servpar@@QAEXXZ    0040db30 f i server.obj
 0001:0000cc40       ?nextvalue@servpar@@QAE_NPAD@Z 0040dc40 f i server.obj
 0001:0000ccf0       ?load@serverparameter@@UAE_NXZ 0040dcf0 f i server.obj
 0001:0000ce90       ?read@serverparameter@@UAEXXZ 0040de90 f i server.obj
 0001:0000d010       ??_Eserveripblacklist@@UAEPAXI@Z 0040e010 f i * CIL library *:* CIL module *
 0001:0000d010       ??_Eserveripcclist@@UAEPAXI@Z 0040e010 f i * CIL library *:* CIL module *
 0001:0000d010       ??_Gserveripblacklist@@UAEPAXI@Z 0040e010 f i server.obj
 0001:0000d010       ??_Gserveripcclist@@UAEPAXI@Z 0040e010 f i server.obj
 0001:0000d040       ??1servernickblacklist@@UAE@XZ 0040e040 f i server.obj
 0001:0000d150       ??_Eservernickblacklist@@UAEPAXI@Z 0040e150 f i * CIL library *:* CIL module *
 0001:0000d150       ??_Gservernickblacklist@@UAEPAXI@Z 0040e150 f i server.obj
 0001:0000d180       ??_Eserverforbiddenlist@@UAEPAXI@Z 0040e180 f i * CIL library *:* CIL module *
 0001:0000d180       ??_Gserverforbiddenlist@@UAEPAXI@Z 0040e180 f i server.obj
 0001:0000d1e0       ??_Gservermap@@QAEPAXI@Z   0040e1e0 f i server.obj
 0001:0000d2e0       ??_Gworldstate@@QAEPAXI@Z  0040e2e0 f i server.obj
 0001:0000d340       ??_G?$vector@E@@QAEPAXI@Z  0040e340 f i server.obj
 0001:0000d380       ?send_item_list@@YAXAAUpacketbuf@@@Z 0040e380 f i server.obj
 0001:0000d410       ?check_pdist@@YAHPAUclient@@AAM@Z 0040e410 f i server.obj
 0001:0000d460       ?addban@@YAXPAUclient@@HH@Z 0040e460 f i server.obj
 0001:0000d550       ?isvalid@recorddemoaction@@UAE_NXZ 0040e550 f i server.obj
 0001:0000d550       ?isvalid@serveraction@@UAE_NXZ 0040e550 f i server.obj
 0001:0000d550       ___acrt_uninitialize_command_line 0040e550 f i libucrt:argv_data.obj
 0001:0000d550       __should_initialize_environment 0040e550 f i LIBCMT:env_mode.obj
 0001:0000d560       ?isdisabled@mapaction@@UAE_NXZ 0040e560 f i server.obj
 0001:0000d560       ?isdisabled@serveraction@@UAE_NXZ 0040e560 f i server.obj
 0001:0000d570       ??_Eremovebansaction@@UAEPAXI@Z 0040e570 f i * CIL library *:* CIL module *
 0001:0000d570       ??_Eserveraction@@UAEPAXI@Z 0040e570 f i * CIL library *:* CIL module *
 0001:0000d570       ??_Eshuffleteamaction@@UAEPAXI@Z 0040e570 f i * CIL library *:* CIL module *
 0001:0000d570       ??_Gremovebansaction@@UAEPAXI@Z 0040e570 f i server.obj
 0001:0000d570       ??_Gserveraction@@UAEPAXI@Z 0040e570 f i server.obj
 0001:0000d570       ??_Gshuffleteamaction@@UAEPAXI@Z 0040e570 f i server.obj
 0001:0000d5a0       ?perform@mapaction@@UAEXXZ 0040e5a0 f i server.obj
 0001:0000d690       ?isvalid@mapaction@@UAE_NXZ 0040e690 f i server.obj
 0001:0000d6f0       ??0mapaction@@QAE@PADHHH_N@Z 0040e6f0 f i server.obj
 0001:0000dc90       ??_Emapaction@@UAEPAXI@Z   0040ec90 f i * CIL library *:* CIL module *
 0001:0000dc90       ??_Gmapaction@@UAEPAXI@Z   0040ec90 f i server.obj
 0001:0000dce0       ?perform@demoplayaction@@UAEXXZ 0040ece0 f i server.obj
 0001:0000dcf0       ??_Edemoplayaction@@UAEPAXI@Z 0040ecf0 f i * CIL library *:* CIL module *
 0001:0000dcf0       ??_Gdemoplayaction@@UAEPAXI@Z 0040ecf0 f i server.obj
 0001:0000dd40       ?isvalid@playeraction@@UAE_NXZ 0040ed40 f i server.obj
 0001:0000dd70       ??0playeraction@@QAE@H@Z   0040ed70 f i server.obj
 0001:0000ddd0       ??_Egiveadminaction@@UAEPAXI@Z 0040edd0 f i * CIL library *:* CIL module *
 0001:0000ddd0       ??_Eplayeraction@@UAEPAXI@Z 0040edd0 f i * CIL library *:* CIL module *
 0001:0000ddd0       ??_Ggiveadminaction@@UAEPAXI@Z 0040edd0 f i server.obj
 0001:0000ddd0       ??_Gplayeraction@@UAEPAXI@Z 0040edd0 f i server.obj
 0001:0000de00       ?perform@forceteamaction@@UAEXXZ 0040ee00 f i server.obj
 0001:0000de20       ?isvalid@forceteamaction@@UAE_NXZ 0040ee20 f i server.obj
 0001:0000de60       ??_Ebanaction@@UAEPAXI@Z   0040ee60 f i * CIL library *:* CIL module *
 0001:0000de60       ??_Eforceteamaction@@UAEPAXI@Z 0040ee60 f i * CIL library *:* CIL module *
 0001:0000de60       ??_Ekickaction@@UAEPAXI@Z  0040ee60 f i * CIL library *:* CIL module *
 0001:0000de60       ??_Gbanaction@@UAEPAXI@Z   0040ee60 f i server.obj
 0001:0000de60       ??_Gforceteamaction@@UAEPAXI@Z 0040ee60 f i server.obj
 0001:0000de60       ??_Gkickaction@@UAEPAXI@Z  0040ee60 f i server.obj
 0001:0000de90       ?perform@giveadminaction@@UAEXXZ 0040ee90 f i server.obj
 0001:0000deb0       ?perform@kickaction@@UAEXXZ 0040eeb0 f i server.obj
 0001:0000df10       ?isvalid@banaction@@UAE_NXZ 0040ef10 f i server.obj
 0001:0000df10       ?isvalid@kickaction@@UAE_NXZ 0040ef10 f i server.obj
 0001:0000df50       ?perform@banaction@@UAEXXZ 0040ef50 f i server.obj
 0001:0000dfb0       ?perform@removebansaction@@UAEXXZ 0040efb0 f i server.obj
 0001:0000dfd0       ?perform@pauseaction@@UAEXXZ 0040efd0 f i server.obj
 0001:0000e040       ?isvalid@pauseaction@@UAE_NXZ 0040f040 f i server.obj
 0001:0000e060       ??_Eautoteamaction@@UAEPAXI@Z 0040f060 f i * CIL library *:* CIL module *
 0001:0000e060       ??_Ecleardemosaction@@UAEPAXI@Z 0040f060 f i * CIL library *:* CIL module *
 0001:0000e060       ??_Emastermodeaction@@UAEPAXI@Z 0040f060 f i * CIL library *:* CIL module *
 0001:0000e060       ??_Epauseaction@@UAEPAXI@Z 0040f060 f i * CIL library *:* CIL module *
 0001:0000e060       ??_Erecorddemoaction@@UAEPAXI@Z 0040f060 f i * CIL library *:* CIL module *
 0001:0000e060       ??_Gautoteamaction@@UAEPAXI@Z 0040f060 f i server.obj
 0001:0000e060       ??_Gcleardemosaction@@UAEPAXI@Z 0040f060 f i server.obj
 0001:0000e060       ??_Gmastermodeaction@@UAEPAXI@Z 0040f060 f i server.obj
 0001:0000e060       ??_Gpauseaction@@UAEPAXI@Z 0040f060 f i server.obj
 0001:0000e060       ??_Grecorddemoaction@@UAEPAXI@Z 0040f060 f i server.obj
 0001:0000e090       ?perform@mastermodeaction@@UAEXXZ 0040f090 f i server.obj
 0001:0000e0a0       ?isvalid@mastermodeaction@@UAE_NXZ 0040f0a0 f i server.obj
 0001:0000e0b0       ?perform@autoteamaction@@UAEXXZ 0040f0b0 f i server.obj
 0001:0000e150       ?perform@shuffleteamaction@@UAEXXZ 0040f150 f i server.obj
 0001:0000e1a0       ?isvalid@shuffleteamaction@@UAE_NXZ 0040f1a0 f i server.obj
 0001:0000e1f0       ?perform@cleardemosaction@@UAEXXZ 0040f1f0 f i server.obj
 0001:0000e2d0       ?perform@serverdescaction@@UAEXXZ 0040f2d0 f i server.obj
 0001:0000e380       ?isvalid@serverdescaction@@UAE_NXZ 0040f380 f i server.obj
 0001:0000e3c0       ??_Eserverdescaction@@UAEPAXI@Z 0040f3c0 f i * CIL library *:* CIL module *
 0001:0000e3c0       ??_Gserverdescaction@@UAEPAXI@Z 0040f3c0 f i server.obj
 0001:0000e410       ?end@voteinfo@@QAEXH@Z     0040f410 f i server.obj
 0001:0000e4d0       ?evaluate@voteinfo@@QAEX_N@Z 0040f4d0 f i server.obj
 0001:0000e6a0       ?getbits@?$bitbuf@U?$databuf@E@@@@QAEHH@Z 0040f6a0 f i server.obj
 0001:0000e750       ?full@?$ringbuf@PAUservinfoauth@@$0BA@@@QBE_NXZ 0040f750 f i server.obj
 0001:0000e780       ?add@?$ringbuf@E$0EAAAA@@@QAEXPBEH@Z 0040f780 f i server.obj
 0001:0000e800       ?add@?$vector@H@@QAEAAHABH@Z 0040f800 f i server.obj
 0001:0000e800       ?add@?$vector@PAUservermap@@@@QAEAAPAUservermap@@ABQAU2@@Z 0040f800 f i server.obj
 0001:0000e890       ?remove@?$vector@Uban@@@@QAE?AUban@@H@Z 0040f890 f i server.obj
 0001:0000e900       ?add@?$vector@PAUclient@@@@QAEAAPAUclient@@ABQAU2@@Z 0040f900 f i server.obj
 0001:0000e9c0       ?access@?$hashtable@Uuchar32@@Uvita_s@@@@QAEAAUvita_s@@ABUuchar32@@ABU2@@Z 0040f9c0 f i server.obj
 0001:0000eba0       ?access@?$hashtable@Uuchar32@@Uvita_s@@@@QAEPAUvita_s@@ABUuchar32@@@Z 0040fba0 f i server.obj
 0001:0000ec00       ?access@?$hashtable@PBDUservpar@@@@QAEAAUservpar@@ABQBDABU2@@Z 0040fc00 f i server.obj
 0001:0000ed00       ?access@?$hashtable@PBDUservpar@@@@QAEPAUservpar@@ABQBD@Z 0040fd00 f i server.obj
 0001:0000ed90       ??0?$hashtable@PBDUservpar@@@@QAE@H@Z 0040fd90 f i server.obj
 0001:0000ee00       ?add@?$vector@Upwddetail@@@@QAEAAUpwddetail@@ABU2@@Z 0040fe00 f i server.obj
 0001:0000eea0       ?clear@?$hashtable@PBDH@@QAEX_N@Z 0040fea0 f i server.obj
 0001:0000efc0       ?access@?$hashtable@PBDH@@QAEAAHABQBDABH@Z 0040ffc0 f i server.obj
 0001:0000f0b0       ?access@?$hashtable@PBDH@@QAEPAHABQBD@Z 004100b0 f i server.obj
 0001:0000f140       ?remove@?$vector@Uiprangecc@@@@QAE?AUiprangecc@@H@Z 00410140 f i server.obj
 0001:0000f1a0       ?get@?$databuf@E@@QAEHPAEH@Z 004101a0 f i server.obj
 0001:0000f1e0       ?growbuf@?$vector@D@@QAEXH@Z 004101e0 f i server.obj
 0001:0000f1e0       ?growbuf@?$vector@E@@QAEXH@Z 004101e0 f i server.obj
 0001:0000f240       ?insertchains@?$hashtable@PBDH@@QAEXPAUchainchunk@1@@Z 00410240 f i server.obj
 0001:0000f310       ?insertchains@?$hashtable@PBDUservpar@@@@QAEXPAUchainchunk@1@@Z 00410310 f i server.obj
 0001:0000f400       ??_Gcert@@QAEPAXI@Z        00410400 f i crypto.obj
 0001:0000f480       _fprintf                   00410480 f i log.obj
 0001:0000f4b0       ?strrchr@@YAPADQADH@Z      004104b0 f i stream.obj
 0001:0000f4c0       ?printf@stream@@UAAHPBDZZ  004104c0 f i stream.obj
 0001:0000f4c0       ?tell@stream@@UAEJXZ       004104c0 f i stream.obj
 0001:0000f4d0       ?seek@stream@@UAE_NJH@Z    004104d0 f i stream.obj
 0001:0000f4e0       ?read@stream@@UAEHPAXH@Z   004104e0 f i stream.obj
 0001:0000f4e0       ?write@stream@@UAEHPBXH@Z  004104e0 f i stream.obj
 0001:0000f4f0       ?getchar@stream@@UAEHXZ    004104f0 f i stream.obj
 0001:0000f510       ?putchar@stream@@UAE_NH@Z  00410510 f i stream.obj
 0001:0000f530       ?putstring@stream@@UAE_NPBD@Z 00410530 f i stream.obj
 0001:0000f560       ?putline@stream@@UAE_NPBD@Z 00410560 f i stream.obj
 0001:0000f590       ?getcrc@stream@@UAEIXZ     00410590 f i stream.obj
 0001:0000f590       ___scrt_exe_initialize_mta 00410590 f i LIBCMT:utility_desktop.obj
 0001:0000f590       ___scrt_initialize_winrt   00410590 f i LIBCMT:utility_desktop.obj
 0001:0000f590       ___scrt_stub_for_initialize_mta 00410590 f i LIBCMT:utility_desktop.obj
 0001:0000f590       __get_startup_commit_mode  00410590 f i LIBCMT:commit_mode.obj
 0001:0000f590       __get_startup_new_mode     00410590 f i LIBCMT:new_mode.obj
 0001:0000f590       __get_startup_thread_locale_mode 00410590 f i LIBCMT:thread_locale.obj
 0001:0000f590       __matherr                  00410590 f i LIBCMT:matherr.obj
 0001:0000f5a0       ??_Estream@@UAEPAXI@Z      004105a0 f i * CIL library *:* CIL module *
 0001:0000f5a0       ??_Gstream@@UAEPAXI@Z      004105a0 f i stream.obj
 0001:0000f5d0       ?close@filestream@@UAEXXZ  004105d0 f i stream.obj
 0001:0000f5f0       ?end@filestream@@UAE_NXZ   004105f0 f i stream.obj
 0001:0000f610       ?tell@filestream@@UAEJXZ   00410610 f i stream.obj
 0001:0000f620       ?seek@filestream@@UAE_NJH@Z 00410620 f i stream.obj
 0001:0000f640       ?fflush@filestream@@UAEXXZ 00410640 f i stream.obj
 0001:0000f650       ?read@filestream@@UAEHPAXH@Z 00410650 f i stream.obj
 0001:0000f670       ?write@filestream@@UAEHPBXH@Z 00410670 f i stream.obj
 0001:0000f690       ?getchar@filestream@@UAEHXZ 00410690 f i stream.obj
 0001:0000f6a0       ?putchar@filestream@@UAE_NH@Z 004106a0 f i stream.obj
 0001:0000f6c0       ?getline@filestream@@UAE_NPADH@Z 004106c0 f i stream.obj
 0001:0000f6e0       ?putstring@filestream@@UAE_NPBD@Z 004106e0 f i stream.obj
 0001:0000f700       ?printf@filestream@@UAAHPBDZZ 00410700 f i stream.obj
 0001:0000f730       ??_Efilestream@@UAEPAXI@Z  00410730 f i * CIL library *:* CIL module *
 0001:0000f730       ??_Gfilestream@@UAEPAXI@Z  00410730 f i stream.obj
 0001:0000f770       ?readbyte@gzstream@@QAEHH@Z 00410770 f i stream.obj
 0001:0000f7d0       ?skipbytes@gzstream@@QAEXH@Z 004107d0 f i stream.obj
 0001:0000f810       ?checkheader@gzstream@@QAE_NXZ 00410810 f i stream.obj
 0001:0000fac0       ?open@gzstream@@QAE_NPAUstream@@PBD_NH@Z 00410ac0 f i stream.obj
 0001:0000fc10       ?getcrc@gzstream@@UAEIXZ   00410c10 f i stream.obj
 0001:0000fc20       ?stopreading@gzstream@@QAEXXZ 00410c20 f i stream.obj
 0001:0000fc40       ?stopwriting@gzstream@@QAEXXZ 00410c40 f i stream.obj
 0001:0000fc60       ?close@gzstream@@UAEXXZ    00410c60 f i stream.obj
 0001:0000fdb0       ?end@gzstream@@UAE_NXZ     00410db0 f i stream.obj
 0001:0000fdd0       ?tell@gzstream@@UAEJXZ     00410dd0 f i stream.obj
 0001:0000fdf0       ?seek@gzstream@@UAE_NJH@Z  00410df0 f i stream.obj
 0001:0000ff30       ?read@gzstream@@UAEHPAXH@Z 00410f30 f i stream.obj
 0001:00010000       ?write@gzstream@@UAEHPBXH@Z 00411000 f i stream.obj
 0001:000100c0       ??_Egzstream@@UAEPAXI@Z    004110c0 f i * CIL library *:* CIL module *
 0001:000100c0       ??_Ggzstream@@UAEPAXI@Z    004110c0 f i stream.obj
 0001:00010230       ?close@vecstream@@UAEXXZ   00411230 f i stream.obj
 0001:00010250       ?end@vecstream@@UAE_NXZ    00411250 f i stream.obj
 0001:00010270       ?tell@vecstream@@UAEJXZ    00411270 f i stream.obj
 0001:00010280       ?size@vecstream@@UAEJXZ    00411280 f i stream.obj
 0001:00010290       ?seek@vecstream@@UAE_NJH@Z 00411290 f i stream.obj
 0001:000102f0       ?read@vecstream@@UAEHPAXH@Z 004112f0 f i stream.obj
 0001:00010340       ?write@vecstream@@UAEHPBXH@Z 00411340 f i stream.obj
 0001:000103b0       ?printf@vecstream@@UAAHPBDZZ 004113b0 f i stream.obj
 0001:00010470       ??_Evecstream@@UAEPAXI@Z   00411470 f i * CIL library *:* CIL module *
 0001:00010470       ??_Gvecstream@@UAEPAXI@Z   00411470 f i stream.obj
 0001:000104c0       ?put@packetbuf@@QAEXABE@Z  004114c0 f i protocol1.obj
 0001:00010522       _htonl@4                   00411522 f   ws2_32:WS2_32.dll
 0001:00010528       _ntohl@4                   00411528 f   ws2_32:WS2_32.dll
 0001:0001052e       ___WSAFDIsSet@8            0041152e f   ws2_32:WS2_32.dll
 0001:00010534       _WSAStartup@8              00411534 f   ws2_32:WS2_32.dll
 0001:0001053a       _WSACleanup@0              0041153a f   ws2_32:WS2_32.dll
 0001:00010540       _gethostbyname@4           00411540 f   ws2_32:WS2_32.dll
 0001:00010546       _inet_addr@4               00411546 f   ws2_32:WS2_32.dll
 0001:0001054c       _inet_ntoa@4               0041154c f   ws2_32:WS2_32.dll
 0001:00010552       _gethostbyaddr@12          00411552 f   ws2_32:WS2_32.dll
 0001:00010558       _htons@4                   00411558 f   ws2_32:WS2_32.dll
 0001:0001055e       _bind@12                   0041155e f   ws2_32:WS2_32.dll
 0001:00010564       _listen@8                  00411564 f   ws2_32:WS2_32.dll
 0001:0001056a       _socket@12                 0041156a f   ws2_32:WS2_32.dll
 0001:00010570       _setsockopt@20             00411570 f   ws2_32:WS2_32.dll
 0001:00010576       _ioctlsocket@12            00411576 f   ws2_32:WS2_32.dll
 0001:0001057c       _connect@12                0041157c f   ws2_32:WS2_32.dll
 0001:00010582       _WSAGetLastError@0         00411582 f   ws2_32:WS2_32.dll
 0001:00010588       _accept@12                 00411588 f   ws2_32:WS2_32.dll
 0001:0001058e       _ntohs@4                   0041158e f   ws2_32:WS2_32.dll
 0001:00010594       _shutdown@8                00411594 f   ws2_32:WS2_32.dll
 0001:0001059a       _closesocket@4             0041159a f   ws2_32:WS2_32.dll
 0001:000105a0       _WSASendTo@36              004115a0 f   ws2_32:WS2_32.dll
 0001:000105a6       _WSARecvFrom@36            004115a6 f   ws2_32:WS2_32.dll
 0001:000105ac       _select@20                 004115ac f   ws2_32:WS2_32.dll
 0001:000105b2       _timeBeginPeriod@4         004115b2 f   winmm:WINMM.dll
 0001:000105b8       _timeEndPeriod@4           004115b8 f   winmm:WINMM.dll
 0001:000105be       _timeGetTime@0             004115be f   winmm:WINMM.dll
 0001:000105c4       @__security_check_cookie@4 004115c4 f   LIBCMT:secchk.obj
 0001:000105d2       ??_V@YAXPAX@Z              004115d2 f   LIBCMT:delete_array.obj
 0001:000105d7       __Init_thread_footer       004115d7 f   LIBCMT:thread_safe_statics.obj
 0001:00010628       __Init_thread_header       00411628 f   LIBCMT:thread_safe_statics.obj
 0001:00010677       __Init_thread_wait_v2      00411677 f   LIBCMT:thread_safe_statics.obj
 0001:0001068c       ___raise_securityfailure   0041168c f   LIBCMT:gs_report.obj
 0001:000106b4       ___report_gsfailure        004116b4 f   LIBCMT:gs_report.obj
 0001:000107af       ___report_rangecheckfailure 004117af f   LIBCMT:gs_report.obj
 0001:000107bc       ___report_securityfailure  004117bc f   LIBCMT:gs_report.obj
 0001:0001088c       ??2@YAPAXI@Z               0041188c f   LIBCMT:new_scalar.obj
 0001:00010900       ___scrt_acquire_startup_lock 00411900 f   LIBCMT:utility.obj
 0001:00010932       ___scrt_initialize_crt     00411932 f   LIBCMT:utility.obj
 0001:0001096b       ___scrt_initialize_onexit_tables 0041196b f   LIBCMT:utility.obj
 0001:000109f2       ___scrt_is_nonwritable_in_current_image 004119f2 f   LIBCMT:utility.obj
 0001:00010a86       ___scrt_release_startup_lock 00411a86 f   LIBCMT:utility.obj
 0001:00010aa3       ___scrt_uninitialize_crt   00411aa3 f   LIBCMT:utility.obj
 0001:00010acb       __onexit                   00411acb f   LIBCMT:utility.obj
 0001:00010af8       _atexit                    00411af8 f   LIBCMT:utility.obj
 0001:00010b0d       ??3@YAXPAXI@Z              00411b0d f   LIBCMT:delete_scalar_size.obj
 0001:00010b1b       ??_U@YAPAXI@Z              00411b1b f   LIBCMT:new_array.obj
 0001:00010b24       ??_Etype_info@@UAEPAXI@Z   00411b24 f i LIBCMT:std_type_info_static.obj
 0001:00010b24       ??_Gtype_info@@UAEPAXI@Z   00411b24 f i LIBCMT:std_type_info_static.obj
 0001:00010d8e       _mainCRTStartup            00411d8e f   LIBCMT:exe_main.obj
 0001:00010d98       ??3@YAXPAX@Z               00411d98 f   LIBCMT:delete_scalar.obj
 0001:00010d9d       ??0bad_alloc@std@@QAE@ABV01@@Z 00411d9d f i LIBCMT:throw_bad_alloc.obj
 0001:00010db8       ??0bad_alloc@std@@QAE@XZ   00411db8 f i LIBCMT:throw_bad_alloc.obj
 0001:00010dd0       ??0bad_array_new_length@std@@QAE@ABV01@@Z 00411dd0 f i LIBCMT:throw_bad_alloc.obj
 0001:00010deb       ??0bad_array_new_length@std@@QAE@XZ 00411deb f i LIBCMT:throw_bad_alloc.obj
 0001:00010e03       ??0exception@std@@QAE@ABV01@@Z 00411e03 f i LIBCMT:throw_bad_alloc.obj
 0001:00010e2f       ??1bad_alloc@std@@UAE@XZ   00411e2f f i LIBCMT:throw_bad_alloc.obj
 0001:00010e2f       ??1bad_array_new_length@std@@UAE@XZ 00411e2f f i LIBCMT:throw_bad_alloc.obj
 0001:00010e2f       ??1bad_exception@std@@UAE@XZ 00411e2f f i libvcruntime:frame.obj
 0001:00010e40       ??_Ebad_alloc@std@@UAEPAXI@Z 00411e40 f i LIBCMT:throw_bad_alloc.obj
 0001:00010e40       ??_Ebad_array_new_length@std@@UAEPAXI@Z 00411e40 f i LIBCMT:throw_bad_alloc.obj
 0001:00010e40       ??_Ebad_exception@std@@UAEPAXI@Z 00411e40 f i libvcruntime:frame.obj
 0001:00010e40       ??_Eexception@std@@UAEPAXI@Z 00411e40 f i LIBCMT:throw_bad_alloc.obj
 0001:00010e40       ??_Gbad_alloc@std@@UAEPAXI@Z 00411e40 f i LIBCMT:throw_bad_alloc.obj
 0001:00010e40       ??_Gbad_array_new_length@std@@UAEPAXI@Z 00411e40 f i LIBCMT:throw_bad_alloc.obj
 0001:00010e40       ??_Gbad_exception@std@@UAEPAXI@Z 00411e40 f i libvcruntime:frame.obj
 0001:00010e40       ??_Gexception@std@@UAEPAXI@Z 00411e40 f i LIBCMT:throw_bad_alloc.obj
 0001:00010e6d       ?__scrt_throw_std_bad_alloc@@YAXXZ 00411e6d f   LIBCMT:throw_bad_alloc.obj
 0001:00010e8a       ?__scrt_throw_std_bad_array_new_length@@YAXXZ 00411e8a f   LIBCMT:throw_bad_alloc.obj
 0001:00010ea7       ?what@exception@std@@UBEPBDXZ 00411ea7 f i LIBCMT:throw_bad_alloc.obj
 0001:00010eb4       ___isa_available_init      00411eb4 f   LIBCMT:cpu_disp.obj
 0001:000111e1       __get_startup_argv_mode    004121e1 f   LIBCMT:argv_mode.obj
 0001:000111e5       ___scrt_is_ucrt_dll_in_use 004121e5 f   LIBCMT:ucrt_detection.obj
 0001:000111f1       ___scrt_fastfail           004121f1 f   LIBCMT:utility_desktop.obj
 0001:00011306       ___scrt_initialize_mta     00412306 f   LIBCMT:utility_desktop.obj
 0001:0001130b       ___scrt_is_managed_app     0041230b f   LIBCMT:utility_desktop.obj
 0001:0001134d       ___scrt_set_unhandled_exception_filter 0041234d f   LIBCMT:utility_desktop.obj
 0001:00011359       ___scrt_unhandled_exception_filter@4 00412359 f   LIBCMT:utility_desktop.obj
 0001:000113af       __crt_debugger_hook        004123af f   LIBCMT:utility_desktop.obj
 0001:000113c0       __SEH_prolog4              004123c0 f   LIBCMT:sehprolg4.obj
 0001:00011452       ___security_init_cookie    00412452 f   LIBCMT:gs_support.obj
 0001:0001149d       __get_startup_file_mode    0041249d f   LIBCMT:file_mode.obj
 0001:000114a3       ?__scrt_initialize_type_info@@YAXXZ 004124a3 f   LIBCMT:tncleanup.obj
 0001:000114af       __initialize_default_precision 004124af f   LIBCMT:default_precision.obj
 0001:000114d0       ___scrt_initialize_default_local_stdio_options 004124d0 f   LIBCMT:default_local_stdio_options.obj
 0001:000114ed       ___scrt_is_user_matherr_present 004124ed f   LIBCMT:matherr_detection.obj
 0001:000114f9       ___scrt_get_dyn_tls_init_callback 004124f9 f   LIBCMT:dyn_tls_init.obj
 0001:000114ff       ___scrt_get_dyn_tls_dtor_callback 004124ff f   LIBCMT:dyn_tls_dtor.obj
 0001:00011505       __RTC_Initialize           00412505 f   LIBCMT:initsect.obj
 0001:00011531       __RTC_Terminate            00412531 f   LIBCMT:initsect.obj
 0001:000115a0       __except_handler4          004125a0 f   libvcruntime:chandler4.obj
 0001:000116fe       __get_purecall_handler     004126fe f   libvcruntime:purevirt.obj
 0001:00011705       __purecall                 00412705 f   libvcruntime:purevirt.obj
 0001:00011730       _strstr                    00412730 f   libvcruntime:strstr.obj
 0001:000119a0       _strchr                    004129a0 f   libvcruntime:strchr.obj
 0001:00011a0e       ___from_strstr_to_strchr   00412a0e     libvcruntime:strchr.obj
 0001:00011ad0       _strrchr                   00412ad0 f   libvcruntime:strrchr.obj
 0001:00011c10       _memset                    00412c10 f   libvcruntime:memset.obj
 0001:00011d70       _memcpy                    00412d70 f   libvcruntime:memcpy.obj
 0001:00011d70       _memmove                   00412d70 f   libvcruntime:memmove.obj
 0001:000122e4       ___vcrt_initialize         004132e4 f   libvcruntime:initialization.obj
 0001:00012303       ___vcrt_uninitialize       00413303 f   libvcruntime:initialization.obj
 0001:0001231a       ___std_exception_copy      0041331a f   libvcruntime:std_exception.obj
 0001:0001237d       ___std_exception_destroy   0041337d f   libvcruntime:std_exception.obj
 0001:0001239c       __CxxThrowException@8      0041339c f   libvcruntime:throw.obj
 0001:00012408       ___DestructExceptionObject 00413408 f   libvcruntime:ehhelpers.obj
 0001:000124a9       ?_CallMemberFunction0@@YGXQAX0@Z 004134a9 f i libvcruntime:ehhelpers.obj
 0001:0001250e       __IsExceptionObjectToBeDestroyed 0041350e f   libvcruntime:ehhelpers.obj
 0001:00012534       ___AdjustPointer           00413534 f   libvcruntime:ehhelpers.obj
 0001:00012559       ___FrameUnwindFilter       00413559 f   libvcruntime:ehhelpers.obj
 0001:000125af       ___current_exception       004135af f   libvcruntime:ehhelpers.obj
 0001:000125b8       ___current_exception_context 004135b8 f   libvcruntime:ehhelpers.obj
 0001:000125c1       ___std_terminate           004135c1 f   libvcruntime:ehhelpers.obj
 0001:000125c6       ___std_type_info_compare   004135c6 f   libvcruntime:std_type_info.obj
 0001:00012610       __local_unwind4            00413610 f   libvcruntime:exsup4.obj
 0001:00012700       @_EH4_CallFilterFunc@8     00413700 f   libvcruntime:exsup4.obj
 0001:00012720       @_EH4_TransferToHandler@8  00413720 f   libvcruntime:exsup4.obj
 0001:00012740       @_EH4_GlobalUnwind2@8      00413740 f   libvcruntime:exsup4.obj
 0001:00012760       @_EH4_LocalUnwind@16       00413760 f   libvcruntime:exsup4.obj
 0001:00012777       ___except_validate_context_record 00413777 f   libvcruntime:jbcxrval.obj
 0001:000127a7       ___vcrt_freefls@4          004137a7 f   libvcruntime:per_thread_data.obj
 0001:000127c3       ___vcrt_getptd             004137c3 f   libvcruntime:per_thread_data.obj
 0001:000127d1       ___vcrt_getptd_noexit      004137d1 f   libvcruntime:per_thread_data.obj
 0001:00012863       ___vcrt_initialize_ptd     00413863 f   libvcruntime:per_thread_data.obj
 0001:00012896       ___vcrt_uninitialize_ptd   00413896 f   libvcruntime:per_thread_data.obj
 0001:000128b1       ___vcrt_initialize_locks   004138b1 f   libvcruntime:locks.obj
 0001:000128ed       ___vcrt_uninitialize_locks 004138ed f   libvcruntime:locks.obj
 0001:00012920       __NLG_Notify1              00413920 f   libvcruntime:exsup.obj
 0001:00012930       __NLG_Notify               00413930 f   libvcruntime:exsup.obj
 0001:00012947       __NLG_Dispatch             00413947     libvcruntime:exsup.obj
 0001:00012947       __NLG_Dispatch2            00413947     libvcruntime:exsup.obj
 0001:00012950       __NLG_Call                 00413950 f   libvcruntime:exsup.obj
 0001:00012952       __NLG_Return2              00413952     libvcruntime:exsup.obj
 0001:00012a3e       ___vcrt_FlsAlloc           00413a3e f   libvcruntime:winapi_downlevel.obj
 0001:00012a79       ___vcrt_FlsFree            00413a79 f   libvcruntime:winapi_downlevel.obj
 0001:00012ab4       ___vcrt_FlsGetValue        00413ab4 f   libvcruntime:winapi_downlevel.obj
 0001:00012aef       ___vcrt_FlsSetValue        00413aef f   libvcruntime:winapi_downlevel.obj
 0001:00012b2d       ___vcrt_InitializeCriticalSectionEx 00413b2d f   libvcruntime:winapi_downlevel.obj
 0001:00012b74       ?GetRangeOfTrysToCheck@__FrameHandler3@@SA?AU?$pair@Viterator@TryBlockMap@__FrameHandler3@@V123@@std@@AAVTryBlockMap@1@HPAXPBU_s_FuncInfo@@H@Z 00413b74 f   libvcruntime:trnsctrl.obj
 0001:00012be3       ?_CallCatchBlock2@@YAPAXPAUEHRegistrationNode@@PBU_s_FuncInfo@@PAXHK@Z 00413be3 f   libvcruntime:trnsctrl.obj
 0001:00012c40       ?_CallSETranslator@@YAHPAUEHExceptionRecord@@PAUEHRegistrationNode@@PAX2PBU_s_FuncInfo@@H1@Z 00413c40 f   libvcruntime:trnsctrl.obj
 0001:00012d30       ?_JumpToContinuation@@YGXPAXPAUEHRegistrationNode@@@Z 00413d30 f   libvcruntime:trnsctrl.obj
 0001:00012d60       ?_UnwindNestedFrames@@YGXPAUEHRegistrationNode@@PAUEHExceptionRecord@@@Z 00413d60 f   libvcruntime:trnsctrl.obj
 0001:00012db4       __CatchGuardHandler        00413db4 f   libvcruntime:trnsctrl.obj
 0001:00012de5       __CreateFrameInfo          00413de5 f   libvcruntime:trnsctrl.obj
 0001:00012e09       __FindAndUnlinkFrame       00413e09 f   libvcruntime:trnsctrl.obj
 0001:00012e51       __TranslatorGuardHandler   00413e51 f   libvcruntime:trnsctrl.obj
 0001:00012ef0       ___CxxFrameHandler3        00413ef0 f   libvcruntime:trnsctrl.obj
 0001:00013658       ??$TypeMatchHelper@V__FrameHandler3@@@@YAHPBU_s_HandlerType@@PBU_s_CatchableType@@PBU_s_ThrowInfo@@@Z 00414658 f i libvcruntime:frame.obj
 0001:000136e6       ??$__InternalCxxFrameHandler@V__FrameHandler3@@@@YA?AW4_EXCEPTION_DISPOSITION@@PAUEHExceptionRecord@@PAUEHRegistrationNode@@PAU_CONTEXT@@PAXPBU_s_FuncInfo@@H1E@Z 004146e6 f i libvcruntime:frame.obj
 0001:000137e8       ??$__InternalCxxFrameHandlerWrapper@V__FrameHandler3@@@@YA?AW4_EXCEPTION_DISPOSITION@@PAUEHExceptionRecord@@PAUEHRegistrationNode@@PAU_CONTEXT@@PAXPBU_s_FuncInfo@@H1E@Z 004147e8 f i libvcruntime:frame.obj
 0001:000137f1       ??0bad_exception@std@@QAE@ABV01@@Z 004147f1 f i libvcruntime:frame.obj
 0001:0001380c       ??0bad_exception@std@@QAE@XZ 0041480c f i libvcruntime:frame.obj
 0001:00013824       ??8type_info@@QBE_NABV0@@Z 00414824 f i libvcruntime:frame.obj
 0001:00013a9b       ?FrameUnwindToEmptyState@__FrameHandler3@@SAXPAUEHRegistrationNode@@PAXPBU_s_FuncInfo@@@Z 00414a9b f   libvcruntime:frame.obj
 0001:00013ab3       ?FrameUnwindToState@__FrameHandler3@@SAXPAUEHRegistrationNode@@PAXPBU_s_FuncInfo@@H@Z 00414ab3 f   libvcruntime:frame.obj
 0001:00013c35       ?_CallMemberFunction1@@YGXQAX00@Z 00414c35 f i libvcruntime:frame.obj
 0001:00013c45       ?_CallMemberFunction2@@YGXQAX00H@Z 00414c45 f i libvcruntime:frame.obj
 0001:00013c58       ?getESTypes@__FrameHandler3@@SAPBU_s_ESTypeList@@PBU_s_FuncInfo@@@Z 00414c58 f i libvcruntime:frame.obj
 0001:00013c70       __CallSettingFrame@12      00414c70 f   libvcruntime:lowhelpr.obj
 0001:00013c97       __NLG_Return               00414c97     libvcruntime:lowhelpr.obj
 0001:00013cbc       _unexpected                00414cbc f   libvcruntime:unexpected.obj
 0001:00013cd9       ?GetCurrentState@__FrameHandler3@@SAHPAUEHRegistrationNode@@PAXPBU_s_FuncInfo@@@Z 00414cd9 f   libvcruntime:ehstate.obj
 0001:00013cf6       ?SetState@__FrameHandler3@@SAXPAUEHRegistrationNode@@PBU_s_FuncInfo@@H@Z 00414cf6 f   libvcruntime:ehstate.obj
 0001:00013d5d       ??$__crt_fast_decode_pointer@P6AHI@Z@@YAP6AHI@ZQ6AHI@Z@Z 00414d5d f i libucrt:new_handler.obj
 0001:00013d5d       ??$__crt_fast_decode_pointer@P6AXH@Z@@YAP6AXH@ZQ6AXH@Z@Z 00414d5d f i libucrt:signal.obj
 0001:00013d5d       ??$__crt_fast_decode_pointer@P6GXPAXK0@Z@@YAP6GXPAXK0@ZQ6GX0K0@Z@Z 00414d5d f i libucrt:exit.obj
 0001:00013d78       ??$__crt_fast_encode_pointer@P6AHPAU_exception@@@Z@@YAP6AHPAU_exception@@@ZQ6AH0@Z@Z 00414d78 f i libucrt:matherr.obj
 0001:00013d78       ??$__crt_fast_encode_pointer@P6AHXZ@@YAP6AHXZQ6AHXZ@Z 00414d78 f i libucrt:onexit.obj
 0001:00013d78       ??$__crt_fast_encode_pointer@P6AXH@Z@@YAP6AXH@ZQ6AXH@Z@Z 00414d78 f i libucrt:signal.obj
 0001:00013d78       ??$__crt_fast_encode_pointer@P6GHPA_WKJ@Z@@YAP6GHPA_WKJ@ZQ6GH0KJ@Z@Z 00414d78 f i libucrt:winapi_thunks.obj
 0001:00013d78       ??$__crt_fast_encode_pointer@P6GXPAXK0@Z@@YAP6GXPAXK0@ZQ6GX0K0@Z@Z 00414d78 f i libucrt:exit.obj
 0001:00013d78       ??$__crt_fast_encode_pointer@PAP6AXXZ@@YAPAP6AXXZQAP6AXXZ@Z 00414d78 f i libucrt:onexit.obj
 0001:00013d78       ??$__crt_fast_encode_pointer@PAX@@YAPAXQAX@Z 00414d78 f i libucrt:initialization.obj
 0001:00013fe2       ___acrt_initialize_thread_local_exit_callback 00414fe2 f   libucrt:exit.obj
 0001:00013ff1       __c_exit                   00414ff1 f   libucrt:exit.obj
 0001:00014000       __cexit                    00415000 f   libucrt:exit.obj
 0001:0001400f       __exit                     0041500f f   libucrt:exit.obj
 0001:00014025       __register_thread_local_exe_atexit_callback 00415025 f   libucrt:exit.obj
 0001:0001404b       _exit                      0041504b f   libucrt:exit.obj
 0001:000142b6       _setlocale                 004152b6 f   libucrt:setlocale.obj
 0001:000142ee       ___acrt_locale_get_ctype_array_value 004152ee f i libucrt:_ctype.obj
 0001:00014310       _isalnum                   00415310 f   libucrt:_ctype.obj
 0001:000143a0       _isalpha                   004153a0 f   libucrt:_ctype.obj
 0001:00014430       _isdigit                   00415430 f   libucrt:_ctype.obj
 0001:000144c0       _islower                   004154c0 f   libucrt:_ctype.obj
 0001:00014550       _isprint                   00415550 f   libucrt:_ctype.obj
 0001:000145e0       _isspace                   004155e0 f   libucrt:_ctype.obj
 0001:00014670       _isupper                   00415670 f   libucrt:_ctype.obj
 0001:000146f4       ??0_LocaleUpdate@@QAE@QAU__crt_locale_pointers@@@Z 004156f4 f i libucrt:tolower_toupper.obj
 0001:00014776       __tolower_l                00415776 f   libucrt:tolower_toupper.obj
 0001:00014874       __toupper_l                00415874 f   libucrt:tolower_toupper.obj
 0001:00014972       _tolower                   00415972 f   libucrt:tolower_toupper.obj
 0001:000149a2       _toupper                   004159a2 f   libucrt:tolower_toupper.obj
 0001:00014a89       _fopen                     00415a89 f   libucrt:fopen.obj
 0001:00014aa0       ___acrt_initialize_stdio   00415aa0 f   libucrt:_file.obj
 0001:00014b68       ___acrt_iob_func           00415b68 f   libucrt:_file.obj
 0001:00014b78       ___acrt_uninitialize_stdio 00415b78 f   libucrt:_file.obj
 0001:00014bc4       __lock_file                00415bc4 f   libucrt:_file.obj
 0001:00014bd8       __unlock_file              00415bd8 f   libucrt:_file.obj
 0001:00014bec       ??0__crt_cached_ptd_host@@QAE@QAU__crt_locale_pointers@@@Z 00415bec f i libucrt:fclose.obj
 0001:00014c34       ??1__crt_cached_ptd_host@@QAE@XZ 00415c34 f i libucrt:fclose.obj
 0001:00014d95       ?force_synchronize_per_thread_data@__crt_cached_ptd_host@@AAEPAU__acrt_ptd@@XZ 00415d95 f i libucrt:fclose.obj
 0001:00014ddb       ?get_raw_ptd@__crt_cached_ptd_host@@QAEPAU__acrt_ptd@@XZ 00415ddb f i libucrt:fclose.obj
 0001:00014df8       _fclose                    00415df8 f   libucrt:fclose.obj
 0001:00014e28       ??$__acrt_convert_wcs_mbs_cp@D_WV<lambda_62f6974d9771e494a5ea317cc32e971c>@@U__crt_win32_buffer_internal_dynamic_resizing@@@@YAHQBDAAV?$__crt_win32_buffer@_WU__crt_win32_buffer_internal_dynamic_resizing@@@@ABV<lambda_62f6974d9771e494a5ea317cc32e971c>@@I@Z 00415e28 f i libucrt:unlink.obj
 0001:00014eda       ??$__acrt_mbs_to_wcs_cp@U__crt_win32_buffer_internal_dynamic_resizing@@@@YAHQBDAAV?$__crt_win32_buffer@_WU__crt_win32_buffer_internal_dynamic_resizing@@@@I@Z 00415eda f i libucrt:unlink.obj
 0001:00014ef7       ?__acrt_get_utf8_acp_compatibility_codepage@@YAIXZ 00415ef7 f i libucrt:unlink.obj
 0001:00014f36       ?_deallocate@?$__crt_win32_buffer@DU__crt_win32_buffer_internal_dynamic_resizing@@@@AAEXXZ 00415f36 f i libucrt:argv_wildcards.obj
 0001:00014f36       ?_deallocate@?$__crt_win32_buffer@_WU__crt_win32_buffer_internal_dynamic_resizing@@@@AAEXXZ 00415f36 f i libucrt:unlink.obj
 0001:00014f50       ?allocate@?$__crt_win32_buffer@_WU__crt_win32_buffer_internal_dynamic_resizing@@@@QAEHI@Z 00415f50 f i libucrt:unlink.obj
 0001:00014f8f       ?allocate@__crt_win32_buffer_internal_dynamic_resizing@@SAHQAPAXIABV__crt_win32_buffer_empty_debug_info@@@Z 00415f8f f i libucrt:unlink.obj
 0001:00014fae       _remove                    00415fae f   libucrt:unlink.obj
 0001:00015020       _strcspn                   00416020 f   libucrt:strcspn.obj
 0001:00015242       _puts                      00416242 f   libucrt:puts.obj
 0001:00015441       ??$count@D@formatting_buffer@__crt_stdio_output@@QBEIXZ 00416441 f i libucrt:output.obj
 0001:00015459       ??$ensure_buffer_is_big_enough@D@formatting_buffer@__crt_stdio_output@@QAE_NIAAV__crt_cached_ptd_host@@@Z 00416459 f i libucrt:output.obj
 0001:000154da       ??$is_overflow_condition@K@__crt_strtox@@YA_NIK@Z 004164da f i libucrt:output.obj
 0001:0001550e       ??$is_wide_character_specifier@D@__crt_stdio_output@@YA_N_KDW4length_modifier@0@@Z 0041650e f i libucrt:output.obj
 0001:0001553f       ??$make_c_string_character_source@DPAPAD@__crt_strtox@@YA?AV?$c_string_character_source@D@0@QBDQAPAD@Z 0041653f f i libucrt:output.obj
 0001:0001553f       ??$make_c_string_character_source@_WPAPA_W@__crt_strtox@@YA?AV?$c_string_character_source@_W@0@QB_WQAPA_W@Z 0041653f f i libucrt:output.obj
 0001:0001555a       ??$parse_integer@KV?$c_string_character_source@D@__crt_strtox@@$0A@@__crt_strtox@@YAKAAV__crt_cached_ptd_host@@V?$c_string_character_source@D@0@H_N@Z 0041655a f i libucrt:output.obj
 0001:00015769       ??$scratch_data@D@formatting_buffer@__crt_stdio_output@@QAEPADXZ 00416769 f i libucrt:output.obj
 0001:00015787       ??$type_case_integer@$07@?$output_processor@DV?$stream_output_adapter@D@__crt_stdio_output@@V?$standard_base@DV?$stream_output_adapter@D@__crt_stdio_output@@@2@@__crt_stdio_output@@AAE_N_N@Z 00416787 f i libucrt:output.obj
 0001:00015787       ??$type_case_integer@$07@?$output_processor@DV?$string_output_adapter@D@__crt_stdio_output@@V?$standard_base@DV?$string_output_adapter@D@__crt_stdio_output@@@2@@__crt_stdio_output@@AAE_N_N@Z 00416787 f i libucrt:output.obj
 0001:00015914       ??$type_case_integer@$09@?$output_processor@DV?$stream_output_adapter@D@__crt_stdio_output@@V?$standard_base@DV?$stream_output_adapter@D@__crt_stdio_output@@@2@@__crt_stdio_output@@AAE_N_N@Z 00416914 f i libucrt:output.obj
 0001:00015914       ??$type_case_integer@$09@?$output_processor@DV?$string_output_adapter@D@__crt_stdio_output@@V?$standard_base@DV?$string_output_adapter@D@__crt_stdio_output@@@2@@__crt_stdio_output@@AAE_N_N@Z 00416914 f i libucrt:output.obj
 0001:00015aa1       ??$type_case_integer@$0BA@@?$output_processor@DV?$stream_output_adapter@D@__crt_stdio_output@@V?$standard_base@DV?$stream_output_adapter@D@__crt_stdio_output@@@2@@__crt_stdio_output@@AAE_N_N@Z 00416aa1 f i libucrt:output.obj
 0001:00015aa1       ??$type_case_integer@$0BA@@?$output_processor@DV?$string_output_adapter@D@__crt_stdio_output@@V?$standard_base@DV?$string_output_adapter@D@__crt_stdio_output@@@2@@__crt_stdio_output@@AAE_N_N@Z 00416aa1 f i libucrt:output.obj
 0001:00015c2e       ??$type_case_integer_parse_into_buffer@I$07@?$output_processor@DV?$stream_output_adapter@D@__crt_stdio_output@@V?$standard_base@DV?$stream_output_adapter@D@__crt_stdio_output@@@2@@__crt_stdio_output@@AAEXI_N@Z 00416c2e f i libucrt:output.obj
 0001:00015c2e       ??$type_case_integer_parse_into_buffer@I$07@?$output_processor@DV?$string_output_adapter@D@__crt_stdio_output@@V?$standard_base@DV?$string_output_adapter@D@__crt_stdio_output@@@2@@__crt_stdio_output@@AAEXI_N@Z 00416c2e f i libucrt:output.obj
 0001:00015c91       ??$type_case_integer_parse_into_buffer@I$09@?$output_processor@DV?$stream_output_adapter@D@__crt_stdio_output@@V?$standard_base@DV?$stream_output_adapter@D@__crt_stdio_output@@@2@@__crt_stdio_output@@AAEXI_N@Z 00416c91 f i libucrt:output.obj
 0001:00015c91       ??$type_case_integer_parse_into_buffer@I$09@?$output_processor@DV?$string_output_adapter@D@__crt_stdio_output@@V?$standard_base@DV?$string_output_adapter@D@__crt_stdio_output@@@2@@__crt_stdio_output@@AAEXI_N@Z 00416c91 f i libucrt:output.obj
 0001:00015d18       ??$type_case_integer_parse_into_buffer@I$0BA@@?$output_processor@DV?$stream_output_adapter@D@__crt_stdio_output@@V?$standard_base@DV?$stream_output_adapter@D@__crt_stdio_output@@@2@@__crt_stdio_output@@AAEXI_N@Z 00416d18 f i libucrt:output.obj
 0001:00015d18       ??$type_case_integer_parse_into_buffer@I$0BA@@?$output_processor@DV?$string_output_adapter@D@__crt_stdio_output@@V?$standard_base@DV?$string_output_adapter@D@__crt_stdio_output@@@2@@__crt_stdio_output@@AAEXI_N@Z 00416d18 f i libucrt:output.obj
 0001:00015d95       ??$type_case_integer_parse_into_buffer@_K$07@?$output_processor@DV?$stream_output_adapter@D@__crt_stdio_output@@V?$standard_base@DV?$stream_output_adapter@D@__crt_stdio_output@@@2@@__crt_stdio_output@@AAEX_K_N@Z 00416d95 f i libucrt:output.obj
 0001:00015d95       ??$type_case_integer_parse_into_buffer@_K$07@?$output_processor@DV?$string_output_adapter@D@__crt_stdio_output@@V?$standard_base@DV?$string_output_adapter@D@__crt_stdio_output@@@2@@__crt_stdio_output@@AAEX_K_N@Z 00416d95 f i libucrt:output.obj
 0001:00015e0d       ??$type_case_integer_parse_into_buffer@_K$09@?$output_processor@DV?$stream_output_adapter@D@__crt_stdio_output@@V?$standard_base@DV?$stream_output_adapter@D@__crt_stdio_output@@@2@@__crt_stdio_output@@AAEX_K_N@Z 00416e0d f i libucrt:output.obj
 0001:00015e0d       ??$type_case_integer_parse_into_buffer@_K$09@?$output_processor@DV?$string_output_adapter@D@__crt_stdio_output@@V?$standard_base@DV?$string_output_adapter@D@__crt_stdio_output@@@2@@__crt_stdio_output@@AAEX_K_N@Z 00416e0d f i libucrt:output.obj
 0001:00015eb4       ??$type_case_integer_parse_into_buffer@_K$0BA@@?$output_processor@DV?$stream_output_adapter@D@__crt_stdio_output@@V?$standard_base@DV?$stream_output_adapter@D@__crt_stdio_output@@@2@@__crt_stdio_output@@AAEX_K_N@Z 00416eb4 f i libucrt:output.obj
 0001:00015eb4       ??$type_case_integer_parse_into_buffer@_K$0BA@@?$output_processor@DV?$string_output_adapter@D@__crt_stdio_output@@V?$standard_base@DV?$string_output_adapter@D@__crt_stdio_output@@@2@@__crt_stdio_output@@AAEX_K_N@Z 00416eb4 f i libucrt:output.obj
 0001:00015f3e       ??0?$output_adapter_data@DV?$stream_output_adapter@D@__crt_stdio_output@@@__crt_stdio_output@@IAE@ABV?$stream_output_adapter@D@1@_KQBDAAV__crt_cached_ptd_host@@QAD@Z 00416f3e f i libucrt:output.obj
 0001:00015f3e       ??0?$output_adapter_data@DV?$string_output_adapter@D@__crt_stdio_output@@@__crt_stdio_output@@IAE@ABV?$string_output_adapter@D@1@_KQBDAAV__crt_cached_ptd_host@@QAD@Z 00416f3e f i libucrt:output.obj
 0001:00015fa5       ??1formatting_buffer@__crt_stdio_output@@QAE@XZ 00416fa5 f i libucrt:output.obj
 0001:00015fbf       ??4?$__crt_unique_heap_ptr@DU__crt_internal_free_policy@@@@QAEAAV0@$$QAV0@@Z 00416fbf f i libucrt:output.obj
 0001:0001607f       ?crop_zeroes@__crt_stdio_output@@YAXPADQAU__crt_locale_pointers@@@Z 0041707f f i libucrt:output.obj
 0001:000160df       ?find_next_state@?$output_processor@DV?$stream_output_adapter@D@__crt_stdio_output@@V?$standard_base@DV?$stream_output_adapter@D@__crt_stdio_output@@@2@@__crt_stdio_output@@ABE?AW4state@2@DW432@@Z 004170df f i libucrt:output.obj
 0001:000160df       ?find_next_state@?$output_processor@DV?$string_output_adapter@D@__crt_stdio_output@@V?$standard_base@DV?$string_output_adapter@D@__crt_stdio_output@@@2@@__crt_stdio_output@@ABE?AW4state@2@DW432@@Z 004170df f i libucrt:output.obj
 0001:0001611a       ?force_decimal_point@__crt_stdio_output@@YAXPADQAU__crt_locale_pointers@@@Z 0041711a f i libucrt:output.obj
 0001:00016176       ?parse_int_from_format_string@?$output_processor@DV?$stream_output_adapter@D@__crt_stdio_output@@V?$standard_base@DV?$stream_output_adapter@D@__crt_stdio_output@@@2@@__crt_stdio_output@@AAE_NQAH@Z 00417176 f i libucrt:output.obj
 0001:00016176       ?parse_int_from_format_string@?$output_processor@DV?$string_output_adapter@D@__crt_stdio_output@@V?$standard_base@DV?$string_output_adapter@D@__crt_stdio_output@@@2@@__crt_stdio_output@@AAE_NQAH@Z 00417176 f i libucrt:output.obj
 0001:000161ee       ?process@?$output_processor@DV?$stream_output_adapter@D@__crt_stdio_output@@V?$standard_base@DV?$stream_output_adapter@D@__crt_stdio_output@@@2@@__crt_stdio_output@@QAEHXZ 004171ee f i libucrt:output.obj
 0001:0001649e       ?process@?$output_processor@DV?$string_output_adapter@D@__crt_stdio_output@@V?$standard_base@DV?$string_output_adapter@D@__crt_stdio_output@@@2@@__crt_stdio_output@@QAEHXZ 0041749e f i libucrt:output.obj
 0001:00016772       ?state_case_size@?$output_processor@DV?$stream_output_adapter@D@__crt_stdio_output@@V?$standard_base@DV?$stream_output_adapter@D@__crt_stdio_output@@@2@@__crt_stdio_output@@AAE_NXZ 00417772 f i libucrt:output.obj
 0001:000168cb       ?state_case_size@?$output_processor@DV?$string_output_adapter@D@__crt_stdio_output@@V?$standard_base@DV?$string_output_adapter@D@__crt_stdio_output@@@2@@__crt_stdio_output@@AAE_NXZ 004178cb f i libucrt:output.obj
 0001:00016a24       ?state_case_type@?$output_processor@DV?$stream_output_adapter@D@__crt_stdio_output@@V?$standard_base@DV?$stream_output_adapter@D@__crt_stdio_output@@@2@@__crt_stdio_output@@AAE_NXZ 00417a24 f i libucrt:output.obj
 0001:00016d66       ?state_case_type@?$output_processor@DV?$string_output_adapter@D@__crt_stdio_output@@V?$standard_base@DV?$string_output_adapter@D@__crt_stdio_output@@@2@@__crt_stdio_output@@AAE_NXZ 00417d66 f i libucrt:output.obj
 0001:000170c5       ?to_integer_size@__crt_stdio_output@@YAIW4length_modifier@1@@Z 004180c5 f i libucrt:output.obj
 0001:00017119       ?type_case_Z@?$output_processor@DV?$stream_output_adapter@D@__crt_stdio_output@@V?$standard_base@DV?$stream_output_adapter@D@__crt_stdio_output@@@2@@__crt_stdio_output@@AAE_NXZ 00418119 f i libucrt:output.obj
 0001:00017119       ?type_case_Z@?$output_processor@DV?$string_output_adapter@D@__crt_stdio_output@@V?$standard_base@DV?$string_output_adapter@D@__crt_stdio_output@@@2@@__crt_stdio_output@@AAE_NXZ 00418119 f i libucrt:output.obj
 0001:0001717c       ?type_case_a@?$output_processor@DV?$stream_output_adapter@D@__crt_stdio_output@@V?$standard_base@DV?$stream_output_adapter@D@__crt_stdio_output@@@2@@__crt_stdio_output@@AAE_NXZ 0041817c f i libucrt:output.obj
 0001:0001717c       ?type_case_a@?$output_processor@DV?$string_output_adapter@D@__crt_stdio_output@@V?$standard_base@DV?$string_output_adapter@D@__crt_stdio_output@@@2@@__crt_stdio_output@@AAE_NXZ 0041817c f i libucrt:output.obj
 0001:0001730d       ?type_case_c_tchar@?$output_processor@DV?$stream_output_adapter@D@__crt_stdio_output@@V?$standard_base@DV?$stream_output_adapter@D@__crt_stdio_output@@@2@@__crt_stdio_output@@AAE_ND@Z 0041830d f i libucrt:output.obj
 0001:0001730d       ?type_case_c_tchar@?$output_processor@DV?$string_output_adapter@D@__crt_stdio_output@@V?$standard_base@DV?$string_output_adapter@D@__crt_stdio_output@@@2@@__crt_stdio_output@@AAE_ND@Z 0041830d f i libucrt:output.obj
 0001:000173a2       ?type_case_n@?$output_processor@DV?$stream_output_adapter@D@__crt_stdio_output@@V?$standard_base@DV?$stream_output_adapter@D@__crt_stdio_output@@@2@@__crt_stdio_output@@AAE_NXZ 004183a2 f i libucrt:output.obj
 0001:000173a2       ?type_case_n@?$output_processor@DV?$string_output_adapter@D@__crt_stdio_output@@V?$standard_base@DV?$string_output_adapter@D@__crt_stdio_output@@@2@@__crt_stdio_output@@AAE_NXZ 004183a2 f i libucrt:output.obj
 0001:00017427       ?type_case_o@?$output_processor@DV?$stream_output_adapter@D@__crt_stdio_output@@V?$standard_base@DV?$stream_output_adapter@D@__crt_stdio_output@@@2@@__crt_stdio_output@@AAE_NXZ 00418427 f i libucrt:output.obj
 0001:00017427       ?type_case_o@?$output_processor@DV?$string_output_adapter@D@__crt_stdio_output@@V?$standard_base@DV?$string_output_adapter@D@__crt_stdio_output@@@2@@__crt_stdio_output@@AAE_NXZ 00418427 f i libucrt:output.obj
 0001:00017444       ?type_case_p@?$output_processor@DV?$stream_output_adapter@D@__crt_stdio_output@@V?$standard_base@DV?$stream_output_adapter@D@__crt_stdio_output@@@2@@__crt_stdio_output@@AAE_NXZ 00418444 f i libucrt:output.obj
 0001:00017444       ?type_case_p@?$output_processor@DV?$string_output_adapter@D@__crt_stdio_output@@V?$standard_base@DV?$string_output_adapter@D@__crt_stdio_output@@@2@@__crt_stdio_output@@AAE_NXZ 00418444 f i libucrt:output.obj
 0001:0001745a       ?type_case_s@?$output_processor@DV?$stream_output_adapter@D@__crt_stdio_output@@V?$standard_base@DV?$stream_output_adapter@D@__crt_stdio_output@@@2@@__crt_stdio_output@@AAE_NXZ 0041845a f i libucrt:output.obj
 0001:0001745a       ?type_case_s@?$output_processor@DV?$string_output_adapter@D@__crt_stdio_output@@V?$standard_base@DV?$string_output_adapter@D@__crt_stdio_output@@@2@@__crt_stdio_output@@AAE_NXZ 0041845a f i libucrt:output.obj
 0001:000174cc       ?unget@?$c_string_character_source@D@__crt_strtox@@QAEXD@Z 004184cc f i libucrt:output.obj
 0001:000174f5       ?unget@?$c_string_character_source@_W@__crt_strtox@@QAEX_W@Z 004184f5 f i libucrt:output.obj
 0001:00017530       ?update_locale_slow@__crt_cached_ptd_host@@AAEXXZ 00418530 f i libucrt:output.obj
 0001:0001758b       ?validate@?$c_string_character_source@D@__crt_strtox@@QBE_NXZ 0041858b f i libucrt:output.obj
 0001:0001758b       ?validate@?$c_string_character_source@_W@__crt_strtox@@QBE_NXZ 0041858b f i libucrt:output.obj
 0001:000175a6       ?validate@?$stream_output_adapter@D@__crt_stdio_output@@QBE_NAAV__crt_cached_ptd_host@@@Z 004185a6 f i libucrt:output.obj
 0001:000175de       ?validate@?$string_output_adapter@D@__crt_stdio_output@@QBE_NAAV__crt_cached_ptd_host@@@Z 004185de f i libucrt:output.obj
 0001:0001760f       ?validate_stream_is_ansi_if_required@?$__acrt_stdio_char_traits@D@@SA_NQAU_iobuf@@@Z 0041860f f i libucrt:output.obj
 0001:00017696       ?write_character@?$output_adapter_common@DV?$stream_output_adapter@D@__crt_stdio_output@@@__crt_stdio_output@@QBEXDQAHAAV__crt_cached_ptd_host@@@Z 00418696 f i libucrt:output.obj
 0001:000176b8       ?write_character_without_count_update@?$stream_output_adapter@D@__crt_stdio_output@@QBE_NDAAV__crt_cached_ptd_host@@@Z 004186b8 f i libucrt:output.obj
 0001:000176f2       ?write_string@?$stream_output_adapter@D@__crt_stdio_output@@QBEXQBDHQAHAAV__crt_cached_ptd_host@@@Z 004186f2 f i libucrt:output.obj
 0001:0001771e       ?write_string@?$string_output_adapter@D@__crt_stdio_output@@QBEXQBDHQAHAAV__crt_cached_ptd_host@@@Z 0041871e f i libucrt:output.obj
 0001:00017785       ?write_string_impl@?$output_adapter_common@DV?$stream_output_adapter@D@__crt_stdio_output@@@__crt_stdio_output@@IBEXQBDHQAHAAV__crt_cached_ptd_host@@@Z 00418785 f i libucrt:output.obj
 0001:00017804       ___stdio_common_vfprintf   00418804 f   libucrt:output.obj
 0001:000178a8       ___stdio_common_vsprintf   004188a8 f   libucrt:output.obj
 0001:000178f0       _qsort                     004188f0 f   libucrt:qsort.obj
 0001:00017de0       _strncpy                   00418de0 f   libucrt:strncpy.obj
 0001:00017f10       _strncmp                   00418f10 f   libucrt:strncmp.obj
 0001:0001802f       __fwrite_internal          0041902f f   libucrt:fwrite.obj
 0001:000180a6       __fwrite_nolock_internal   004190a6 f   libucrt:fwrite.obj
 0001:0001824d       _fwrite                    0041924d f   libucrt:fwrite.obj
 0001:00018287       _bsearch                   00419287 f   libucrt:bsearch.obj
 0001:0001834a       ??$is_overflow_condition@_K@__crt_strtox@@YA_NI_K@Z 0041934a f i libucrt:strtox.obj
 0001:0001838b       ??$parse_integer@KV?$c_string_character_source@D@__crt_strtox@@$00@__crt_strtox@@YAKAAV__crt_cached_ptd_host@@V?$c_string_character_source@D@0@H_N@Z 0041938b f i libucrt:strtox.obj
 0001:000185d2       ??$parse_integer@KV?$c_string_character_source@_W@__crt_strtox@@$00@__crt_strtox@@YAKAAV__crt_cached_ptd_host@@V?$c_string_character_source@_W@0@H_N@Z 004195d2 f i libucrt:strtox.obj
 0001:00018be0       ??$parse_integer@_KV?$c_string_character_source@D@__crt_strtox@@$00@__crt_strtox@@YA_KAAV__crt_cached_ptd_host@@V?$c_string_character_source@D@0@H_N@Z 00419be0 f i libucrt:strtox.obj
 0001:00018ea8       __ischartype_l             00419ea8 f i libucrt:strtox.obj
 0001:00018eff       _strtol                    00419eff f   libucrt:strtox.obj
 0001:00018f45       _strtoul                   00419f45 f   libucrt:strtox.obj
 0001:00018f8b       _strtoull                  00419f8b f   libucrt:strtox.obj
 0001:00018fd7       _wcstol                    00419fd7 f   libucrt:strtox.obj
 0001:0001901d       ___ascii_stricmp           0041a01d f   libucrt:stricmp.obj
 0001:00019056       __stricmp                  0041a056 f   libucrt:stricmp.obj
 0001:0001909f       __stricmp_l                0041a09f f   libucrt:stricmp.obj
 0001:0001912f       __time64                   0041a12f f   libucrt:time.obj
 0001:00019197       __wtol                     0041a197 f   libucrt:atox.obj
 0001:000191d6       _atoi                      0041a1d6 f   libucrt:atox.obj
 0001:00019215       _frexp                     0041a215 f   libucrt:frexp.obj
 0001:00019310       _strspn                    0041a310 f   libucrt:strspn.obj
 0001:00019356       ??$assemble_floating_point_snan@N@__crt_strtox@@YAX_NAAN@Z 0041a356 f i libucrt:input.obj
 0001:00019377       ??$assemble_floating_point_value_t@M@__crt_strtox@@YA?AW4SLD_STATUS@@_NH_KAAM@Z 0041a377 f i libucrt:input.obj
 0001:000193a7       ??$assemble_floating_point_value_t@N@__crt_strtox@@YA?AW4SLD_STATUS@@_NH_KAAN@Z 0041a3a7 f i libucrt:input.obj
 0001:0001949d       ??$convert_decimal_string_to_floating_type@M@__crt_strtox@@YA?AW4SLD_STATUS@@ABUfloating_point_string@0@AAM@Z 0041a49d f i libucrt:input.obj
 0001:000194be       ??$convert_decimal_string_to_floating_type@N@__crt_strtox@@YA?AW4SLD_STATUS@@ABUfloating_point_string@0@AAN@Z 0041a4be f i libucrt:input.obj
 0001:000194df       ??$convert_hexadecimal_string_to_floating_type@M@__crt_strtox@@YA?AW4SLD_STATUS@@ABUfloating_point_string@0@AAM@Z 0041a4df f i libucrt:input.obj
 0001:00019500       ??$convert_hexadecimal_string_to_floating_type@N@__crt_strtox@@YA?AW4SLD_STATUS@@ABUfloating_point_string@0@AAN@Z 0041a500 f i libucrt:input.obj
 0001:00019521       ??$make_input_adapter_character_source@V?$string_input_adapter@D@__crt_stdio_input@@@__crt_strtox@@YA?AV?$input_adapter_character_source@V?$string_input_adapter@D@__crt_stdio_input@@@0@QAV?$string_input_adapter@D@__crt_stdio_input@@_KQA_N@Z 0041a521 f i libucrt:input.obj
 0001:0001953f       ??$parse_floating_point@V?$input_adapter_character_source@V?$string_input_adapter@D@__crt_stdio_input@@@__crt_strtox@@M@__crt_strtox@@YA?AW4SLD_STATUS@@QAU__crt_locale_pointers@@V?$input_adapter_character_source@V?$string_input_adapter@D@__crt_stdio_input@@@0@QAM@Z 0041a53f f i libucrt:input.obj
 0001:000195c9       ??$parse_floating_point@V?$input_adapter_character_source@V?$string_input_adapter@D@__crt_stdio_input@@@__crt_strtox@@N@__crt_strtox@@YA?AW4SLD_STATUS@@QAU__crt_locale_pointers@@V?$input_adapter_character_source@V?$string_input_adapter@D@__crt_stdio_input@@@0@QAN@Z 0041a5c9 f i libucrt:input.obj
 0001:00019653       ??$parse_floating_point_from_source@V?$input_adapter_character_source@V?$string_input_adapter@D@__crt_stdio_input@@@__crt_strtox@@@__crt_strtox@@YA?AW4floating_point_parse_result@0@QAU__crt_locale_pointers@@AAV?$input_adapter_character_source@V?$string_input_adapter@D@__crt_stdio_input@@@0@AAUfloating_point_string@0@@Z 0041a653 f i libucrt:input.obj
 0001:00019ab5       ??$parse_floating_point_possible_infinity@DV?$input_adapter_character_source@V?$string_input_adapter@D@__crt_stdio_input@@@__crt_strtox@@_K@__crt_strtox@@YA?AW4floating_point_parse_result@0@AADAAV?$input_adapter_character_source@V?$string_input_adapter@D@__crt_stdio_input@@@0@_K@Z 0041aab5 f i libucrt:input.obj
 0001:00019b74       ??$parse_floating_point_possible_nan@DV?$input_adapter_character_source@V?$string_input_adapter@D@__crt_stdio_input@@@__crt_strtox@@_K@__crt_strtox@@YA?AW4floating_point_parse_result@0@AADAAV?$input_adapter_character_source@V?$string_input_adapter@D@__crt_stdio_input@@@0@_K@Z 0041ab74 f i libucrt:input.obj
 0001:00019c7c       ??$parse_floating_point_possible_nan_is_ind@DV?$input_adapter_character_source@V?$string_input_adapter@D@__crt_stdio_input@@@__crt_strtox@@@__crt_strtox@@YA_NAADAAV?$input_adapter_character_source@V?$string_input_adapter@D@__crt_stdio_input@@@0@@Z 0041ac7c f i libucrt:input.obj
 0001:00019cb6       ??$parse_floating_point_possible_nan_is_snan@DV?$input_adapter_character_source@V?$string_input_adapter@D@__crt_stdio_input@@@__crt_strtox@@@__crt_strtox@@YA_NAADAAV?$input_adapter_character_source@V?$string_input_adapter@D@__crt_stdio_input@@@0@@Z 0041acb6 f i libucrt:input.obj
 0001:00019cf0       ??$parse_floating_point_write_result@M@__crt_strtox@@YA?AW4SLD_STATUS@@W4floating_point_parse_result@0@ABUfloating_point_string@0@QAM@Z 0041acf0 f i libucrt:input.obj
 0001:00019e5c       ??$parse_floating_point_write_result@N@__crt_strtox@@YA?AW4SLD_STATUS@@W4floating_point_parse_result@0@ABUfloating_point_string@0@QAN@Z 0041ae5c f i libucrt:input.obj
 0001:00019f80       ??$parse_integer@_KV?$input_adapter_character_source@V?$string_input_adapter@D@__crt_stdio_input@@@__crt_strtox@@$00@__crt_strtox@@YA_KAAV__crt_cached_ptd_host@@V?$input_adapter_character_source@V?$string_input_adapter@D@__crt_stdio_input@@@0@H_N@Z 0041af80 f i libucrt:input.obj
 0001:0001a284       ??$parse_integer@_KV?$input_adapter_character_source@V?$string_input_adapter@D@__crt_stdio_input@@@__crt_strtox@@@__crt_strtox@@YA_KQAU__crt_locale_pointers@@V?$input_adapter_character_source@V?$string_input_adapter@D@__crt_stdio_input@@@0@H_N@Z 0041b284 f i libucrt:input.obj
 0001:0001a2e0       ??$process_floating_point_specifier_t@M@?$input_processor@DV?$string_input_adapter@D@__crt_stdio_input@@@__crt_stdio_input@@AAE_NXZ 0041b2e0 f i libucrt:input.obj
 0001:0001a349       ??$process_floating_point_specifier_t@N@?$input_processor@DV?$string_input_adapter@D@__crt_stdio_input@@@__crt_stdio_input@@AAE_NXZ 0041b349 f i libucrt:input.obj
 0001:0001a3b2       ??$process_string_specifier_tchar@D@?$input_processor@DV?$string_input_adapter@D@__crt_stdio_input@@@__crt_stdio_input@@AAE_NW4conversion_mode@1@D@Z 0041b3b2 f i libucrt:input.obj
 0001:0001a514       ??$process_string_specifier_tchar@_W@?$input_processor@DV?$string_input_adapter@D@__crt_stdio_input@@@__crt_stdio_input@@AAE_NW4conversion_mode@1@_W@Z 0041b514 f i libucrt:input.obj
 0001:0001a682       ??$skip_whitespace@Vstring_input_adapter@__crt_stdio_input@@D@__crt_stdio_input@@YAHAAV?$string_input_adapter@D@0@QAU__crt_locale_pointers@@@Z 0041b682 f i libucrt:input.obj
 0001:0001a6b1       ??$write_floating_point@M@?$input_processor@DV?$string_input_adapter@D@__crt_stdio_input@@@__crt_stdio_input@@AAE_NABM@Z 0041b6b1 f i libucrt:input.obj
 0001:0001a6e6       ??$write_floating_point@N@?$input_processor@DV?$string_input_adapter@D@__crt_stdio_input@@@__crt_stdio_input@@AAE_NABN@Z 0041b6e6 f i libucrt:input.obj
 0001:0001a721       ??0?$format_string_parser@D@__crt_stdio_input@@QAE@_KQBE@Z 0041b721 f i libucrt:input.obj
 0001:0001a76b       ??0?$input_adapter_character_source@V?$string_input_adapter@D@__crt_stdio_input@@@__crt_strtox@@QAE@$$QAV01@@Z 0041b76b f i libucrt:input.obj
 0001:0001a7a8       ??0?$input_adapter_character_source@V?$string_input_adapter@D@__crt_stdio_input@@@__crt_strtox@@QAE@QAV?$string_input_adapter@D@__crt_stdio_input@@_KQA_N@Z 0041b7a8 f i libucrt:input.obj
 0001:0001a7d9       ??0?$input_processor@DV?$string_input_adapter@D@__crt_stdio_input@@@__crt_stdio_input@@QAE@ABV?$string_input_adapter@D@1@_KQBDQAU__crt_locale_pointers@@QAD@Z 0041b7d9 f i libucrt:input.obj
 0001:0001a81d       ??R<lambda_644f8ab42ed3fd1d660977a2364b3a7d>@@QBE@XZ 0041b81d f i libucrt:input.obj
 0001:0001a81d       ??R<lambda_f1fa4c266c18b246f3ed9c36247dab4f>@@QBE@XZ 0041b81d f i libucrt:input.obj
 0001:0001a81d       ??R<lambda_f765c90ab33e8386abf09c0f079d37e9>@@QBE@XZ 0041b81d f i libucrt:input.obj
 0001:0001a847       ?advance@?$format_string_parser@D@__crt_stdio_input@@QAE_NXZ 0041b847 f i libucrt:input.obj
 0001:0001a95f       ?as_double@floating_point_value@__crt_strtox@@QBEAANXZ 0041b95f f i libucrt:input.obj
 0001:0001a984       ?as_float@floating_point_value@__crt_strtox@@QBEAAMXZ 0041b984 f i libucrt:input.obj
 0001:0001a9a9       ?assemble_floating_point_infinity@__crt_strtox@@YAX_NABVfloating_point_value@1@@Z 0041b9a9 f i libucrt:input.obj
 0001:0001a9e9       ?assemble_floating_point_value@__crt_strtox@@YA?AW4SLD_STATUS@@_KH_N1ABVfloating_point_value@1@@Z 0041b9e9 f i libucrt:input.obj
 0001:0001ad42       ?assemble_floating_point_value_from_big_integer@__crt_strtox@@YA?AW4SLD_STATUS@@ABUbig_integer@1@I_N1ABVfloating_point_value@1@@Z 0041bd42 f i libucrt:input.obj
 0001:0001aed4       ?assemble_floating_point_zero@__crt_strtox@@YAX_NABVfloating_point_value@1@@Z 0041bed4 f i libucrt:input.obj
 0001:0001af09       ?convert_decimal_string_to_floating_type_common@__crt_strtox@@YA?AW4SLD_STATUS@@ABUfloating_point_string@1@ABVfloating_point_value@1@@Z 0041bf09 f i libucrt:input.obj
 0001:0001ccaf       ?convert_hexadecimal_string_to_floating_type_common@__crt_strtox@@YA?AW4SLD_STATUS@@ABUfloating_point_string@1@ABVfloating_point_value@1@@Z 0041dcaf f i libucrt:input.obj
 0001:0001cd55       ?denormal_mantissa_mask@floating_point_value@__crt_strtox@@QBE_KXZ 0041dd55 f i libucrt:input.obj
 0001:0001cd70       ?divide@__crt_strtox@@YA_KAAUbig_integer@1@ABU21@@Z 0041dd70 f i libucrt:input.obj
 0001:0001d21b       ?get@?$input_adapter_character_source@V?$string_input_adapter@D@__crt_stdio_input@@@__crt_strtox@@QAEDXZ 0041e21b f i libucrt:input.obj
 0001:0001d252       ?get@?$string_input_adapter@D@__crt_stdio_input@@QAEHXZ 0041e252 f i libucrt:input.obj
 0001:0001d268       ?is_character_allowed_in_string@?$input_processor@DV?$string_input_adapter@D@__crt_stdio_input@@@__crt_stdio_input@@ABE_NW4conversion_mode@2@H@Z 0041e268 f i libucrt:input.obj
 0001:0001d2b8       ?length@?$format_string_parser@D@__crt_stdio_input@@QBEIXZ 0041e2b8 f i libucrt:input.obj
 0001:0001d306       ?normal_mantissa_mask@floating_point_value@__crt_strtox@@QBE_KXZ 0041e306 f i libucrt:input.obj
 0001:0001d31d       ?process@?$input_processor@DV?$string_input_adapter@D@__crt_stdio_input@@@__crt_stdio_input@@QAEHXZ 0041e31d f i libucrt:input.obj
 0001:0001d3a1       ?process_character_count_specifier@?$input_processor@DV?$string_input_adapter@D@__crt_stdio_input@@@__crt_stdio_input@@AAE_NXZ 0041e3a1 f i libucrt:input.obj
 0001:0001d3b9       ?process_conversion_specifier@?$input_processor@DV?$string_input_adapter@D@__crt_stdio_input@@@__crt_stdio_input@@AAE_NXZ 0041e3b9 f i libucrt:input.obj
 0001:0001d42d       ?process_floating_point_specifier@?$input_processor@DV?$string_input_adapter@D@__crt_stdio_input@@@__crt_stdio_input@@AAE_NXZ 0041e42d f i libucrt:input.obj
 0001:0001d45d       ?process_integer_specifier@?$input_processor@DV?$string_input_adapter@D@__crt_stdio_input@@@__crt_stdio_input@@AAE_NI_N@Z 0041e45d f i libucrt:input.obj
 0001:0001d4c2       ?process_literal_character@?$input_processor@DV?$string_input_adapter@D@__crt_stdio_input@@@__crt_stdio_input@@AAE_NXZ 0041e4c2 f i libucrt:input.obj
 0001:0001d4f8       ?process_literal_character_tchar@?$input_processor@DV?$string_input_adapter@D@__crt_stdio_input@@@__crt_stdio_input@@AAE_ND@Z 0041e4f8 f i libucrt:input.obj
 0001:0001d546       ?process_state@?$input_processor@DV?$string_input_adapter@D@__crt_stdio_input@@@__crt_stdio_input@@AAE_NXZ 0041e546 f i libucrt:input.obj
 0001:0001d588       ?process_string_specifier@?$input_processor@DV?$string_input_adapter@D@__crt_stdio_input@@@__crt_stdio_input@@AAE_NW4conversion_mode@2@@Z 0041e588 f i libucrt:input.obj
 0001:0001d5d0       ?process_whitespace@?$input_processor@DV?$string_input_adapter@D@__crt_stdio_input@@@__crt_stdio_input@@AAE_NXZ 0041e5d0 f i libucrt:input.obj
 0001:0001d5ed       ?restore_state@?$input_adapter_character_source@V?$string_input_adapter@D@__crt_stdio_input@@@__crt_strtox@@QAE_N_K@Z 0041e5ed f i libucrt:input.obj
 0001:0001d612       ?scan_conversion_specifier@?$format_string_parser@D@__crt_stdio_input@@AAE_NXZ 0041e612 f i libucrt:input.obj
 0001:0001d78e       ?scan_optional_field_width@?$format_string_parser@D@__crt_stdio_input@@AAE_NXZ 0041e78e f i libucrt:input.obj
 0001:0001d822       ?scan_optional_length_modifier@?$format_string_parser@D@__crt_stdio_input@@AAEXXZ 0041e822 f i libucrt:input.obj
 0001:0001d942       ?scan_optional_literal_character_trail_bytes_tchar@?$format_string_parser@D@__crt_stdio_input@@AAE_ND@Z 0041e942 f i libucrt:input.obj
 0001:0001d994       ?scan_optional_wide_modifier@?$format_string_parser@D@__crt_stdio_input@@AAEXXZ 0041e994 f i libucrt:input.obj
 0001:0001d9b2       ?scan_scanset_range@?$format_string_parser@D@__crt_stdio_input@@AAE_NXZ 0041e9b2 f i libucrt:input.obj
 0001:0001daeb       ?set@?$scanset_buffer@E@__crt_stdio_input@@QAEXE@Z 0041eaeb f i libucrt:input.obj
 0001:0001db16       ?set_wide_for_c_s_or_scanset@?$format_string_parser@D@__crt_stdio_input@@AAEXXZ 0041eb16 f i libucrt:input.obj
 0001:0001db37       ?to_floating_point_length@__crt_stdio_input@@YAIW4length_modifier@1@@Z 0041eb37 f i libucrt:input.obj
 0001:0001db5a       ?to_integer_length@__crt_stdio_input@@YAIW4length_modifier@1@@Z 0041eb5a f i libucrt:input.obj
 0001:0001dbad       ?unget@?$input_adapter_character_source@V?$string_input_adapter@D@__crt_stdio_input@@@__crt_strtox@@QAEXD@Z 0041ebad f i libucrt:input.obj
 0001:0001dbf4       ?unget@?$string_input_adapter@D@__crt_stdio_input@@QAEXH@Z 0041ebf4 f i libucrt:input.obj
 0001:0001dc13       ?validate@?$format_string_parser@D@__crt_stdio_input@@QBE_NXZ 0041ec13 f i libucrt:input.obj
 0001:0001dc2f       ?validate@?$input_adapter_character_source@V?$string_input_adapter@D@__crt_stdio_input@@@__crt_strtox@@QBE_NXZ 0041ec2f f i libucrt:input.obj
 0001:0001dc50       ?validate@?$string_input_adapter@D@__crt_stdio_input@@QAE_NXZ 0041ec50 f i libucrt:input.obj
 0001:0001dc72       ?write_character@?$input_processor@DV?$string_input_adapter@D@__crt_stdio_input@@@__crt_stdio_input@@AAE_NQA_WIAAPA_WAAID@Z 0041ec72 f i libucrt:input.obj
 0001:0001dcdf       ?write_integer@?$input_processor@DV?$string_input_adapter@D@__crt_stdio_input@@@__crt_stdio_input@@AAE_N_K@Z 0041ecdf f i libucrt:input.obj
 0001:0001dd4e       ___stdio_common_vsscanf    0041ed4e f   libucrt:input.obj
 0001:0001dfa5       ___acrt_get_sigabrt_handler 0041efa5 f   libucrt:signal.obj
 0001:0001dfcc       ___acrt_initialize_signal_handlers 0041efcc f   libucrt:signal.obj
 0001:0001dfea       _raise                     0041efea f   libucrt:signal.obj
 0001:0001e1dc       _signal                    0041f1dc f   libucrt:signal.obj
 0001:0001e9ba       __ftelli64_nolock_internal 0041f9ba f   libucrt:ftell.obj
 0001:0001e9c5       _ftell                     0041f9c5 f   libucrt:ftell.obj
 0001:0001eb29       __fputc_nolock_internal    0041fb29 f   libucrt:fputc.obj
 0001:0001eb56       _fputc                     0041fb56 f   libucrt:fputc.obj
 0001:0001eb90       _strpbrk                   0041fb90 f   libucrt:strpbrk.obj
 0001:0001ee09       ___acrt_stdio_flush_nolock 0041fe09 f   libucrt:fflush.obj
 0001:0001ee72       __fflush_nolock            0041fe72 f   libucrt:fflush.obj
 0001:0001eed7       __flushall                 0041fed7 f   libucrt:fflush.obj
 0001:0001eee0       _fflush                    0041fee0 f   libucrt:fflush.obj
 0001:0001ef33       ?LongLongSub@@YAJ_J0PA_J@Z 0041ff33 f i libucrt:fseek.obj
 0001:0001f21c       _fseek                     0042021c f   libucrt:fseek.obj
 0001:0001f256       __fgetc_nolock             00420256 f   libucrt:fgetc.obj
 0001:0001f292       __getc_nolock              00420292 f   libucrt:fgetc.obj
 0001:0001f29d       _fgetc                     0042029d f   libucrt:fgetc.obj
 0001:0001f488       _fgets                     00420488 f   libucrt:fgets.obj
 0001:0001f493       _rename                    00420493 f   libucrt:rename.obj
 0001:0001f700       _fputs                     00420700 f   libucrt:fputs.obj
 0001:0001f734       _feof                      00420734 f   libucrt:feoferr.obj
 0001:0001f760       __fread_nolock_s           00420760 f   libucrt:fread.obj
 0001:0001f939       _fread                     00420939 f   libucrt:fread.obj
 0001:0001f956       _fread_s                   00420956 f   libucrt:fread.obj
 0001:0001fb4f       __beginthreadex            00420b4f f   libucrt:thread.obj
 0001:0001fbd2       __endthreadex              00420bd2 f   libucrt:thread.obj
 0001:0001fbe0       ??$__acrt_convert_wcs_mbs_cp@_WDV<lambda_0fec1a7b3f42a53036604e18c2d5e07e>@@U__crt_win32_buffer_no_resizing@@@@YAHQB_WAAV?$__crt_win32_buffer@DU__crt_win32_buffer_no_resizing@@@@ABV<lambda_0fec1a7b3f42a53036604e18c2d5e07e>@@I@Z 00420be0 f i libucrt:strftime.obj
 0001:0001fca2       ??$__acrt_wcs_to_mbs_cp@U__crt_win32_buffer_no_resizing@@@@YAHQB_WAAV?$__crt_win32_buffer@DU__crt_win32_buffer_no_resizing@@@@I@Z 00420ca2 f i libucrt:strftime.obj
 0001:0001fcbf       ??R<lambda_0fec1a7b3f42a53036604e18c2d5e07e>@@QBE@IQB_WQADI@Z 00420cbf f i libucrt:strftime.obj
 0001:0001fcbf       ??R<lambda_28bda7af82a03b66c1cb3803a755f95d>@@QBE@IQB_WQADI@Z 00420cbf f i libucrt:argv_wildcards.obj
 0001:0001fcbf       ??R<lambda_fecc33a432ccb74a901dff60d61ca385>@@QBE@IQB_WQADI@Z 00420cbf f i libucrt:getcwd.obj
 0001:0001fce3       ?allocate@?$__crt_win32_buffer@DU__crt_win32_buffer_no_resizing@@@@QAEHI@Z 00420ce3 f i libucrt:strftime.obj
 0001:0001fd0a       ?set_to_nullptr@?$__crt_win32_buffer@DU__crt_win32_buffer_no_resizing@@@@QAEXXZ 00420d0a f i libucrt:strftime.obj
 0001:0001fd1e       __Strftime_l               00420d1e f   libucrt:strftime.obj
 0001:0001fe19       _strftime                  00420e19 f   libucrt:strftime.obj
 0001:0001fe38       ??$__crt_time_elapsed_leap_years@H@@YAHH@Z 00420e38 f i libucrt:gmtime.obj
 0001:0001fe72       ??$__crt_time_is_leap_year@H@@YA_NH@Z 00420e72 f i libucrt:gmtime.obj
 0001:000200b8       ___getgmtimebuf            004210b8 f   libucrt:gmtime.obj
 0001:000200f6       __gmtime64                 004210f6 f   libucrt:gmtime.obj
 0001:0002011d       __gmtime64_s               0042111d f   libucrt:gmtime.obj
 0001:000203b9       __localtime64              004213b9 f   libucrt:localtime.obj
 0001:000204fb       _system                    004214fb f   libucrt:system.obj
 0001:00020506       ??$__acrt_convert_wcs_mbs_cp@_WDV<lambda_fecc33a432ccb74a901dff60d61ca385>@@U__crt_win32_buffer_public_dynamic_resizing@@@@YAHQB_WAAV?$__crt_win32_buffer@DU__crt_win32_buffer_public_dynamic_resizing@@@@ABV<lambda_fecc33a432ccb74a901dff60d61ca385>@@I@Z 00421506 f i libucrt:getcwd.obj
 0001:000205cc       ??$__acrt_get_full_path_name_narrow_acp_or_utf8@U__crt_win32_buffer_no_resizing@@@@YAHQBDAAV?$__crt_win32_buffer@DU__crt_win32_buffer_no_resizing@@@@@Z 004215cc f i libucrt:getcwd.obj
 0001:000206d3       ??$__acrt_get_full_path_name_narrow_acp_or_utf8@U__crt_win32_buffer_public_dynamic_resizing@@@@YAHQBDAAV?$__crt_win32_buffer@DU__crt_win32_buffer_public_dynamic_resizing@@@@@Z 004216d3 f i libucrt:getcwd.obj
 0001:000207da       ??$__acrt_get_full_path_name_wide@U__crt_win32_buffer_internal_dynamic_resizing@@@@YAHQB_WAAV?$__crt_win32_buffer@_WU__crt_win32_buffer_internal_dynamic_resizing@@@@@Z 004217da f i libucrt:getcwd.obj
 0001:000207f4       ??$__acrt_wcs_to_mbs_cp@U__crt_win32_buffer_public_dynamic_resizing@@@@YAHQB_WAAV?$__crt_win32_buffer@DU__crt_win32_buffer_public_dynamic_resizing@@@@I@Z 004217f4 f i libucrt:getcwd.obj
 0001:00020811       ??$call_win32_function@V<lambda_44f1df80ccead0226c26eac3423fba1d>@@@?$__crt_win32_buffer@_WU__crt_win32_buffer_internal_dynamic_resizing@@@@QAEHABV<lambda_44f1df80ccead0226c26eac3423fba1d>@@@Z 00421811 f i libucrt:getcwd.obj
 0001:000209a5       ?_deallocate@?$__crt_win32_buffer@DU__crt_win32_buffer_public_dynamic_resizing@@@@AAEXXZ 004219a5 f i libucrt:getcwd.obj
 0001:000209bf       ?allocate@?$__crt_win32_buffer@DU__crt_win32_buffer_public_dynamic_resizing@@@@QAEHI@Z 004219bf f i libucrt:getcwd.obj
 0001:000209fb       ?allocate@__crt_win32_buffer_public_dynamic_resizing@@SAHQAPAXIABV__crt_win32_buffer_debug_info@@@Z 004219fb f i libucrt:getcwd.obj
 0001:00020a1a       ?detach@?$__crt_win32_buffer@DU__crt_win32_buffer_public_dynamic_resizing@@@@QAEPADXZ 00421a1a f i libucrt:getcwd.obj
 0001:00020ae6       __getcwd                   00421ae6 f   libucrt:getcwd.obj
 0001:00020bb6       __get_sys_err_msg          00421bb6 f i libucrt:perror.obj
 0001:00020c0e       _perror                    00421c0e f   libucrt:perror.obj
 0001:00020c38       _malloc                    00421c38 f   libucrt:malloc.obj
 0001:00020c43       _free                      00421c43 f   libucrt:free.obj
 0001:00020c5e       _abort                     00421c5e f   libucrt:abort.obj
 0001:00020ca2       ___acrt_initialize_new_handler 00421ca2 f   libucrt:new_handler.obj
 0001:00020cb1       __callnewh                 00421cb1 f   libucrt:new_handler.obj
 0001:00020cdd       __query_new_handler        00421cdd f   libucrt:new_handler.obj
 0001:00020d34       __seh_filter_exe           00421d34 f   libucrt:exception_filter.obj
 0001:0002112b       ___acrt_allocate_buffer_for_argv 0042212b f   libucrt:argv_parsing.obj
 0001:0002117a       __configure_narrow_argv    0042217a f   libucrt:argv_parsing.obj
 0001:000215f5       ___dcrt_get_or_create_narrow_environment_nolock 004225f5 f   libucrt:environment_initialization.obj
 0001:000215fa       ___dcrt_get_or_create_wide_environment_nolock 004225fa f   libucrt:environment_initialization.obj
 0001:000215ff       ___dcrt_uninitialize_environments_nolock 004225ff f   libucrt:environment_initialization.obj
 0001:00021650       __get_initial_narrow_environment 00422650 f   libucrt:environment_initialization.obj
 0001:00021664       __initialize_narrow_environment 00422664 f   libucrt:environment_initialization.obj
 0001:000218fb       __crt_atexit               004228fb f   libucrt:onexit.obj
 0001:00021911       __execute_onexit_table     00422911 f   libucrt:onexit.obj
 0001:0002194f       __initialize_onexit_table  0042294f f   libucrt:onexit.obj
 0001:00021978       __register_onexit_function 00422978 f   libucrt:onexit.obj
 0001:00021aa6       ___acrt_initialize         00422aa6 f   libucrt:initialization.obj
 0001:00021ab8       ___acrt_uninitialize       00422ab8 f   libucrt:initialization.obj
 0001:00021ae8       __query_app_type           00422ae8 f   libucrt:report_runtime_error.obj
 0001:00021aee       __set_app_type             00422aee f   libucrt:report_runtime_error.obj
 0001:00021afd       ___acrt_has_user_matherr   00422afd f   libucrt:matherr.obj
 0001:00021b1a       ___acrt_initialize_user_matherr 00422b1a f   libucrt:matherr.obj
 0001:00021b29       ___acrt_invoke_user_matherr 00422b29 f   libucrt:matherr.obj
 0001:00021b5f       ___setusermatherr          00422b5f f   libucrt:matherr.obj
 0001:00021b74       __initterm                 00422b74 f   libucrt:initterm.obj
 0001:00021b9f       __initterm_e               00422b9f f   libucrt:initterm.obj
 0001:00021bcd       __get_fmode                00422bcd f   libucrt:setmode.obj
 0001:00021bfa       __set_fmode                00422bfa f   libucrt:setmode.obj
 0001:00021c37       __setmode_nolock           00422c37 f   libucrt:setmode.obj
 0001:00021d06       ___acrt_initialize_command_line 00422d06 f   libucrt:argv_data.obj
 0001:00021d1f       ___p___argc                00422d1f f   libucrt:argv_data.obj
 0001:00021d25       ___p___argv                00422d25 f   libucrt:argv_data.obj
 0001:00021e2b       ??0_expandlocale_locale_name_cache@@QAE@QA_WIQAU__crt_qualified_locale_data@@@Z 00422e2b f i libucrt:wsetlocale.obj
 0001:00021e75       ??1_expandlocale_locale_name_cache@@QAE@XZ 00422e75 f i libucrt:wsetlocale.obj
 0001:0002200d       ?commit_locale_name@_expandlocale_locale_name_cache@@QAEXQB_WI@Z 0042300d f i libucrt:wsetlocale.obj
 0001:00022051       ?commit_locale_name_cache_already_updated@_expandlocale_locale_name_cache@@QAEXQB_WI@Z 00423051 f i libucrt:wsetlocale.obj
 0001:00022086       ___acrt_copy_locale_name   00423086 f   libucrt:wsetlocale.obj
 0001:000220e6       ___acrt_set_locale_changed 004230e6 f   libucrt:wsetlocale.obj
 0001:000220f1       ___acrt_uninitialize_locale 004230f1 f   libucrt:wsetlocale.obj
 0001:00022118       ___lc_lctowcs              00423118 f   libucrt:wsetlocale.obj
 0001:00022188       ___lc_wcstolc              00423188 f   libucrt:wsetlocale.obj
 0001:000222c5       __configthreadlocale       004232c5 f   libucrt:wsetlocale.obj
 0001:0002271c       __wcscats                  0042371c f   libucrt:wsetlocale.obj
 0001:0002275d       __wsetlocale               0042375d f   libucrt:wsetlocale.obj
 0001:00023452       __query_new_mode           00424452 f   libucrt:new_mode.obj
 0001:00023459       __set_new_mode             00424459 f   libucrt:new_mode.obj
 0001:00023488       ___p__commode              00424488 f   libucrt:ncommode.obj
 0001:0002348e       _terminate                 0042448e f   libucrt:terminate.obj
 0001:000234ca       __controlfp_s              004244ca f   libucrt:contrlfp.obj
 0001:00023529       _strcpy_s                  00424529 f   libucrt:strcpy_s.obj
 0001:00023583       _calloc                    00424583 f   libucrt:calloc.obj
 0001:0002358e       _wcsncmp                   0042458e f   libucrt:wcsncmp.obj
 0001:000235c8       ___acrt_initialize_locks   004245c8 f   libucrt:locks.obj
 0001:00023609       ___acrt_lock               00424609 f   libucrt:locks.obj
 0001:00023620       ___acrt_uninitialize_locks 00424620 f   libucrt:locks.obj
 0001:00023651       ___acrt_unlock             00424651 f   libucrt:locks.obj
 0001:00023668       ___acrt_app_verifier_enabled 00424668 f   libucrt:peb_access.obj
 0001:0002367a       ___acrt_is_secure_process  0042467a f   libucrt:peb_access.obj
 0001:0002368d       ___acrt_get_begin_thread_init_policy 0042468d f   libucrt:win_policies.obj
 0001:000236c7       ___acrt_get_process_end_policy 004246c7 f   libucrt:win_policies.obj
 0001:000236ee       ?check_synchronize_global_state_index@__crt_cached_ptd_host@@AAEIXZ 004246ee f i libucrt:invalid_parameter.obj
 0001:00023717       ___acrt_call_reportfault   00424717 f   libucrt:invalid_parameter.obj
 0001:00023850       ___acrt_initialize_invalid_parameter_handler 00424850 f   libucrt:invalid_parameter.obj
 0001:0002385f       __invalid_parameter        0042485f f   libucrt:invalid_parameter.obj
 0001:00023896       __invalid_parameter_internal 00424896 f   libucrt:invalid_parameter.obj
 0001:00023913       __invalid_parameter_noinfo 00424913 f   libucrt:invalid_parameter.obj
 0001:00023923       __invoke_watson            00424923 f   libucrt:invalid_parameter.obj
 0001:00023957       __calloc_base              00424957 f   libucrt:calloc_base.obj
 0001:000239b4       __free_base                004249b4 f   libucrt:free_base.obj
 0001:000239ee       __malloc_base              004249ee f   libucrt:malloc_base.obj
 0001:00023cdf       _mbstowcs_s                00424cdf f   libucrt:mbstowcs.obj
 0001:00024098       __wcstombs_s_l             00425098 f   libucrt:wcstombs.obj
 0001:00024414       ___acrt_getptd             00425414 f   libucrt:per_thread_data.obj
 0001:000244cf       ___acrt_getptd_head        004254cf f   libucrt:per_thread_data.obj
 0001:00024565       ___acrt_getptd_noexit      00425565 f   libucrt:per_thread_data.obj
 0001:00024616       ___acrt_getptd_noexit_explicit 00425616 f   libucrt:per_thread_data.obj
 0001:000246b9       ___acrt_initialize_ptd     004256b9 f   libucrt:per_thread_data.obj
 0001:000246e5       ___acrt_uninitialize_ptd   004256e5 f   libucrt:per_thread_data.obj
 0001:00024a29       ___acrt_AppPolicyGetProcessTerminationMethodInternal@4 00425a29 f   libucrt:winapi_thunks.obj
 0001:00024a69       ___acrt_AppPolicyGetThreadInitializationTypeInternal@4 00425a69 f   libucrt:winapi_thunks.obj
 0001:00024aa9       ___acrt_AreFileApisANSI@0  00425aa9 f   libucrt:winapi_thunks.obj
 0001:00024ac8       ___acrt_CompareStringEx@36 00425ac8 f   libucrt:winapi_thunks.obj
 0001:00024b25       ___acrt_EnumSystemLocalesEx@16 00425b25 f   libucrt:winapi_thunks.obj
 0001:00024b79       ___acrt_FlsAlloc@4         00425b79 f   libucrt:winapi_thunks.obj
 0001:00024bb8       ___acrt_FlsFree@4          00425bb8 f   libucrt:winapi_thunks.obj
 0001:00024bf7       ___acrt_FlsGetValue@4      00425bf7 f   libucrt:winapi_thunks.obj
 0001:00024c36       ___acrt_FlsSetValue@8      00425c36 f   libucrt:winapi_thunks.obj
 0001:00024c78       ___acrt_GetDateFormatEx@28 00425c78 f   libucrt:winapi_thunks.obj
 0001:00024ccf       ___acrt_GetLocaleInfoEx@16 00425ccf f   libucrt:winapi_thunks.obj
 0001:00024d0e       ___acrt_GetTimeFormatEx@24 00425d0e f   libucrt:winapi_thunks.obj
 0001:00024d53       ___acrt_GetUserDefaultLocaleName@8 00425d53 f   libucrt:winapi_thunks.obj
 0001:00024d8f       ___acrt_InitializeCriticalSectionEx@12 00425d8f f   libucrt:winapi_thunks.obj
 0001:00024dda       ___acrt_IsValidLocaleName@4 00425dda f   libucrt:winapi_thunks.obj
 0001:00024e12       ___acrt_LCIDToLocaleName@16 00425e12 f   libucrt:winapi_thunks.obj
 0001:00024e51       ___acrt_LCMapStringEx@36   00425e51 f   libucrt:winapi_thunks.obj
 0001:00024eae       ___acrt_LocaleNameToLCID@8 00425eae f   libucrt:winapi_thunks.obj
 0001:00024edf       ___acrt_RoInitialize@4     00425edf f   libucrt:winapi_thunks.obj
 0001:00024f1a       ___acrt_RoUninitialize@0   00425f1a f   libucrt:winapi_thunks.obj
 0001:00024f48       ___acrt_can_use_vista_locale_apis 00425f48 f   libucrt:winapi_thunks.obj
 0001:00024f53       ___acrt_eagerly_load_locale_apis 00425f53 f   libucrt:winapi_thunks.obj
 0001:00024f8a       ___acrt_initialize_winapi_thunks 00425f8a f   libucrt:winapi_thunks.obj
 0001:00024f9e       ___acrt_uninitialize_winapi_thunks 00425f9e f   libucrt:winapi_thunks.obj
 0001:00024fd4       __isctype_l                00425fd4 f   libucrt:isctype.obj
 0001:0002509f       ___acrt_update_locale_info 0042609f f   libucrt:locale_update.obj
 0001:000250cc       ___acrt_update_locale_info_explicit 004260cc f   libucrt:locale_update.obj
 0001:000250fd       ___acrt_update_multibyte_info 004260fd f   libucrt:locale_update.obj
 0001:0002512a       ___acrt_update_multibyte_info_explicit 0042612a f   libucrt:locale_update.obj
 0001:0002515b       ___acrt_errno_from_os_error 0042615b f   libucrt:errno.obj
 0001:0002519e       ___acrt_errno_map_os_error 0042619e f   libucrt:errno.obj
 0001:000251c1       ___acrt_errno_map_os_error_ptd 004261c1 f   libucrt:errno.obj
 0001:000251e5       ___doserrno                004261e5 f   libucrt:errno.obj
 0001:000251f8       __errno                    004261f8 f   libucrt:errno.obj
 0001:000253fa       ___acrt_LCMapStringA       004263fa f   libucrt:lcmapstringa.obj
 0001:00025443       __freea_crt                00426443 f i libucrt:lcmapstringa.obj
 0001:00025463       ?__acrt_stdio_allocate_stream@@YA?AV__crt_stdio_stream@@XZ 00426463 f   libucrt:stream.obj
 0001:000254cc       ?__acrt_stdio_free_stream@@YAXV__crt_stdio_stream@@@Z 004264cc f   libucrt:stream.obj
 0001:000255c9       ??$__acrt_stdio_parse_mode@D@@YA?AU__acrt_stdio_stream_mode@@QBD@Z 004265c9 f i libucrt:openfile.obj
 0001:00025876       ?__acrt_stdio_parse_mode_D@@YA_NAAU__acrt_stdio_stream_mode@@@Z 00426876 f i libucrt:openfile.obj
 0001:00025891       ?__acrt_stdio_parse_mode_T@@YA_NAAU__acrt_stdio_stream_mode@@@Z 00426891 f i libucrt:openfile.obj
 0001:000258b0       ?__acrt_stdio_parse_mode_b@@YA_NAAU__acrt_stdio_stream_mode@@@Z 004268b0 f i libucrt:openfile.obj
 0001:000258d0       ?__acrt_stdio_parse_mode_c@@YA_NAAU__acrt_stdio_stream_mode@@AA_N@Z 004268d0 f i libucrt:openfile.obj
 0001:000258f2       ?__acrt_stdio_parse_mode_n@@YA_NAAU__acrt_stdio_stream_mode@@AA_N@Z 004268f2 f i libucrt:openfile.obj
 0001:00025914       ?__acrt_stdio_parse_mode_plus@@YA_NAAU__acrt_stdio_stream_mode@@AA_N@Z 00426914 f i libucrt:openfile.obj
 0001:0002594a       ?__acrt_stdio_parse_mode_t@@YA_NAAU__acrt_stdio_stream_mode@@@Z 0042694a f i libucrt:openfile.obj
 0001:0002596a       ?__acrt_stdio_parse_mode_x@@YA_NAAU__acrt_stdio_stream_mode@@@Z 0042696a f i libucrt:openfile.obj
 0001:0002598a       __openfile                 0042698a f   libucrt:openfile.obj
 0001:00025995       __fcloseall                00426995 f   libucrt:closeall.obj
 0001:00025a40       ___acrt_stdio_free_buffer_nolock 00426a40 f   libucrt:_freebuf.obj
 0001:00025be6       ___acrt_initialize_lowio   00426be6 f   libucrt:ioinit.obj
 0001:00025c46       ___acrt_uninitialize_lowio 00426c46 f   libucrt:ioinit.obj
 0001:00025c72       __fileno                   00426c72 f   libucrt:fileno.obj
 0001:00025d2a       __close_internal           00426d2a f   libucrt:close.obj
 0001:00025dcd       __close_nolock             00426dcd f   libucrt:close.obj
 0001:00025dfd       __close_nolock_internal    00426dfd f   libucrt:close.obj
 0001:00025f35       ___acrt_MultiByteToWideChar 00426f35 f   libucrt:multibytetowidechar.obj
 0001:00025f5f       __wremove                  00426f5f f   libucrt:wunlink.obj
 0001:00025f87       ___acrt_should_use_temporary_buffer 00426f87 f   libucrt:_sftbuf.obj
 0001:00025fc5       ___acrt_stdio_begin_temporary_buffering_nolock 00426fc5 f   libucrt:_sftbuf.obj
 0001:00026070       ___acrt_stdio_end_temporary_buffering_nolock 00427070 f   libucrt:_sftbuf.obj
 0001:000260ae       _strnlen                   004270ae f   libucrt:strnlen.obj
 0001:000261d0       _wcsnlen                   004271d0 f   libucrt:strnlen.obj
 0001:00026380       ?__acrt_fp_classify@@YA?AW4__acrt_fp_class@@ABN@Z 00427380 f i libucrt:cvt.obj
 0001:00026d58       ___acrt_fp_format          00427d58 f   libucrt:cvt.obj
 0001:00026ed9       __wctomb_internal          00427ed9 f   libucrt:wctomb.obj
 0001:00027043       __mbtowc_internal          00428043 f   libucrt:mbtowc.obj
 0001:00027176       __mbtowc_l                 00428176 f   libucrt:mbtowc.obj
 0001:000271ae       __get_printf_count_output  004281ae f   libucrt:printf_count_output.obj
 0001:00027965       __write                    00428965 f   libucrt:write.obj
 0001:0002799c       __write_internal           0042899c f   libucrt:write.obj
 0001:00027aad       __write_nolock             00428aad f   libucrt:write.obj
 0001:00027f16       ___acrt_stdio_flush_and_write_narrow_nolock 00428f16 f   libucrt:_flsbuf.obj
 0001:00027f21       ___pctype_func             00428f21 f   libucrt:ctype.obj
 0001:00027f45       _iswctype                  00428f45 f   libucrt:iswctype.obj
 0001:00027fae       __dsign                    00428fae f   libucrt:nan.obj
 0001:00027fbe       __errcode                  00428fbe f   libucrt:fpexcept.obj
 0001:00027ff2       __except1                  00428ff2 f   libucrt:fpexcept.obj
 0001:000280c0       __handle_exc               004290c0 f   libucrt:fpexcept.obj
 0001:00028340       __raise_exc                00429340 f   libucrt:fpexcept.obj
 0001:00028363       __raise_exc_ex             00429363 f   libucrt:fpexcept.obj
 0001:00028654       __set_errno_from_matherr   00429654 f   libucrt:fpexcept.obj
 0001:00028685       __umatherr                 00429685 f   libucrt:fpexcept.obj
 0001:00028725       __decomp                   00429725 f   libucrt:util.obj
 0001:000287f7       __set_exp                  004297f7 f   libucrt:util.obj
 0001:00028824       __sptype                   00429824 f   libucrt:util.obj
 0001:00028887       ___set_fpsr_sse2           00429887 f   libucrt:fpctrl.obj
 0001:00028907       __clrfp                    00429907 f   libucrt:fpctrl.obj
 0001:00028918       __ctrlfp                   00429918 f   libucrt:fpctrl.obj
 0001:00028942       __set_statfp               00429942 f   libucrt:fpctrl.obj
 0001:0002899b       __statfp                   0042999b f   libucrt:fpctrl.obj
 0001:000289ab       _fegetround                004299ab f   libucrt:fegetround.obj
 0001:00028b60       __lseeki64                 00429b60 f   libucrt:lseek.obj
 0001:00028ba0       __lseeki64_internal        00429ba0 f   libucrt:lseek.obj
 0001:00028bbe       __lseeki64_nolock          00429bbe f   libucrt:lseek.obj
 0001:00028bfe       __lseeki64_nolock_internal 00429bfe f   libucrt:lseek.obj
 0001:000290f8       __read                     0042a0f8 f   libucrt:read.obj
 0001:00029211       __read_nolock              0042a211 f   libucrt:read.obj
 0001:0002963e       __commit                   0042a63e f   libucrt:commit.obj
 0001:0002984a       ___acrt_stdio_refill_and_read_narrow_nolock 0042a84a f   libucrt:_filbuf.obj
 0001:00029855       __wrename                  0042a855 f   libucrt:wrename.obj
 0001:00029912       ___acrt_WideCharToMultiByte 0042a912 f   libucrt:widechartomultibyte.obj
 0001:0002a9d9       __Wcsftime_l               0042b9d9 f   libucrt:wcsftime.obj
 0001:0002ab39       ___acrt_initialize_timeset 0042bb39 f   libucrt:timeset.obj
 0001:0002ab6e       ___daylight                0042bb6e f   libucrt:timeset.obj
 0001:0002ab74       ___dstbias                 0042bb74 f   libucrt:timeset.obj
 0001:0002ab7a       ___timezone                0042bb7a f   libucrt:timeset.obj
 0001:0002ab80       ___tzname                  0042bb80 f   libucrt:timeset.obj
 0001:0002ab86       ___wide_tzname             0042bb86 f   libucrt:timeset.obj
 0001:0002ab8c       __get_daylight             0042bb8c f   libucrt:timeset.obj
 0001:0002abb8       __get_dstbias              0042bbb8 f   libucrt:timeset.obj
 0001:0002abe4       __get_timezone             0042bbe4 f   libucrt:timeset.obj
 0001:0002b4cf       ___tzset                   0042c4cf f   libucrt:tzset.obj
 0001:0002b52c       __isindst                  0042c52c f   libucrt:tzset.obj
 0001:0002b886       __dupenv_s                 0042c886 f   libucrt:getenv.obj
 0001:0002b8a4       __wgetenv_s                0042c8a4 f   libucrt:getenv.obj
 0001:0002be78       __spawnve                  0042ce78 f   libucrt:spawnv.obj
 0001:0002c179       __spawnvpe                 0042d179 f   libucrt:spawnvp.obj
 0001:0002c184       __waccess_s                0042d184 f   libucrt:waccess.obj
 0001:0002c242       __access_s                 0042d242 f   libucrt:access.obj
 0001:0002c2df       __getdrive                 0042d2df f   libucrt:drive.obj
 0001:0002c383       ___sys_errlist             0042d383 f   libucrt:syserr.obj
 0001:0002c389       ___sys_nerr                0042d389 f   libucrt:syserr.obj
 0001:0002c38f       ___acrt_lowio_create_handle_array 0042d38f f   libucrt:osfinfo.obj
 0001:0002c40a       ___acrt_lowio_destroy_handle_array 0042d40a f   libucrt:osfinfo.obj
 0001:0002c43f       ___acrt_lowio_ensure_fh_exists 0042d43f f   libucrt:osfinfo.obj
 0001:0002c4dd       ___acrt_lowio_lock_fh      0042d4dd f   libucrt:osfinfo.obj
 0001:0002c500       ___acrt_lowio_set_os_handle 0042d500 f   libucrt:osfinfo.obj
 0001:0002c592       ___acrt_lowio_unlock_fh    0042d592 f   libucrt:osfinfo.obj
 0001:0002c5b5       __alloc_osfhnd             0042d5b5 f   libucrt:osfinfo.obj
 0001:0002c6c8       __free_osfhnd              0042d6c8 f   libucrt:osfinfo.obj
 0001:0002c759       __get_osfhandle            0042d759 f   libucrt:osfinfo.obj
 0001:0002c7db       ??$__acrt_convert_wcs_mbs_cp@_WDV<lambda_28bda7af82a03b66c1cb3803a755f95d>@@U__crt_win32_buffer_internal_dynamic_resizing@@@@YAHQB_WAAV?$__crt_win32_buffer@DU__crt_win32_buffer_internal_dynamic_resizing@@@@ABV<lambda_28bda7af82a03b66c1cb3803a755f95d>@@I@Z 0042d7db f i libucrt:argv_wildcards.obj
 0001:0002cd79       ?allocate@?$__crt_win32_buffer@DU__crt_win32_buffer_internal_dynamic_resizing@@@@QAEHI@Z 0042dd79 f i libucrt:argv_wildcards.obj
 0001:0002ce3c       ___acrt_expand_narrow_argv_wildcards 0042de3c f   libucrt:argv_wildcards.obj
 0001:0002ce47       ___acrt_GetModuleFileNameA 0042de47 f   libucrt:getmodulefilenamea.obj
 0001:0002d464       ___acrt_initialize_multibyte 0042e464 f   libucrt:mbctype.obj
 0001:0002d4ac       ___acrt_update_thread_multibyte_data 0042e4ac f   libucrt:mbctype.obj
 0001:0002d4bf       __setmbcp_nolock           0042e4bf f   libucrt:mbctype.obj
 0001:0002d714       __ismbblead                0042e714 f   libucrt:ismbbyte.obj
 0001:0002d72c       _wcscpy_s                  0042e72c f   libucrt:wcscpy_s.obj
 0001:0002d7c7       ___dcrt_get_narrow_environment_from_os 0042e7c7 f   libucrt:get_environment_from_os.obj
 0001:0002d867       ___dcrt_get_wide_environment_from_os 0042e867 f   libucrt:get_environment_from_os.obj
 0001:0002dfef       ___dcrt_set_variable_in_narrow_environment_nolock 0042efef f   libucrt:setenv.obj
 0001:0002dffa       ___dcrt_set_variable_in_wide_environment_nolock 0042effa f   libucrt:setenv.obj
 0001:0002e005       __recalloc_base            0042f005 f   libucrt:recalloc.obj
 0001:0002e072       ___acrt_initialize_heap    0042f072 f   libucrt:heap_handle.obj
 0001:0002e083       ___acrt_uninitialize_heap  0042f083 f   libucrt:heap_handle.obj
 0001:0002e08d       ___acrt_execute_initializers 0042f08d f   libucrt:shared_initialization.obj
 0001:0002e0f5       ___acrt_execute_uninitializers 0042f0f5 f   libucrt:shared_initialization.obj
 0001:0002e126       _wcscat_s                  0042f126 f   libucrt:wcscat_s.obj
 0001:0002e263       _wcsncpy_s                 0042f263 f   libucrt:wcsncpy_s.obj
 0001:0002e26e       ___acrt_initialize_fmode   0042f26e f   libucrt:txtmode.obj
 0001:0002e284       ____lc_codepage_func       0042f284 f   libucrt:initctype.obj
 0001:0002e2a9       ___acrt_locale_initialize_ctype 0042f2a9 f   libucrt:initctype.obj
 0001:0002e706       ___acrt_locale_free_monetary 0042f706 f   libucrt:initmon.obj
 0001:0002e804       ___acrt_locale_initialize_monetary 0042f804 f   libucrt:initmon.obj
 0001:0002eb65       ___acrt_locale_free_numeric 0042fb65 f   libucrt:initnum.obj
 0001:0002ebce       ___acrt_locale_initialize_numeric 0042fbce f   libucrt:initnum.obj
 0001:0002f08c       ___acrt_locale_free_time   0043008c f   libucrt:inittime.obj
 0001:0002f170       ___acrt_locale_initialize_time 00430170 f   libucrt:inittime.obj
 0001:0002f2d3       _wcsncat_s                 004302d3 f   libucrt:wcsncat_s.obj
 0001:0002f2de       _wcscspn                   004302de f   libucrt:wcscspn.obj
 0001:0002f337       _wcspbrk                   00430337 f   libucrt:wcspbrk.obj
 0001:0002f385       ___acrt_GetStringTypeA     00430385 f   libucrt:getstringtypea.obj
 0001:0002f486       ___acrt_add_locale_ref     00430486 f   libucrt:locale_refcounting.obj
 0001:0002f503       ___acrt_free_locale        00430503 f   libucrt:locale_refcounting.obj
 0001:0002f64b       ___acrt_locale_add_lc_time_reference 0043064b f   libucrt:locale_refcounting.obj
 0001:0002f674       ___acrt_locale_free_lc_time_if_unreferenced 00430674 f   libucrt:locale_refcounting.obj
 0001:0002f6a5       ___acrt_locale_release_lc_time_reference 004306a5 f   libucrt:locale_refcounting.obj
 0001:0002f6ce       ___acrt_release_locale_ref 004306ce f   libucrt:locale_refcounting.obj
 0001:0002f74f       ___acrt_update_thread_locale_data 0043074f f   libucrt:locale_refcounting.obj
 0001:0002f7d0       __updatetlocinfoEx_nolock  004307d0 f   libucrt:locale_refcounting.obj
 0001:0002ff17       ___acrt_get_qualified_locale 00430f17 f   libucrt:get_qualified_locale.obj
 0001:0003088c       ___acrt_get_qualified_locale_downlevel 0043188c f   libucrt:getqloc_downlevel.obj
 0001:00030b23       __clearfp                  00431b23 f   libucrt:ieee87.obj
 0001:00030c01       __control87                00431c01 f   libucrt:ieee87.obj
 0001:00030fcc       ?__mbrtowc_utf8@__crt_mbstring@@YAIPA_WPBDIPAU_Mbstatet@@AAV__crt_cached_ptd_host@@@Z 00431fcc f   libucrt:mbrtowc.obj
 0001:0003100f       ?__mbsrtowcs_utf8@__crt_mbstring@@YAIPA_WPAPBDIPAU_Mbstatet@@AAV__crt_cached_ptd_host@@@Z 0043200f f   libucrt:mbrtowc.obj
 0001:00031117       ?__wcsrtombs_utf8@__crt_mbstring@@YAIPADPAPB_WIPAU_Mbstatet@@AAV__crt_cached_ptd_host@@@Z 00432117 f   libucrt:wcrtomb.obj
 0001:00031276       ___acrt_DownlevelLCIDToLocaleName 00432276 f   libucrt:lcidtoname_downlevel.obj
 0001:00031319       ___acrt_DownlevelLocaleNameToLCID 00432319 f   libucrt:lcidtoname_downlevel.obj
 0001:00031345       ___strncnt                 00432345 f   libucrt:strncnt.obj
 0001:00031361       ___ascii_wcsnicmp          00432361 f   libucrt:wcsnicmp.obj
 0001:000313b0       __towlower_internal        004323b0 f i libucrt:wcsnicmp.obj
 0001:000313ef       __wcsnicmp                 004323ef f   libucrt:wcsnicmp.obj
 0001:0003143b       __wcsnicmp_l               0043243b f   libucrt:wcsnicmp.obj
 0001:0003150e       __strnicmp                 0043250e f   libucrt:strnicmp.obj
 0001:0003157b       __strnicmp_l               0043257b f   libucrt:strnicmp.obj
 0001:00031c30       __sopen_nolock             00432c30 f   libucrt:open.obj
 0001:00031c9e       __sopen_s                  00432c9e f   libucrt:open.obj
 0001:00031cbe       __wsopen_nolock            00432cbe f   libucrt:open.obj
 0001:00031fe8       __isatty                   00432fe8 f   libucrt:isatty.obj
 0001:000320ef       ___acrt_fp_strflt_to_string 004330ef f   libucrt:_fptostr.obj
 0001:000321e9       ___acrt_fltout             004331e9 f   libucrt:cfout.obj
 0001:000337d1       ?__c32rtomb_utf8@__crt_mbstring@@YAIPAD_UPAU_Mbstatet@@AAV__crt_cached_ptd_host@@@Z 004347d1 f   libucrt:c32rtomb.obj
 0001:00033881       __putwch_nolock            00434881 f   libucrt:putwch.obj
 0001:000338b3       ___acrt_stdio_allocate_buffer_nolock 004348b3 f   libucrt:_getbuf.obj
 0001:0003390f       ___acrt_GetStringTypeW     0043490f f   libucrt:getstringtypew.obj
 0001:00033bf1       ___acrt_fenv_get_common_round_control 00434bf1 f   libucrt:_fenvutils.obj
 0001:00033c13       ___acrt_fenv_get_control   00434c13 f   libucrt:_fenvutils.obj
 0001:00033c93       ___acrt_fenv_get_status    00434c93 f   libucrt:_fenvutils.obj
 0001:00033d3d       ___acrt_fenv_set_control   00434d3d f   libucrt:_fenvutils.obj
 0001:00033db8       ___acrt_fenv_set_status    00434db8 f   libucrt:_fenvutils.obj
 0001:00033eb4       ___ascii_wcsicmp           00434eb4 f   libucrt:wcsicmp.obj
 0001:00033ef1       __wcsicmp                  00434ef1 f   libucrt:wcsicmp.obj
 0001:00033f3a       __wcsicmp_l                00434f3a f   libucrt:wcsicmp.obj
 0001:00033ff2       __wcsnicoll                00434ff2 f   libucrt:wcsnicol.obj
 0001:0003405f       __wcsnicoll_l              0043505f f   libucrt:wcsnicol.obj
 0001:0003411f       __strnicoll                0043511f f   libucrt:strnicol.obj
 0001:00034148       __strnicoll_l              00435148 f   libucrt:strnicol.obj
 0001:00034210       _strcat_s                  00435210 f   libucrt:strcat_s.obj
 0001:0003468d       ___acrt_pack_narrow_command_line_and_environment 0043568d f   libucrt:cenvarg.obj
 0001:00034698       ___acrt_CreateProcessA     00435698 f   libucrt:createprocessa.obj
 0001:0003482e       ___acrt_getpath            0043582e f   libucrt:getpath.obj
 0001:000348f0       _strncpy_s                 004358f0 f   libucrt:strncpy_s.obj
 0001:000348fb       __mbsdec                   004358fb f   libucrt:mbsdec.obj
 0001:00034912       __mbsdec_l                 00435912 f   libucrt:mbsdec.obj
 0001:000349ae       ___acrt_SetEnvironmentVariableA 004359ae f   libucrt:setenvironmentvariablea.obj
 0001:00034a43       __msize_base               00435a43 f   libucrt:msize.obj
 0001:00034a76       __realloc_base             00435a76 f   libucrt:realloc_base.obj
 0001:00034bbe       ___acrt_GetLocaleInfoA     00435bbe f   libucrt:getlocaleinfoa.obj
 0001:00034e9c       __itow_s                   00435e9c f   libucrt:xtoa.obj
 0001:00034ecf       ?__mbrtoc32_utf8@__crt_mbstring@@YAIPA_UPBDIPAU_Mbstatet@@AAV__crt_cached_ptd_host@@@Z 00435ecf f   libucrt:mbrtoc32.obj
 0001:00035080       ?__c16rtomb_utf8@__crt_mbstring@@YAIPAD_SPAU_Mbstatet@@AAV__crt_cached_ptd_host@@@Z 00436080 f   libucrt:c16rtomb.obj
 0001:0003512a       __towlower_l               0043612a f   libucrt:towlower.obj
 0001:00035200       ___ascii_strnicmp          00436200 f   libucrt:_strnicm.obj
 0001:00035261       ??0__crt_seek_guard@@QAE@H_J@Z 00436261 f i libucrt:chsize.obj
 0001:000352ae       __chsize_nolock            004362ae f   libucrt:chsize.obj
 0001:000352e5       __chsize_nolock_internal   004362e5 f   libucrt:chsize.obj
 0001:0003547c       _fegetenv                  0043647c f   libucrt:fegetenv.obj
 0001:00035499       _fesetenv                  00436499 f   libucrt:fesetenv.obj
 0001:000354e5       _feholdexcept              004364e5 f   libucrt:feholdexcept.obj
 0001:00035540       __CIlog10                  00436540 f   libucrt:log10_impl.obj
 0001:0003557b       __CIlog10_default          0043657b f   libucrt:log10_impl.obj
 0001:0003558f       __log10_default            0043658f     libucrt:log10_impl.obj
 0001:00035650       _ceil                      00436650 f   libucrt:ceil_pentium4.obj
 0001:00035690       __ceil_pentium4            00436690 f   libucrt:ceil_pentium4.obj
 0001:0003576d       ?reset_and_return@__crt_mbstring@@YAIIPAU_Mbstatet@@@Z 0043676d f   libucrt:common_utf8.obj
 0001:00035781       ?return_illegal_sequence@__crt_mbstring@@YAIPAU_Mbstatet@@AAV__crt_cached_ptd_host@@@Z 00436781 f   libucrt:common_utf8.obj
 0001:000357c2       ___dcrt_lowio_ensure_console_output_initialized 004367c2 f   libucrt:initcon.obj
 0001:000357e1       ___dcrt_terminate_console_output 004367e1 f   libucrt:initcon.obj
 0001:000357f8       ___dcrt_write_console      004367f8 f   libucrt:initcon.obj
 0001:0003584d       ___acrt_CompareStringW     0043684d f   libucrt:comparestringw.obj
 0001:00035b51       ___acrt_CompareStringA     00436b51 f   libucrt:comparestringa.obj
 0001:00035b97       ___acrt_LCMapStringW       00436b97 f   libucrt:lcmapstringw.obj
 0001:00035bd5       ___acrt_initialize_sse2    00436bd5 f   libucrt:mathfcns.obj
 0001:00035bf0       __CIlog10_pentium4         00436bf0 f   libucrt:log10_pentium4.obj
 0001:00035c08       __log10_pentium4           00436c08     libucrt:log10_pentium4.obj
 0001:00035ea0       __fFEXP                    00436ea0 f   libucrt:87tran.obj
 0001:00035ef7       __rtinfpopse               00436ef7     libucrt:87tran.obj
 0001:00035ef9       __rtinfnpopse              00436ef9     libucrt:87tran.obj
 0001:00035f09       __fFLN                     00436f09     libucrt:87tran.obj
 0001:00035fbe       __rtinfpop                 00436fbe     libucrt:87tran.obj
 0001:00035fc0       __rtinfnpop                00436fc0     libucrt:87tran.obj
 0001:00035fd0       __rtforexpinf              00436fd0 f   libucrt:87tran.obj
 0001:00035fdd       __ffexpm1                  00436fdd     libucrt:87tran.obj
 0001:00036090       __trandisp1                00437090 f   libucrt:87disp.obj
 0001:00036105       __trandisp2                00437105 f   libucrt:87disp.obj
 0001:0003619f       __rttospopde               0043719f     libucrt:87disp.obj
 0001:000361a4       __rttospop                 004371a4     libucrt:87disp.obj
 0001:000361b0       __rtnospop                 004371b0 f   libucrt:87disp.obj
 0001:000361c0       __rttosnpop                004371c0 f   libucrt:87disp.obj
 0001:000361c1       __rtnospopde               004371c1     libucrt:87disp.obj
 0001:000361c8       __rtzeropop                004371c8     libucrt:87disp.obj
 0001:000361ca       __rtzeronpop               004371ca     libucrt:87disp.obj
 0001:000361d0       __rtzerospop               004371d0 f   libucrt:87disp.obj
 0001:000361dd       __rtonepop                 004371dd     libucrt:87disp.obj
 0001:000361e0       __rtonenpop                004371e0 f   libucrt:87disp.obj
 0001:000361f0       __tosnan1                  004371f0 f   libucrt:87disp.obj
 0001:00036220       __nosnan2                  00437220 f   libucrt:87disp.obj
 0001:00036230       __tosnan2                  00437230 f   libucrt:87disp.obj
 0001:00036260       __nan2                     00437260 f   libucrt:87disp.obj
 0001:000362a0       __rtindfpop                004372a0 f   libucrt:87disp.obj
 0001:000362a2       __rtindfnpop               004372a2     libucrt:87disp.obj
 0001:000362b3       __rttosnpopde              004372b3     libucrt:87disp.obj
 0001:000362c0       __rtatan2inf               004372c0 f   libucrt:87disp.obj
 0001:000362dd       __rtchsifneg               004372dd     libucrt:87disp.obj
 0001:000362f0       __twoToTOS                 004372f0 f   libucrt:common.obj
 0001:00036305       __load_CW                  00437305 f   libucrt:common.obj
 0001:0003631c       __convertTOStoQNaN         0043731c f   libucrt:common.obj
 0001:00036335       __fload_withFB             00437335 f   libucrt:common.obj
 0001:00036378       __checkTOS_withFB          00437378 f   libucrt:common.obj
 0001:0003638e       __fast_exit                0043738e f   libucrt:common.obj
 0001:0003639b       __math_exit                0043739b f   libucrt:common.obj
 0001:000363c5       __check_overflow_exit      004373c5 f   libucrt:common.obj
 0001:000363d9       __check_range_exit         004373d9 f   libucrt:common.obj
 0001:00036480       __startTwoArgErrorHandling 00437480 f   libucrt:genexcep.obj
 0001:00036497       __startOneArgErrorHandling 00437497 f   libucrt:genexcep.obj
 0001:000364d3       ___libm_error_support      004374d3 f   libucrt:libm_error.obj
 0001:000366c7       __ceil_default             004376c7 f   libucrt:ceil.obj
 0001:00036785       __d_inttype                00437785 f   libucrt:powhlp.obj
 0001:000367ed       __powhlp                   004377ed f   libucrt:powhlp.obj
 0001:00036918       __87except                 00437918 f   libucrt:87except.obj
 0001:00036a28       __frnd                     00437a28 f   libucrt:frnd.obj
 0001:00036a3c       __fpclass                  00437a3c f   libucrt:ieeemisc.obj
 0001:00036ae0       __FindPESection            00437ae0 f   LIBCMT:pesect.obj
 0001:00036b30       __IsNonwritableInCurrentImage 00437b30 f   LIBCMT:pesect.obj
 0001:00036bf0       __ValidateImageBase        00437bf0 f   LIBCMT:pesect.obj
 0001:00036c21       __EH_epilog3               00437c21 f   LIBCMT:ehprolg3.obj
 0001:00036c35       __EH_prolog3               00437c35 f   LIBCMT:ehprolg3.obj
 0001:00036c68       __EH_prolog3_catch         00437c68 f   LIBCMT:ehprolg3.obj
 0001:00036ca0       @_guard_check_icall@4      00437ca0 f i LIBCMT:checkcfg.obj
 0001:00036cb0       __aulldiv                  00437cb0 f   LIBCMT:ulldiv.obj
 0001:00036d20       __aullrem                  00437d20 f   LIBCMT:ullrem.obj
 0001:00036da0       __allmul                   00437da0 f   LIBCMT:llmul.obj
 0001:00036de0       __alldiv                   00437de0 f   LIBCMT:lldiv.obj
 0001:00036e90       __allrem                   00437e90 f   LIBCMT:llrem.obj
 0001:00036f50       __allshl                   00437f50 f   LIBCMT:llshl.obj
 0001:00036f70       __aullshr                  00437f70 f   LIBCMT:ullshr.obj
 0001:00036f90       __alloca_probe             00437f90 f   LIBCMT:chkstk.obj
 0001:00036f90       __chkstk                   00437f90 f   LIBCMT:chkstk.obj
 0001:00036fc0       __alloca_probe_16          00437fc0 f   LIBCMT:alloca16.obj
 0001:00036fd6       __alloca_probe_8           00437fd6     LIBCMT:alloca16.obj
 0001:00036ff0       __ftol2_sse                00437ff0 f   LIBCMT:ftol2.obj
 0001:00037000       __ftoi2                    00438000 f   LIBCMT:ftol2.obj
 0001:0003707c       _memcmp                    0043807c f   libvcruntime:memcmp.obj
 0001:00038704       _wcschr                    00439704 f   libvcruntime:wcschr.obj
 0001:000387a5       __filter_x86_sse2_floating_point_exception 004397a5 f   LIBCMT:x86_exception_filter.obj
 0001:000387a5       __filter_x86_sse2_floating_point_exception_default 004397a5 f   LIBCMT:x86_exception_filter.obj
 0001:00038840       ?fatal@@YAXPBDZZ           00439840 f   server.obj
 0001:000388c0       ?localservertoclient@@YAXHPAEH_N@Z 004398c0 f   server.obj
 0001:000388d0       ?initserver@@YAX_N@Z       004398d0 f   server.obj
 0001:000391e0       ?restartlogging@@YAXXZ     0043a1e0 f   server.obj
 0001:00039290       ?quitproc@@YAXH@Z          0043a290 f   server.obj
 0001:000392b0       ?processmasterinput@@YAXPBDH0@Z 0043a2b0 f   server.obj
 0001:00039340       ?extinfo_teamscorebuf@@YAXAAU?$databuf@E@@@Z 0043a340 f   server.obj
 0001:00039520       ?extinfo_statsbuf@@YAXAAU?$databuf@E@@HHAAIAAU_ENetAddress@@AAUENetBuffer@@HPAH@Z 0043a520 f   server.obj
 0001:00039810       ?extinfo_cnbuf@@YAXAAU?$databuf@E@@H@Z 0043a810 f   server.obj
 0001:00039880       ?extping_uplinkstats@@YAXAAU?$databuf@E@@@Z 0043a880 f   server.obj
 0001:000398d0       ?extping_maprot@@YAXAAU?$databuf@E@@@Z 0043a8d0 f   server.obj
 0001:000398f0       ?extping_serverinfo@@YAXAAU?$databuf@E@@0@Z 0043a8f0 f   server.obj
 0001:00039ab0       ?extping_namelist@@YAXAAU?$databuf@E@@@Z 0043aab0 f   server.obj
 0001:00039b30       ?getpongflags@@YAHI@Z      0043ab30 f   server.obj
 0001:00039bc0       ?cleanupserver@@YAXXZ      0043abc0 f   server.obj
 0001:00039c10       ?serverslice@@YAXI@Z       0043ac10 f   server.obj
 0001:0003acb0       ?linequalitystats@@YAXH@Z  0043bcb0 f   server.obj
 0001:0003aff0       ?loggamestatus@@YAXPBD@Z   0043bff0 f   server.obj
 0001:0003b610       ?sendworldstate@@YAXXZ     0043c610 f   server.obj
 0001:0003b680       ?resetserverifempty@@YAXXZ 0043c680 f   server.obj
 0001:0003b6e0       ?checkintermission@@YAXXZ  0043c6e0 f   server.obj
 0001:0003b890       ?addclient@@YAAAUclient@@XZ 0043c890 f   server.obj
 0001:0003b9d0       ?process@@YAXPAU_ENetPacket@@HH@Z 0043c9d0 f   server.obj
 0001:00040ef0       ?polldeferredprocessing@@YAXXZ 00441ef0 f   server.obj
 0001:000411d0       ?deferredprocessingthread@@YAHPAX@Z 004421d0 f   server.obj
 0001:000412d0       ?checktype@@YAHHPAUclient@@@Z 004422d0 f   server.obj
 0001:00041350       ?forcedeath@@YAXPAUclient@@@Z 00442350 f   server.obj
 0001:000413b0       ?sendwelcome@@YAXPAUclient@@H@Z 004423b0 f   server.obj
 0001:00041450       ?welcomepacket@@YAXAAUpacketbuf@@H@Z 00442450 f   server.obj
 0001:00041960       ?welcomeinitclient@@YAXAAUpacketbuf@@H@Z 00442960 f   server.obj
 0001:000419c0       ?sendinitclient@@YAXAAUclient@@@Z 004429c0 f   server.obj
 0001:00041a50       ?putinitclient@@YAXAAUclient@@AAUpacketbuf@@@Z 00442a50 f   server.obj
 0001:00041b10       ?sendservinfo@@YAXAAUclient@@@Z 00442b10 f   server.obj
 0001:00041b90       ?restorescore@@YA_NAAUclient@@@Z 00442b90 f   server.obj
 0001:00041cd0       ?sendresume@@YAXAAUclient@@_N@Z 00442cd0 f   server.obj
 0001:00041d40       ?sendiplist@@YAXHH@Z       00442d40 f   server.obj
 0001:00041e70       ?disconnect_client@@YAXHH@Z 00442e70 f   server.obj
 0001:000420d0       ?senddisconnectedscores@@YAXH@Z 004430d0 f   server.obj
 0001:00042240       ?changeclientrole@@YAXHHPAD_N@Z 00443240 f   server.obj
 0001:00042450       ?callvotepacket@@YAXHPAUvoteinfo@@@Z 00443450 f   server.obj
 0001:00042670       ?scallvote@@YA_NPAUvoteinfo@@PAU_ENetPacket@@@Z 00443670 f   server.obj
 0001:00042bd0       ?scallvoteerr@@YAXPAUvoteinfo@@H@Z 00443bd0 f   server.obj
 0001:00042cd0       ?scallvotesuc@@YAXPAUvoteinfo@@@Z 00443cd0 f   server.obj
 0001:00042dd0       ?svote@@YA_NHHPAU_ENetPacket@@@Z 00443dd0 f   server.obj
 0001:00042e90       ?kick_abuser@@YAXHAAH0H@Z  00443e90 f   server.obj
 0001:00042f10       ?roleconf@@YAHH@Z          00443f10 f   server.obj
 0001:00042f70       ?sendserveropinfo@@YAXH@Z  00443f70 f   server.obj
 0001:00042fd0       ?serveroperator@@YAHXZ     00443fd0 f   server.obj
 0001:00043000       ?getbantype@@YAHH@Z        00444000 f   server.obj
 0001:00043100       ?addgban@@YAXPBD@Z         00444100 f   server.obj
 0001:00043280       ?checkgban@@YA_NI@Z        00444280 f   server.obj
 0001:000432b0       ?cleargbans@@YAXXZ         004442b0 f   server.obj
 0001:000432d0       ?startgame@@YAXPBDHH_N@Z   004442d0 f   server.obj
 0001:00043d50       ?startdemoplayback@@YAXPBD@Z 00444d50 f   server.obj
 0001:00043f20       ?resetserver@@YAXPBDHH@Z   00444f20 f   server.obj
 0001:00044120       ?refillteams@@YA_N_NH@Z    00445120 f   server.obj
 0001:00044470       ?shuffleteams@@YAXH@Z      00445470 f   server.obj
 0001:000448b0       ?calcscores@@YAHXZ         004458b0 f   server.obj
 0001:00044a30       ?calcscoresmatch@@YAHXZ    00445a30 f   server.obj
 0001:00044af0       ?calcscoresvita@@YAHXZ     00445af0 f   server.obj
 0001:00044bb0       ?updateclientteam@@YA_NHHH@Z 00445bb0 f   server.obj
 0001:000450c0       ?autospawncheck@@YAXXZ     004460c0 f   server.obj
 0001:00045180       ?canspawn@@YAHPAUclient@@@Z 00446180 f   server.obj
 0001:00045380       ?updatesdesc@@YAXPBDPAU_ENetAddress@@@Z 00446380 f   server.obj
 0001:00045420       ?updatedescallowed@@YA_NXZ 00446420 f   server.obj
 0001:00045440       ?processevents@@YAXXZ      00446440 f   server.obj
 0001:00045640       ?clearevent@@YAXPAUclient@@@Z 00446640 f   server.obj
 0001:000456d0       ?processevent@@YAXPAUclient@@AAUakimboevent@@@Z 004466d0 f   server.obj
 0001:00045710       ?processevent@@YAXPAUclient@@AAUreloadevent@@@Z 00446710 f   server.obj
 0001:000458c0       ?processevent@@YAXPAUclient@@AAUpickupevent@@@Z 004468c0 f   server.obj
 0001:00045920       ?processevent@@YAXPAUclient@@AAUsuicideevent@@@Z 00446920 f   server.obj
 0001:00045960       ?processevent@@YAXPAUclient@@AAUshotevent@@@Z 00446960 f   server.obj
 0001:00045de0       ?processevent@@YAXPAUclient@@AAUexplodeevent@@@Z 00446de0 f   server.obj
 0001:00045fd0       ?serverdamage@@YAXPAUclient@@0HH_NABUvec@@@Z 00446fd0 f   server.obj
 0001:000467b0       ?checkitemspawns@@YAXH@Z   004477b0 f   server.obj
 0001:00046830       ?serverpickup@@YA_NHH@Z    00447830 f   server.obj
 0001:00046c00       ?spawntime@@YAHH@Z         00447c00 f   server.obj
 0001:00046c90       ?numplayers@@YAHXZ         00447c90 f   server.obj
 0001:00046ca0       ?sendvoicecomteam@@YAXHH@Z 00447ca0 f   server.obj
 0001:00046e10       ?sendteamtext@@YAXPADHH@Z  00447e10 f   server.obj
 0001:00046fd0       ?spamdetect@@YA_NPAUclient@@PAD@Z 00447fd0 f   server.obj
 0001:00047110       ?arenacheck@@YAXXZ         00448110 f   server.obj
 0001:00047480       ?distributespawns@@YAXXZ   00448480 f   server.obj
 0001:00047520       ?distributeteam@@YAXH@Z    00448520 f   server.obj
 0001:00047680       ?cmpscore@@YAHPBH0@Z       00448680 f   server.obj
 0001:000476b0       ?htf_forceflag@@YAXH@Z     004486b0 f   server.obj
 0001:000478b0       ?resetflag@@YAXH@Z         004488b0 f   server.obj
 0001:000478d0       ?sdropflag@@YAXH@Z         004488d0 f   server.obj
 0001:000478f0       ?ctfreset@@YAXXZ           004488f0 f   server.obj
 0001:00047970       ?clienthasflag@@YAHH@Z     00448970 f   server.obj
 0001:000479d0       ?flagaction@@YAXHHH@Z      004489d0 f   server.obj
 0001:00048070       ?flagmessage@@YAXHHHH@Z    00449070 f   server.obj
 0001:000480e0       ?sendflaginfo@@YAXHH@Z     004490e0 f   server.obj
 0001:000481a0       ?flagdistance@@YA_NAAUsflaginfo@@H@Z 004491a0 f   server.obj
 0001:00048380       ?check_ffire@@YAXPAUclient@@0H@Z 00449380 f   server.obj
 0001:00048450       ?check_afk@@YAXXZ          00449450 f   server.obj
 0001:00048660       ?putflaginfo@@YAXAAUpacketbuf@@H@Z 00449660 f   server.obj
 0001:000486f0       ?setupdemoplayback@@YAXXZ  004496f0 f   server.obj
 0001:000489f0       ?enddemoplayback@@YAXXZ    004499f0 f   server.obj
 0001:00048b20       ?checkdemotransmissions@@YAXXZ 00449b20 f   server.obj
 0001:00048dc0       ?senddemo@@YAXHH@Z         00449dc0 f   server.obj
 0001:00049040       ?listdemos@@YAXH@Z         0044a040 f   server.obj
 0001:000492b0       ?donedemosort@@YAHPAPAUdemo_s@@0@Z 0044a2b0 f   server.obj
 0001:000492d0       ?setupdemorecord@@YAXXZ    0044a2d0 f   server.obj
 0001:000496e0       ?enddemorecord@@YAXXZ      0044a6e0 f   server.obj
 0001:00049a90       ?demorecord_beginintermission@@YAXXZ 0044aa90 f   server.obj
 0001:00049b50       ?recordpacket@@YAXHPAU_ENetPacket@@@Z 0044ab50 f   server.obj
 0001:00049b80       ?recordpacket@@YAXHPAXH@Z  0044ab80 f   server.obj
 0001:00049ba0       ?writedemo@@YAXHPAXH@Z     0044aba0 f   server.obj
 0001:00049d10       ?demoworkerthread@@YAHPAX@Z 0044ad10 f   server.obj
 0001:0004a3d0       ?initdemoslot@@YAPAUdemo_s@@XZ 0044b3d0 f   server.obj
 0001:0004a820       ?sendspawn@@YAXPAUclient@@@Z 0044b820 f   server.obj
 0001:0004a8f0       ?sendservmsgverbose@@YAXPBDH@Z 0044b8f0 f   server.obj
 0001:0004a910       ?sendservmsg@@YAXPBDH@Z    0044b910 f   server.obj
 0001:0004a930       ?sendf@@YAXHHPBDZZ         0044b930 f   server.obj
 0001:0004b2c0       ?findscore@@YAPAUsavedscore@@AAUclient@@_N@Z 0044c2c0 f   server.obj
 0001:0004b4f0       ?findcnbyaddress@@YAHPAU_ENetAddress@@@Z 0044c4f0 f   server.obj
 0001:0004b530       ?setpausemode@@YAXH@Z      0044c530 f   server.obj
 0001:0004b5a0       ?changemastermode@@YAXH@Z  0044c5a0 f   server.obj
 0001:0004b660       ?changematchteamsize@@YAXH@Z 0044c660 f   server.obj
 0001:0004b790       ?sendservermode@@YAH_N@Z   0044c790 f   server.obj
 0001:0004b7d0       ?numteamclients@@YAPAHH@Z  0044c7d0 f   server.obj
 0001:0004b840       ?numactiveclients@@YAHXZ   0044c840 f   server.obj
 0001:0004b890       ?numnonlocalclients@@YAHXZ 0044c890 f   server.obj
 0001:0004b8a0       ?numlocalclients@@YAHXZ    0044c8a0 f   server.obj
 0001:0004b8b0       ?numclients@@YAHXZ         0044c8b0 f   server.obj
 0001:0004b8c0       ?countclients@@YAHH_N@Z    0044c8c0 f   server.obj
 0001:0004b910       ?getclientbysequence@@YAPAUclient@@H@Z 0044c910 f   server.obj
 0001:0004b950       ?buildworldstate@@YA_NXZ   0044c950 f   server.obj
 0001:0004bdf0       ?sendpacket@@YAXHHPAU_ENetPacket@@H_N@Z 0044cdf0 f   server.obj
 0001:0004bea0       ?cleanworldstate@@YAXPAU_ENetPacket@@@Z 0044cea0 f   server.obj
 0001:0004bf40       ?valid_client@@YA_NH@Z     0044cf40 f   server.obj
 0001:0004bf60       ?getservermap@@YAPAUservermap@@PBD@Z 0044cf60 f   server.obj
 0001:0004bff0       ?recalcgamesuggestions@servermaprot@@QAEPAUservermap@@H@Z 0044cff0 f   server.obj
 0001:0004c570       ?randommap@@YAPAUservermap@@XZ 0044d570 f   server.obj
 0001:0004c5b0       ?calcmappenalties@servermaprot@@QAEXXZ 0044d5b0 f   server.obj
 0001:0004c780       ?poll_serverthreads@@YAXXZ 0044d780 f   server.obj
 0001:0004d090       ?pushvitasforsaving@@YA_N_N@Z 0044e090 f   server.obj
 0001:0004d2c0       ?readvitas@@YAHPBD@Z       0044e2c0 f   server.obj
 0001:0004d3e0       ?parsevitas@@YAHPADH@Z     0044e3e0 f   server.obj
 0001:0004d930       ?addcc@vita_s@@QAEXPBD@Z   0044e930 f   server.obj
 0001:0004d990       ?addip@vita_s@@QAEXI@Z     0044e990 f   server.obj
 0001:0004d9d0       ?addname@vita_s@@QAEXPBD@Z 0044e9d0 f   server.obj
 0001:0004da30       ?servparallfun@@YAXXZ      0044ea30 f   server.obj
 0001:0004da80       ?initserverparameter@@YAXPBD0@Z 0044ea80 f   server.obj
 0001:0004db20       ?initserverparameter@@YAXPBDH@Z 0044eb20 f   server.obj
 0001:0004db50       ?addservparstr@@YA_NPBDHHH0PAD1P6AXXZ_N30@Z 0044eb50 f   server.obj
 0001:0004dc10       ?addservparint@@YAHPBDHHHQAPBDPAH2P6AXXZ_N40@Z 0044ec10 f   server.obj
 0001:0004dcd0       ?findpattern@@YA_NPAD0@Z   0044ecd0 f   server.obj
 0001:0004ddd0       ?issimilar@@YA_NDD@Z       0044edd0 f   server.obj
 0001:0004de90       ?filter_use_hx_modeinfo@@YAXXZ 0044ee90 f   server.obj
 0001:0004dfc0       ?filterconfigset@@YAXPADPAX@Z 0044efc0 f   server.obj
 0001:0004e0f0       ?parse@configsetvalues@@QAE_NPAD@Z 0044f0f0 f   server.obj
 0001:0004e1f0       ?add@configsetvalues@@QAEXU1@@Z 0044f1f0 f   server.obj
 0001:0004e260       ?readserverconfigsthread@@YAHPAX@Z 0044f260 f   server.obj
 0001:0004e730       ?process@serverconfigfile@@QAEXXZ 0044f730 f   server.obj
 0001:0004e7f0       ?trypreload@serverconfigfile@@QAEXXZ 0044f7f0 f   server.obj
 0001:0004e890       ?isbusy@serverconfigfile@@QAE_NXZ 0044f890 f   server.obj
 0001:0004e8b0       ?load@serverconfigfile@@UAE_NXZ 0044f8b0 f   server.obj
 0001:0004ea00       ?init@serverconfigfile@@QAEXPBD_N@Z 0044fa00 f   server.obj
 0001:0004eae0       ?serverwritemap@@YA_NPBDHHHPAE@Z 0044fae0 f   server.obj
 0001:0004eca0       ?readmapsthread@@YAHPAX@Z  0044fca0 f   server.obj
 0001:0004f210       ?tagmapfile@@YAXPBD0H@Z    00450210 f   server.obj
 0001:0004f240       ?trymapfiles@@YAXPBD0H@Z   00450240 f   server.obj
 0001:0004f420       ?getmapfilenameindex@@YAHPBD0@Z 00450420 f   server.obj
 0001:0004f490       ?updateservermap@@YAXH_N@Z 00450490 f   server.obj
 0001:0004f570       ?servermapsortweight@@YAHPAPAUservermap@@0@Z 00450570 f   server.obj
 0001:0004f590       ?servermapsortname@@YAHPAPAUservermap@@0@Z 00450590 f   server.obj
 0001:0004f6c0       ?writevitas@@YAXPAUstream@@AAU?$vector@Uvitakey_s@@@@@Z 004506c0 f   server.obj
 0001:0004fa90       _main                      00450a90 f   server.obj
 0001:0004fcd0       ?flushmasterinput@@YAXXZ   00450cd0 f   serverms.obj
 0001:0004fec0       ?flushmasteroutput@@YAXXZ  00450ec0 f   serverms.obj
 0001:0004ff40       ?processmasterinput@@YAXXZ 00450f40 f   serverms.obj
 0001:000500d0       ?requestmasterf@@YA_NPBDZZ 004510d0 f   serverms.obj
 0001:00050280       ?requestmaster@@YA_NPBD@Z  00451280 f   serverms.obj
 0001:000503d0       ?connectmaster@@YAIXZ      004513d0 f   serverms.obj
 0001:000504c0       ?disconnectmaster@@YAXXZ   004514c0 f   serverms.obj
 0001:00050520       ?connectwithtimeout@@YAHIPBDAAU_ENetAddress@@@Z 00451520 f   serverms.obj
 0001:00050550       ?resolverwait@@YA_NPBDPAU_ENetAddress@@@Z 00451550 f   serverms.obj
 0001:00050570       ?serverms@@YAXHHHPADHABU_ENetAddress@@PAH22222HPBDH@Z 00451570 f   serverms.obj
 0001:00050d50       ?servermsinit@@YAX_N@Z     00451d50 f   serverms.obj
 0001:00050fe0       ??1makecert@@QAE@XZ        00451fe0 f   crypto.obj
 0001:00051010       ?ge25519_scalarmult_base@@YAXPAUge25519@@PBUsc25519@@@Z 00452010 f   crypto.obj
 0001:000512b0       ?ge25519_double_scalarmult_vartime@@YAXPAUge25519@@PBU1@PBUsc25519@@12@Z 004522b0 f   crypto.obj
 0001:00051e70       ?ge25519_pack@@YAXQAEPBUge25519@@@Z 00452e70 f   crypto.obj
 0001:00051fe0       ?ge25519_unpackneg_vartime@@YAHPAUge25519@@QBE@Z 00452fe0 f   crypto.obj
 0001:00052af0       ?sc25519_2interleave2@@YAXQAEPBUsc25519@@1@Z 00453af0 f   crypto.obj
 0001:00052be0       ?sc25519_window3@@YAXQACPBUsc25519@@@Z 00453be0 f   crypto.obj
 0001:00053050       ?sc25519_mul@@YAXPAUsc25519@@PBU1@1@Z 00454050 f   crypto.obj
 0001:000533e0       ?sc25519_add@@YAXPAUsc25519@@PBU1@1@Z 004543e0 f   crypto.obj
 0001:00053610       ?sc25519_to32bytes@@YAXQAEPBUsc25519@@@Z 00454610 f   crypto.obj
 0001:00053680       ?sc25519_from64bytes@@YAXPAUsc25519@@QBE@Z 00454680 f   crypto.obj
 0001:00053920       ?sc25519_from32bytes@@YAXPAUsc25519@@QBE@Z 00454920 f   crypto.obj
 0001:00053f60       ?fe25519_pow2523@@YAXPAUfe25519@@PBU1@@Z 00454f60 f   crypto.obj
 0001:00054250       ?fe25519_invert@@YAXPAUfe25519@@PBU1@@Z 00455250 f   crypto.obj
 0001:000546e0       ?fe25519_square@@YAXPAUfe25519@@PBU1@@Z 004556e0 f   crypto.obj
 0001:000546f0       ?fe25519_mul@@YAXPAUfe25519@@PBU1@1@Z 004556f0 f   crypto.obj
 0001:00054920       ?fe25519_sub@@YAXPAUfe25519@@PBU1@1@Z 00455920 f   crypto.obj
 0001:00054ac0       ?fe25519_add@@YAXPAUfe25519@@PBU1@1@Z 00455ac0 f   crypto.obj
 0001:00054bd0       ?fe25519_neg@@YAXPAUfe25519@@PBU1@@Z 00455bd0 f   crypto.obj
 0001:00054e00       ?fe25519_setzero@@YAXPAUfe25519@@@Z 00455e00 f   crypto.obj
 0001:00054e30       ?fe25519_setone@@YAXPAUfe25519@@@Z 00455e30 f   crypto.obj
 0001:00054e70       ?fe25519_getparity@@YAEPBUfe25519@@@Z 00455e70 f   crypto.obj
 0001:00054ec0       ?fe25519_cmov@@YAXPAUfe25519@@PBU1@E@Z 00455ec0 f   crypto.obj
 0001:00054f50       ?fe25519_iseq_vartime@@YAHPBUfe25519@@0@Z 00455f50 f   crypto.obj
 0001:00054ff0       ?fe25519_pack@@YAXQAEPBUfe25519@@@Z 00455ff0 f   crypto.obj
 0001:000550f0       ?fe25519_unpack@@YAXPAUfe25519@@QBE@Z 004560f0 f   crypto.obj
 0001:00055180       ?fe25519_freeze@@YAXPAUfe25519@@@Z 00456180 f   crypto.obj
 0001:00055320       ?entropy_get@@YAXPAEH@Z    00456320 f   crypto.obj
 0001:00055460       ?seedMT@@YAXI@Z            00456460 f   crypto.obj
 0001:000554b0       ?seedMT_do@@YAXIPAII@Z     004564b0 f   crypto.obj
 0001:000554e0       ?sha512@@YAXPAEPBEH@Z      004564e0 f   crypto.obj
 0001:00055710       ?sha512_compress@@YAXPA_KPBE@Z 00456710 f   crypto.obj
 0001:000564c0       ?hash@tiger@@YAXPBEHAAThashval@1@@Z 004574c0 f   crypto.obj
 0001:00056640       ?hash_finish@tiger@@YAXAAThashval@1@PAUincremental_buffer@1@@Z 00457640 f   crypto.obj
 0001:00056710       ?hash_incremental@tiger@@YAXPBEHAAThashval@1@PAUincremental_buffer@1@@Z 00457710 f   crypto.obj
 0001:000567a0       ?hash_init@tiger@@YAPAUincremental_buffer@1@AAThashval@1@@Z 004577a0 f   crypto.obj
 0001:00056800       ?gensboxes@tiger@@YAXXZ    00457800 f   crypto.obj
 0001:00056a00       ?compress@tiger@@YAXPB_KQA_K@Z 00457a00 f   crypto.obj
 0001:00057460       ?genpwdhash@@YAPBDPBD0H@Z  00458460 f   crypto.obj
 0001:000575d0       ?entropy_init@@YAXI@Z      004585d0 f   crypto.obj
 0001:00057820       ?ed25519_sign_check@@YAPAEPAEHPBE@Z 00458820 f   crypto.obj
 0001:00057950       ?tigerhash@@YAXPAEPBEH@Z   00458950 f   crypto.obj
 0001:00057960       ?hex2bin@@YAHPAEPBDH@Z     00458960 f   crypto.obj
 0001:000579e0       ?tigerhash_add@@YAXPAEPBXHPAX@Z 004589e0 f   crypto.obj
 0001:00057a80       ?bin2hex@@YAPBDPADPBEH@Z   00458a80 f   crypto.obj
 0001:00057ad0       ?tigerhash_init@@YAPAXPAE@Z 00458ad0 f   crypto.obj
 0001:00057b30       ?entropy_save@@YAXXZ       00458b30 f   crypto.obj
 0001:00057bb0       ?entropy_add_block@@YAXPBEH@Z 00458bb0 f   crypto.obj
 0001:00057cd0       ?ed25519_pubkey_from_private@@YAXPAEPBE@Z 00458cd0 f   crypto.obj
 0001:00057d60       ?ed25519_sign@@YAXPAEPAHPBEH2@Z 00458d60 f   crypto.obj
 0001:00057f90       ?tigerhash_finish@@YAXPAEPAX@Z 00458f90 f   crypto.obj
 0001:00057fb0       ?randomMT@@YAIXZ           00458fb0 f   crypto.obj
 0001:000580a0       ?entropy_add_byte@@YAXE@Z  004590a0 f   crypto.obj
 0001:00058110       ?logworkerthread@@YAHPAX@Z 00459110 f   log.obj
 0001:00058360       ?mlog@@YAXHPBDZZ           00459360 f   log.obj
 0001:00058460       ?tlog@@YAXHPBDZZ           00459460 f   log.obj
 0001:000585a0       ?poll_logbuffers@@YAXXZ    004595a0 f   log.obj
 0001:00058780       ?xlog@@YAXHPBDZZ           00459780 f   log.obj
 0001:00058970       ?initlogging@@YA_NPBDHHHH_N0@Z 00459970 f   log.obj
 0001:00058d70       ?exitlogging@@YAXXZ        00459d70 f   log.obj
 0001:00058dc0       ?logcheck@@YA_NH@Z         00459dc0 f   log.obj
 0001:00058e00       ?openrawfile@@YAPAUstream@@PBD0@Z 00459e00 f   stream.obj
 0001:00058e60       ?getline@stream@@UAE_NPADH@Z 00459e60 f   stream.obj
 0001:00058ed0       ?size@stream@@UAEJXZ       00459ed0 f   stream.obj
 0001:00058f20       ?listdir@@YA_NPBD0AAU?$vector@PAD@@@Z 00459f20 f   stream.obj
 0001:00059080       ?findfile@@YAPBDPBD0@Z     0045a080 f   stream.obj
 0001:000592b0       ?createdir@@YA_NPBD@Z      0045a2b0 f   stream.obj
 0001:00059300       ?behindpath@@YAPBDPBD@Z    0045a300 f   stream.obj
 0001:00059330       ?fileexists@@YA_NPBD0@Z    0045a330 f   stream.obj
 0001:00059360       ?opengzfile@@YAPAUstream@@PBD0PAU1@H@Z 0045a360 f   stream.obj
 0001:00059430       ?listfiles@@YAXPBD0AAU?$vector@PAD@@P6AHPAPBD2@Z@Z 0045a430 f   stream.obj
 0001:00059590       ?openfile@@YAPAUstream@@PBD0@Z 0045a590 f   stream.obj
 0001:000595f0       ?loadfile@@YAPADPBDPAH0@Z  0045a5f0 f   stream.obj
 0001:00059680       ?openvecfile@@YAPAUstream@@PAU?$vector@E@@_N@Z 0045a680 f   stream.obj
 0001:000596d0       ?getfilesize@@YAHPBD@Z     0045a6d0 f   stream.obj
 0001:00059750       ?parentdir@@YAPBDPBD@Z     0045a750 f   stream.obj
 0001:000597a0       ?backup@@YAXPAD0@Z         0045a7a0 f   stream.obj
 0001:00059820       ?path@@YAPADPAD@Z          0045a820 f   stream.obj
 0001:000599b0       ?cvecconcat@@YAHAAU?$vector@D@@PBD@Z 0045a9b0 f   tools.obj
 0001:00059a00       ?stringsortignorecase@@YAHPAPBD0@Z 0045aa00 f   tools.obj
 0001:00059a20       ?cmpintdesc@@YAHPBH0@Z     0045aa20 f   tools.obj
 0001:00059a60       ?cvecprintf@@YAHAAU?$vector@D@@PBDZZ 0045aa60 f   tools.obj
 0001:00059b00       ?asctimestr@@YAPBDXZ       0045ab00 f   tools.obj
 0001:00059b50       ?transformoldentitytypes@@YAXHAAE@Z 0045ab50 f   tools.obj
 0001:00059b80       ?cmpiprange@@YAHPBUiprange@@0@Z 0045ab80 f   tools.obj
 0001:00059ba0       ?numtime@@YAPBDXZ          0045aba0 f   tools.obj
 0001:00059c00       ?strtoupper@@YAXPADPBD@Z   0045ac00 f   tools.obj
 0001:00059c30       ?strtok_r@@YAPADPADPBDPAPAD@Z 0045ac30 f   tools.obj
 0001:00059c80       ?sl_createthread@@YAPAXP6AHPAX@Z0PBD@Z 0045ac80 f   tools.obj
 0001:00059cc0       ?stringsort@@YAHPAPBD0@Z   0045acc0 f   tools.obj
 0001:00059d00       ?formatdemofilename@@YAPADPBD00HHHHIPAD@Z 0045ad00 f   tools.obj
 0001:0005a390       ?cmpintasc@@YAHPBH0@Z      0045b390 f   tools.obj
 0001:0005a3a0       ?post@sl_semaphore@@QAEXXZ 0045b3a0 f   tools.obj
 0001:0005a3c0       ?getvalue@sl_semaphore@@QAEHXZ 0045b3c0 f   tools.obj
 0001:0005a3d0       ?timedwait@sl_semaphore@@QAEHH@Z 0045b3d0 f   tools.obj
 0001:0005a3f0       ?trywait@sl_semaphore@@QAEHXZ 0045b3f0 f   tools.obj
 0001:0005a400       ?wait@sl_semaphore@@QAEXXZ 0045b400 f   tools.obj
 0001:0005a420       ??1sl_semaphore@@QAE@XZ    0045b420 f   tools.obj
 0001:0005a430       ??0sl_semaphore@@QAE@HPAH@Z 0045b430 f   tools.obj
 0001:0005a460       ?getlistindex@@YAHPBDQAPBD_NH@Z 0045b460 f   tools.obj
 0001:0005a4a0       ?cmpipmatch@@YAHPBUiprange@@0@Z 0045b4a0 f   tools.obj
 0001:0005a4c0       ?calcmapdims@@YAHAAUmapdim_s@@PBUservsqr@@H@Z 0045b4c0 f   tools.obj
 0001:0005a610       ?ismainthread@@YA_NXZ      0045b610 f   tools.obj
 0001:0005a620       ?stackdumper@@YAXIPAU_EXCEPTION_POINTERS@@@Z 0045b620 f   tools.obj
 0001:0005a870       ?timestring@@YAPBD_J_NPBDPAD@Z 0045b870 f   tools.obj
 0001:0005a8c0       ?iprtoa@@YAPBDABUiprange@@PAD@Z 0045b8c0 f   tools.obj
 0001:0005a950       ?atoipr@@YAPBDPBDPAUiprange@@@Z 0045b950 f   tools.obj
 0001:0005aa00       ?hiddenpwd@@YAPBDPBDH@Z    0045ba00 f   tools.obj
 0001:0005aa60       ?peekmapheader@@YAPAUheader@@PAEH@Z 0045ba60 f   tools.obj
 0001:0005aae0       ?atoip@@YAPBDPBDPAI@Z      0045bae0 f   tools.obj
 0001:0005abb0       ?calcmapareastats@@YAHAAUmapareastats_s@@PAUservsqr@@HABUmapdim_s@@@Z 0045bbb0 f   tools.obj
 0001:0005b410       ?calcentitystats@@YAXAAUentitystats_s@@PBUpersistent_entity@@H@Z 0045c410 f   tools.obj
 0001:0005b800       ?fixmapheadersize@@YAHHH@Z 0045c800 f   tools.obj
 0001:0005b830       ?iptoa@@YAPBDIPAD@Z        0045c830 f   tools.obj
 0001:0005b870       ?concatformatstring@@YAPADPADPBDZZ 0045c870 f   tools.obj
 0001:0005bc30       ?wizardmain@@YAHHPAPAD@Z   0045cc30 f   wizard.obj
 0001:0005d130       ?gmode_possible@@YAH_N00@Z 0045e130 f   protocol1.obj
 0001:0005d170       ?acronymmodestr@@YAPBDH@Z  0045e170 f   protocol1.obj
 0001:0005d190       ?fullmodestr@@YAPBDH@Z     0045e190 f   protocol1.obj
 0001:0005d1b0       ?getstring@@YAXPADAAU?$databuf@E@@H@Z 0045e1b0 f   protocol1.obj
 0001:0005d290       ?decodeyaw@@YAMH@Z         0045e290 f   protocol1.obj
 0001:0005d2b0       ?getuintn@@YA_KAAU?$databuf@E@@H@Z 0045e2b0 f   protocol1.obj
 0001:0005d3c0       ?getip4@@YAIAAU?$databuf@E@@@Z 0045e3c0 f   protocol1.obj
 0001:0005d470       ?getuint@@YAHAAU?$databuf@E@@@Z 0045e470 f   protocol1.obj
 0001:0005d540       ?disc_reason@@YAPBDH@Z     0045e540 f   protocol1.obj
 0001:0005d610       ?msgsizelookup@@YAHH@Z     0045e610 f   protocol1.obj
 0001:0005d670       ?mmfullname@@YAPBDH@Z      0045e670 f   protocol1.obj
 0001:0005d690       ?gmode_parse@@YAHPBD@Z     0045e690 f   protocol1.obj
 0001:0005d770       ?putint@@YAXAAU?$databuf@E@@H@Z 0045e770 f   protocol1.obj
 0001:0005d780       ?putint@@YAXAAUpacketbuf@@H@Z 0045e780 f   protocol1.obj
 0001:0005d850       ?putint@@YAXAAU?$vector@E@@H@Z 0045e850 f   protocol1.obj
 0001:0005d860       ?putuint@@YAXAAUpacketbuf@@H@Z 0045e860 f   protocol1.obj
 0001:0005d940       ?putuint@@YAXAAU?$vector@E@@H@Z 0045e940 f   protocol1.obj
 0001:0005d950       ?putip4@@YAXAAUpacketbuf@@I@Z 0045e950 f   protocol1.obj
 0001:0005d9b0       ?putaint@@YAXAAUpacketbuf@@H@Z 0045e9b0 f   protocol1.obj
 0001:0005da90       ?sendstring@@YAXPBDAAU?$databuf@E@@@Z 0045ea90 f   protocol1.obj
 0001:0005dac0       ?sendstring@@YAXPBDAAUpacketbuf@@@Z 0045eac0 f   protocol1.obj
 0001:0005daf0       ?sendstring@@YAXPBDAAU?$vector@E@@@Z 0045eaf0 f   protocol1.obj
 0001:0005db20       ?validmapname@@YA_NPBD@Z   0045eb20 f   protocol1.obj
 0001:0005dc00       ?escapestring@@YAPBDPBD_N1PAU?$vector@D@@@Z 0045ec00 f   protocol1.obj
 0001:0005df20       ?decodepitch@@YAMH@Z       0045ef20 f   protocol1.obj
 0001:0005df80       ?gmode_enum@@YAPADHPAD@Z   0045ef80 f   protocol1.obj
 0001:0005e0c0       ?getgzbuf@@YAPAU?$databuf@E@@AAU1@@Z 0045f0c0 f   protocol1.obj
 0001:0005e1b0       ?voteerrorstr@@YAPBDH@Z    0045f1b0 f   protocol1.obj
 0001:0005e1d0       ?getint@@YAHAAU?$databuf@E@@@Z 0045f1d0 f   protocol1.obj
 0001:0005e2f0       ?defaultgamelimit@@YAHH@Z  0045f2f0 f   protocol1.obj
 0001:0005e340       ?lastclactionslookup@@YAHH@Z 0045f340 f   protocol1.obj
 0001:0005e360       ?filterrichtext@@YAXPADPBDH@Z 0045f360 f   protocol1.obj
 0001:0005e510       ?filtertext@@YAPADPADPBDHH@Z 0045f510 f   protocol1.obj
 0001:0005e8d0       ?filtercountrycode@@YAXPADPBD@Z 0045f8d0 f   protocol1.obj
 0001:0005e940       ?filterlang@@YAXPADPBD@Z   0045f940 f   protocol1.obj
 0001:0005e9a0       ?modestr@@YAPBDH_N@Z       0045f9a0 f   protocol1.obj
 0001:0005e9e0       ?freegzbuf@@YAXPAU?$databuf@E@@@Z 0045f9e0 f   protocol1.obj
 0001:0005ea00       _memchr                    0045fa00 f   libvcruntime:memchr.obj
 0001:0005eab0       __libm_sse2_sqrt_precise   0045fab0 f   libucrt:sqrt_sse2_precise.obj
 0001:0005ebb0       _sqrt                      0045fbb0 f   libucrt:sqrt.obj
 0001:0005ebc0       __CIsqrt                   0045fbc0 f   libucrt:sqrt_impl.obj
 0001:0005ebd4       __sqrt_common              0045fbd4     libucrt:sqrt_impl.obj
 0002:00000000       __imp__CreateServiceA@52   00461000     advapi32:ADVAPI32.dll
 0002:00000004       __imp__CloseServiceHandle@4 00461004     advapi32:ADVAPI32.dll
 0002:00000008       __imp__OpenSCManagerA@12   00461008     advapi32:ADVAPI32.dll
 0002:0000000c       __imp__OpenServiceA@12     0046100c     advapi32:ADVAPI32.dll
 0002:00000010       __imp__StartServiceCtrlDispatcherA@4 00461010     advapi32:ADVAPI32.dll
 0002:00000014       __imp__SetServiceStatus@8  00461014     advapi32:ADVAPI32.dll
 0002:00000018       __imp__RegisterServiceCtrlHandlerA@8 00461018     advapi32:ADVAPI32.dll
 0002:0000001c       \177ADVAPI32_NULL_THUNK_DATA 0046101c     advapi32:ADVAPI32.dll
 0002:00000020       __imp__GetEnvironmentStringsW@0 00461020     kernel32:KERNEL32.dll
 0002:00000024       __imp__GetCPInfo@8         00461024     kernel32:KERNEL32.dll
 0002:00000028       __imp__GetOEMCP@0          00461028     kernel32:KERNEL32.dll
 0002:0000002c       __imp__GetACP@0            0046102c     kernel32:KERNEL32.dll
 0002:00000030       __imp__IsValidCodePage@4   00461030     kernel32:KERNEL32.dll
 0002:00000034       __imp__FindNextFileW@8     00461034     kernel32:KERNEL32.dll
 0002:00000038       __imp__FindFirstFileExW@24 00461038     kernel32:KERNEL32.dll
 0002:0000003c       __imp__SetStdHandle@8      0046103c     kernel32:KERNEL32.dll
 0002:00000040       __imp__GetCurrentDirectoryW@8 00461040     kernel32:KERNEL32.dll
 0002:00000044       __imp__GetFileAttributesExW@12 00461044     kernel32:KERNEL32.dll
 0002:00000048       __imp__CreateProcessW@40   00461048     kernel32:KERNEL32.dll
 0002:0000004c       __imp__GetExitCodeProcess@8 0046104c     kernel32:KERNEL32.dll
 0002:00000050       __imp__GetTimeZoneInformation@4 00461050     kernel32:KERNEL32.dll
 0002:00000054       __imp__WideCharToMultiByte@32 00461054     kernel32:KERNEL32.dll
 0002:00000058       __imp__MoveFileExW@12      00461058     kernel32:KERNEL32.dll
 0002:0000005c       __imp__FlushFileBuffers@4  0046105c     kernel32:KERNEL32.dll
 0002:00000060       __imp__ReadConsoleW@20     00461060     kernel32:KERNEL32.dll
 0002:00000064       __imp__SetFilePointerEx@20 00461064     kernel32:KERNEL32.dll
 0002:00000068       __imp__GetFileSizeEx@8     00461068     kernel32:KERNEL32.dll
 0002:0000006c       __imp__GetConsoleMode@8    0046106c     kernel32:KERNEL32.dll
 0002:00000070       __imp__GetConsoleOutputCP@0 00461070     kernel32:KERNEL32.dll
 0002:00000074       __imp__DeleteFileW@4       00461074     kernel32:KERNEL32.dll
 0002:00000078       __imp__MultiByteToWideChar@24 00461078     kernel32:KERNEL32.dll
 0002:0000007c       __imp__GetFileType@4       0046107c     kernel32:KERNEL32.dll
 0002:00000080       __imp__EnumSystemLocalesW@8 00461080     kernel32:KERNEL32.dll
 0002:00000084       __imp__GetUserDefaultLCID@0 00461084     kernel32:KERNEL32.dll
 0002:00000088       __imp__IsValidLocale@8     00461088     kernel32:KERNEL32.dll
 0002:0000008c       __imp__GetLocaleInfoW@16   0046108c     kernel32:KERNEL32.dll
 0002:00000090       __imp__LCMapStringW@24     00461090     kernel32:KERNEL32.dll
 0002:00000094       __imp__CompareStringW@24   00461094     kernel32:KERNEL32.dll
 0002:00000098       __imp__FreeEnvironmentStringsW@4 00461098     kernel32:KERNEL32.dll
 0002:0000009c       __imp__GetDateFormatW@24   0046109c     kernel32:KERNEL32.dll
 0002:000000a0       __imp__HeapFree@12         004610a0     kernel32:KERNEL32.dll
 0002:000000a4       __imp__HeapAlloc@12        004610a4     kernel32:KERNEL32.dll
 0002:000000a8       __imp__GetCommandLineW@0   004610a8     kernel32:KERNEL32.dll
 0002:000000ac       __imp__GetCommandLineA@0   004610ac     kernel32:KERNEL32.dll
 0002:000000b0       __imp__WriteFile@20        004610b0     kernel32:KERNEL32.dll
 0002:000000b4       __imp__GetStdHandle@4      004610b4     kernel32:KERNEL32.dll
 0002:000000b8       __imp__GetModuleFileNameW@12 004610b8     kernel32:KERNEL32.dll
 0002:000000bc       __imp__GetFullPathNameW@16 004610bc     kernel32:KERNEL32.dll
 0002:000000c0       __imp__GetDriveTypeW@4     004610c0     kernel32:KERNEL32.dll
 0002:000000c4       __imp__FreeLibraryAndExitThread@8 004610c4     kernel32:KERNEL32.dll
 0002:000000c8       __imp__ExitThread@4        004610c8     kernel32:KERNEL32.dll
 0002:000000cc       __imp__CreateThread@24     004610cc     kernel32:KERNEL32.dll
 0002:000000d0       __imp__ReadFile@20         004610d0     kernel32:KERNEL32.dll
 0002:000000d4       __imp__SetPriorityClass@8  004610d4     kernel32:KERNEL32.dll
 0002:000000d8       __imp__GetCurrentProcess@0 004610d8     kernel32:KERNEL32.dll
 0002:000000dc       __imp__WaitForSingleObject@8 004610dc     kernel32:KERNEL32.dll
 0002:000000e0       __imp__SetCurrentDirectoryA@4 004610e0     kernel32:KERNEL32.dll
 0002:000000e4       __imp__SetEvent@4          004610e4     kernel32:KERNEL32.dll
 0002:000000e8       __imp__CloseHandle@4       004610e8     kernel32:KERNEL32.dll
 0002:000000ec       __imp__CreateEventA@16     004610ec     kernel32:KERNEL32.dll
 0002:000000f0       __imp__FindFirstFileA@8    004610f0     kernel32:KERNEL32.dll
 0002:000000f4       __imp__FindNextFileA@8     004610f4     kernel32:KERNEL32.dll
 0002:000000f8       __imp__FindClose@4         004610f8     kernel32:KERNEL32.dll
 0002:000000fc       __imp__GetFileAttributesA@4 004610fc     kernel32:KERNEL32.dll
 0002:00000100       __imp__CreateDirectoryA@8  00461100     kernel32:KERNEL32.dll
 0002:00000104       __imp__GetCurrentThread@0  00461104     kernel32:KERNEL32.dll
 0002:00000108       __imp__GetLastError@0      00461108     kernel32:KERNEL32.dll
 0002:0000010c       __imp__SetConsoleCtrlHandler@8 0046110c     kernel32:KERNEL32.dll
 0002:00000110       __imp__SetEnvironmentVariableW@8 00461110     kernel32:KERNEL32.dll
 0002:00000114       __imp__GetProcessHeap@0    00461114     kernel32:KERNEL32.dll
 0002:00000118       __imp__GetStringTypeW@16   00461118     kernel32:KERNEL32.dll
 0002:0000011c       __imp__CreateFileW@28      0046111c     kernel32:KERNEL32.dll
 0002:00000120       __imp__HeapSize@12         00461120     kernel32:KERNEL32.dll
 0002:00000124       __imp__HeapReAlloc@16      00461124     kernel32:KERNEL32.dll
 0002:00000128       __imp__SetEndOfFile@4      00461128     kernel32:KERNEL32.dll
 0002:0000012c       __imp__WriteConsoleW@20    0046112c     kernel32:KERNEL32.dll
 0002:00000130       __imp__GetTimeFormatW@24   00461130     kernel32:KERNEL32.dll
 0002:00000134       __imp__SetUnhandledExceptionFilter@4 00461134     kernel32:KERNEL32.dll
 0002:00000138       __imp__ReleaseSRWLockExclusive@4 00461138     kernel32:KERNEL32.dll
 0002:0000013c       __imp__AcquireSRWLockExclusive@4 0046113c     kernel32:KERNEL32.dll
 0002:00000140       __imp__WakeAllConditionVariable@4 00461140     kernel32:KERNEL32.dll
 0002:00000144       __imp__SleepConditionVariableSRW@16 00461144     kernel32:KERNEL32.dll
 0002:00000148       __imp__UnhandledExceptionFilter@4 00461148     kernel32:KERNEL32.dll
 0002:0000014c       __imp__DecodePointer@4     0046114c     kernel32:KERNEL32.dll
 0002:00000150       __imp__TerminateProcess@8  00461150     kernel32:KERNEL32.dll
 0002:00000154       __imp__IsProcessorFeaturePresent@4 00461154     kernel32:KERNEL32.dll
 0002:00000158       __imp__IsDebuggerPresent@0 00461158     kernel32:KERNEL32.dll
 0002:0000015c       __imp__GetStartupInfoW@4   0046115c     kernel32:KERNEL32.dll
 0002:00000160       __imp__GetModuleHandleW@4  00461160     kernel32:KERNEL32.dll
 0002:00000164       __imp__QueryPerformanceCounter@4 00461164     kernel32:KERNEL32.dll
 0002:00000168       __imp__GetCurrentProcessId@0 00461168     kernel32:KERNEL32.dll
 0002:0000016c       __imp__GetCurrentThreadId@0 0046116c     kernel32:KERNEL32.dll
 0002:00000170       __imp__GetSystemTimeAsFileTime@4 00461170     kernel32:KERNEL32.dll
 0002:00000174       __imp__InitializeSListHead@4 00461174     kernel32:KERNEL32.dll
 0002:00000178       __imp__RaiseException@16   00461178     kernel32:KERNEL32.dll
 0002:0000017c       __imp__RtlUnwind@16        0046117c     kernel32:KERNEL32.dll
 0002:00000180       __imp__SetLastError@4      00461180     kernel32:KERNEL32.dll
 0002:00000184       __imp__EnterCriticalSection@4 00461184     kernel32:KERNEL32.dll
 0002:00000188       __imp__LeaveCriticalSection@4 00461188     kernel32:KERNEL32.dll
 0002:0000018c       __imp__DeleteCriticalSection@4 0046118c     kernel32:KERNEL32.dll
 0002:00000190       __imp__InitializeCriticalSectionAndSpinCount@8 00461190     kernel32:KERNEL32.dll
 0002:00000194       __imp__TlsAlloc@0          00461194     kernel32:KERNEL32.dll
 0002:00000198       __imp__TlsGetValue@4       00461198     kernel32:KERNEL32.dll
 0002:0000019c       __imp__TlsSetValue@8       0046119c     kernel32:KERNEL32.dll
 0002:000001a0       __imp__TlsFree@4           004611a0     kernel32:KERNEL32.dll
 0002:000001a4       __imp__FreeLibrary@4       004611a4     kernel32:KERNEL32.dll
 0002:000001a8       __imp__GetProcAddress@8    004611a8     kernel32:KERNEL32.dll
 0002:000001ac       __imp__LoadLibraryExW@12   004611ac     kernel32:KERNEL32.dll
 0002:000001b0       __imp__EncodePointer@4     004611b0     kernel32:KERNEL32.dll
 0002:000001b4       __imp__ExitProcess@4       004611b4     kernel32:KERNEL32.dll
 0002:000001b8       __imp__GetModuleHandleExW@12 004611b8     kernel32:KERNEL32.dll
 0002:000001bc       \177KERNEL32_NULL_THUNK_DATA 004611bc     kernel32:KERNEL32.dll
 0002:000001c0       __imp__SDL_SemTryWait      004611c0     SDL2:SDL2.dll
 0002:000001c4       __imp__SDL_SemPost         004611c4     SDL2:SDL2.dll
 0002:000001c8       __imp__SDL_SemWait         004611c8     SDL2:SDL2.dll
 0002:000001cc       __imp__SDL_DestroySemaphore 004611cc     SDL2:SDL2.dll
 0002:000001d0       __imp__SDL_ThreadID        004611d0     SDL2:SDL2.dll
 0002:000001d4       __imp__SDL_CreateSemaphore 004611d4     SDL2:SDL2.dll
 0002:000001d8       __imp__SDL_SemWaitTimeout  004611d8     SDL2:SDL2.dll
 0002:000001dc       __imp__SDL_CreateThread    004611dc     SDL2:SDL2.dll
 0002:000001e0       __imp__SDL_SemValue        004611e0     SDL2:SDL2.dll
 0002:000001e4       \177SDL2_NULL_THUNK_DATA   004611e4     SDL2:SDL2.dll
 0002:000001e8       __imp__timeGetTime@0       004611e8     winmm:WINMM.dll
 0002:000001ec       __imp__timeEndPeriod@4     004611ec     winmm:WINMM.dll
 0002:000001f0       __imp__timeBeginPeriod@4   004611f0     winmm:WINMM.dll
 0002:000001f4       \177WINMM_NULL_THUNK_DATA  004611f4     winmm:WINMM.dll
 0002:000001f8       __imp__shutdown@8          004611f8     ws2_32:WS2_32.dll
 0002:000001fc       __imp__ntohs@4             004611fc     ws2_32:WS2_32.dll
 0002:00000200       __imp__accept@12           00461200     ws2_32:WS2_32.dll
 0002:00000204       __imp__closesocket@4       00461204     ws2_32:WS2_32.dll
 0002:00000208       __imp__connect@12          00461208     ws2_32:WS2_32.dll
 0002:0000020c       __imp__ioctlsocket@12      0046120c     ws2_32:WS2_32.dll
 0002:00000210       __imp__setsockopt@20       00461210     ws2_32:WS2_32.dll
 0002:00000214       __imp__socket@12           00461214     ws2_32:WS2_32.dll
 0002:00000218       __imp__listen@8            00461218     ws2_32:WS2_32.dll
 0002:0000021c       __imp__WSASendTo@36        0046121c     ws2_32:WS2_32.dll
 0002:00000220       __imp__htons@4             00461220     ws2_32:WS2_32.dll
 0002:00000224       __imp__gethostbyaddr@12    00461224     ws2_32:WS2_32.dll
 0002:00000228       __imp__inet_ntoa@4         00461228     ws2_32:WS2_32.dll
 0002:0000022c       __imp__inet_addr@4         0046122c     ws2_32:WS2_32.dll
 0002:00000230       __imp__gethostbyname@4     00461230     ws2_32:WS2_32.dll
 0002:00000234       __imp__WSACleanup@0        00461234     ws2_32:WS2_32.dll
 0002:00000238       __imp__WSAStartup@8        00461238     ws2_32:WS2_32.dll
 0002:0000023c       __imp____WSAFDIsSet@8      0046123c     ws2_32:WS2_32.dll
 0002:00000240       __imp__ntohl@4             00461240     ws2_32:WS2_32.dll
 0002:00000244       __imp__htonl@4             00461244     ws2_32:WS2_32.dll
 0002:00000248       __imp__WSARecvFrom@36      00461248     ws2_32:WS2_32.dll
 0002:0000024c       __imp__select@20           0046124c     ws2_32:WS2_32.dll
 0002:00000250       __imp__bind@12             00461250     ws2_32:WS2_32.dll
 0002:00000254       __imp__WSAGetLastError@0   00461254     ws2_32:WS2_32.dll
 0002:00000258       \177WS2_32_NULL_THUNK_DATA 00461258     ws2_32:WS2_32.dll
 0002:0000025c       __imp__SymGetLineFromAddr@16 0046125c     Dbghelp:dbghelp.dll
 0002:00000260       __imp__SymFunctionTableAccess@8 00461260     Dbghelp:dbghelp.dll
 0002:00000264       __imp__SymGetModuleBase@8  00461264     Dbghelp:dbghelp.dll
 0002:00000268       __imp__SymInitialize@12    00461268     Dbghelp:dbghelp.dll
 0002:0000026c       __imp__StackWalk@36        0046126c     Dbghelp:dbghelp.dll
 0002:00000270       __imp__SymGetSymFromAddr@16 00461270     Dbghelp:dbghelp.dll
 0002:00000274       \177dbghelp_NULL_THUNK_DATA 00461274     Dbghelp:dbghelp.dll
 0002:00000278       __imp__compress2           00461278     zdll:zlib1.dll
 0002:0000027c       __imp__deflate             0046127c     zdll:zlib1.dll
 0002:00000280       __imp__crc32               00461280     zdll:zlib1.dll
 0002:00000284       __imp__deflateEnd          00461284     zdll:zlib1.dll
 0002:00000288       __imp__inflateReset        00461288     zdll:zlib1.dll
 0002:0000028c       __imp__deflateInit2_       0046128c     zdll:zlib1.dll
 0002:00000290       __imp__inflateInit2_       00461290     zdll:zlib1.dll
 0002:00000294       __imp__inflate             00461294     zdll:zlib1.dll
 0002:00000298       __imp__inflateEnd          00461298     zdll:zlib1.dll
 0002:0000029c       __imp__uncompress          0046129c     zdll:zlib1.dll
 0002:000002a0       \177zlib1_NULL_THUNK_DATA  004612a0     zdll:zlib1.dll
 0002:000002a4       ___guard_check_icall_fptr  004612a4     LIBCMT:guard_support.obj
 0002:000002a8       ___castguard_check_failure_os_handled_fptr 004612a8     LIBCMT:guard_support.obj
 0002:000002ac       ___xc_a                    004612ac     LIBCMT:initializers.obj
 0002:000003a8       ___xc_z                    004613a8     LIBCMT:initializers.obj
 0002:000003ac       ___xi_a                    004613ac     LIBCMT:initializers.obj
 0002:000003b8       ___acrt_stdio_initializer  004613b8     libucrt:stdio_initializer.obj
 0002:000003bc       ___acrt_timeset_initializer 004613bc     libucrt:timeset_initializer.obj
 0002:000003c0       ___acrt_multibyte_initializer 004613c0     libucrt:multibyte_initializer.obj
 0002:000003c4       ___acrt_fmode_initializer  004613c4     libucrt:fmode_initializer.obj
 0002:000003c8       ___acrt_tran_sse2_initializer 004613c8     libucrt:sse2_initializer.obj
 0002:000003cc       ___xi_z                    004613cc     LIBCMT:initializers.obj
 0002:000003d0       ___xl_a                    004613d0     LIBCMT:tlssup.obj
 0002:000003d4       ___xl_z                    004613d4     LIBCMT:tlssup.obj
 0002:000003d8       ___xp_a                    004613d8     LIBCMT:initializers.obj
 0002:000003dc       ___acrt_locale_terminator  004613dc     libucrt:locale_initializer.obj
 0002:000003e0       ___dcrt_console_output_terminator 004613e0     libucrt:console_output_initializer.obj
 0002:000003e4       ___acrt_stdio_terminator   004613e4     libucrt:stdio_initializer.obj
 0002:000003e8       ___xp_z                    004613e8     LIBCMT:initializers.obj
 0002:000003ec       ___xt_a                    004613ec     LIBCMT:initializers.obj
 0002:000003f0       ___xt_z                    004613f0     LIBCMT:initializers.obj
 0002:0000052c       ??_7type_info@@6B@         0046152c     LIBCMT:std_type_info_static.obj
 0002:00000534       ??_7exception@std@@6B@     00461534     LIBCMT:throw_bad_alloc.obj
 0002:0000053c       ??_C@_0BC@EOODALEL@Unknown?5exception@ 0046153c     LIBCMT:throw_bad_alloc.obj
 0002:00000554       ??_7bad_alloc@std@@6B@     00461554     LIBCMT:throw_bad_alloc.obj
 0002:0000055c       ??_C@_0P@GHFPNOJB@bad?5allocation@ 0046155c     LIBCMT:throw_bad_alloc.obj
 0002:00000570       ??_7bad_array_new_length@std@@6B@ 00461570     LIBCMT:throw_bad_alloc.obj
 0002:00000578       ??_C@_0BF@KINCDENJ@bad?5array?5new?5length@ 00461578     LIBCMT:throw_bad_alloc.obj
 0002:00000590       __pDestructExceptionObject 00461590     libvcruntime:ehhelpers.obj
 0002:00000920       ??_C@_08EHJDFFNH@__based?$CI@ 00461920     libvcruntime:undname.obj
 0002:0000092c       ??_C@_07KOLFKCDI@__cdecl@  0046192c     libvcruntime:undname.obj
 0002:00000934       ??_C@_08GHMPAG@__pascal@   00461934     libvcruntime:undname.obj
 0002:00000940       ??_C@_09IFJBGAPI@__stdcall@ 00461940     libvcruntime:undname.obj
 0002:0000094c       ??_C@_0L@NPHFGOKO@__thiscall@ 0046194c     libvcruntime:undname.obj
 0002:00000958       ??_C@_0L@JMKHOMEK@__fastcall@ 00461958     libvcruntime:undname.obj
 0002:00000964       ??_C@_0N@BCKKPABJ@__vectorcall@ 00461964     libvcruntime:undname.obj
 0002:00000974       ??_C@_09HIJEGCPM@__clrcall@ 00461974     libvcruntime:undname.obj
 0002:00000980       ??_C@_06GHPCKEAG@__eabi@   00461980     libvcruntime:undname.obj
 0002:00000988       ??_C@_09IOPIDJLG@__swift_1@ 00461988     libvcruntime:undname.obj
 0002:00000994       ??_C@_09KFNFGKHF@__swift_2@ 00461994     libvcruntime:undname.obj
 0002:000009a0       ??_C@_09LMMOFLDE@__swift_3@ 004619a0     libvcruntime:undname.obj
 0002:000009ac       ??_C@_07JOMMBBKO@__ptr64@  004619ac     libvcruntime:undname.obj
 0002:000009b4       ??_C@_0L@PILCLIHE@__restrict@ 004619b4     libvcruntime:undname.obj
 0002:000009c0       ??_C@_0M@GFIIJFMG@__unaligned@ 004619c0     libvcruntime:undname.obj
 0002:000009cc       ??_C@_09DHDLOLLB@restrict?$CI@ 004619cc     libvcruntime:undname.obj
 0002:000009d8       ??_C@_04NIHEBCM@?5new@     004619d8     libvcruntime:undname.obj
 0002:000009e0       ??_C@_07FPCDHGMM@?5delete@ 004619e0     libvcruntime:undname.obj
 0002:000009e8       ??_C@_01NEMOKFLO@?$DN@     004619e8     libvcruntime:undname.obj
 0002:000009ec       ??_C@_02GPIOPFAK@?$DO?$DO@ 004619ec     libvcruntime:undname.obj
 0002:000009f0       ??_C@_02FODMEDOG@?$DM?$DM@ 004619f0     libvcruntime:undname.obj
 0002:000009f4       ??_C@_01DCLJPIOD@?$CB@     004619f4     libvcruntime:undname.obj
 0002:000009f8       ??_C@_02EGOFBIJA@?$DN?$DN@ 004619f8     libvcruntime:undname.obj
 0002:000009fc       ??_C@_02FDNJECIE@?$CB?$DN@ 004619fc     libvcruntime:undname.obj
 0002:00000a00       ??_C@_02GPECMEKF@?$FL?$FN@ 00461a00     libvcruntime:undname.obj
 0002:00000a04       ??_C@_08LHJFAFGD@operator@ 00461a04     libvcruntime:undname.obj
 0002:00000a10       ??_C@_02HBOOOICD@?9?$DO@   00461a10     libvcruntime:undname.obj
 0002:00000a14       ??_C@_02ECNGHCIF@?$CL?$CL@ 00461a14     libvcruntime:undname.obj
 0002:00000a18       ??_C@_01JOAMLHOP@?9@       00461a18     libvcruntime:undname.obj
 0002:00000a1c       ??_C@_01MIFGBAGJ@?$CL@     00461a1c     libvcruntime:undname.obj
 0002:00000a20       ??_C@_01HNPIGOCE@?$CG@     00461a20     libvcruntime:undname.obj
 0002:00000a24       ??_C@_03MNHNFDLC@?9?$DO?$CK@ 00461a24     libvcruntime:undname.obj
 0002:00000a28       ??_C@_01KMDKNFGN@?1@       00461a28     libvcruntime:undname.obj
 0002:00000a2c       ??_C@_01FGNFDNOH@?$CF@     00461a2c     libvcruntime:undname.obj
 0002:00000a30       ??_C@_01MNNFJEPP@?$DM@     00461a30     libvcruntime:undname.obj
 0002:00000a34       ??_C@_02EHCHHCKH@?$DM?$DN@ 00461a34     libvcruntime:undname.obj
 0002:00000a38       ??_C@_01PPODPGHN@?$DO@     00461a38     libvcruntime:undname.obj
 0002:00000a3c       ??_C@_02EEKDKGMJ@?$DO?$DN@ 00461a3c     libvcruntime:undname.obj
 0002:00000a40       ??_C@_01IHBHIGKO@?0@       00461a40     libvcruntime:undname.obj
 0002:00000a44       ??_C@_02HCKGKOFO@?$CI?$CJ@ 00461a44     libvcruntime:undname.obj
 0002:00000a48       ??_C@_01PJKLJHI@?$HO@      00461a48     libvcruntime:undname.obj
 0002:00000a4c       ??_C@_01JKBOJNNK@?$FO@     00461a4c     libvcruntime:undname.obj
 0002:00000a50       ??_C@_02PPKAJPJL@?$CG?$CG@ 00461a50     libvcruntime:undname.obj
 0002:00000a54       ??_C@_02NONPIBCD@?$HM?$HM@ 00461a54     libvcruntime:undname.obj
 0002:00000a58       ??_C@_02FPIMKNGF@?$CK?$DN@ 00461a58     libvcruntime:undname.obj
 0002:00000a5c       ??_C@_02FOEOMHFC@?$CL?$DN@ 00461a5c     libvcruntime:undname.obj
 0002:00000a60       ??_C@_02FKMDLLOA@?9?$DN@   00461a60     libvcruntime:undname.obj
 0002:00000a64       ??_C@_02FJEHGPIO@?1?$DN@   00461a64     libvcruntime:undname.obj
 0002:00000a68       ??_C@_02FENAOKFI@?$CF?$DN@ 00461a68     libvcruntime:undname.obj
 0002:00000a6c       ??_C@_03IKFCCPFF@?$DO?$DO?$DN@ 00461a6c     libvcruntime:undname.obj
 0002:00000a70       ??_C@_03CDNPDDLA@?$DM?$DM?$DN@ 00461a70     libvcruntime:undname.obj
 0002:00000a74       ??_C@_02FGJGFEAB@?$CG?$DN@ 00461a74     libvcruntime:undname.obj
 0002:00000a78       ??_C@_02DHLNPPGH@?$HM?$DN@ 00461a78     libvcruntime:undname.obj
 0002:00000a7c       ??_C@_02MHEGNOJ@?$FO?$DN@  00461a7c     libvcruntime:undname.obj
 0002:00000a80       ??_C@_09IFPLHPGF@?$GAvftable?8@ 00461a80     libvcruntime:undname.obj
 0002:00000a8c       ??_C@_09BLBHBJP@?$GAvbtable?8@ 00461a8c     libvcruntime:undname.obj
 0002:00000a98       ??_C@_07FEEIOKP@?$GAvcall?8@ 00461a98     libvcruntime:undname.obj
 0002:00000aa0       ??_C@_08LLFFHHDJ@?$GAtypeof?8@ 00461aa0     libvcruntime:undname.obj
 0002:00000aac       ??_C@_0BF@KDPPACIK@?$GAlocal?5static?5guard?8@ 00461aac     libvcruntime:undname.obj
 0002:00000ac4       ??_C@_08OBABFOLI@?$GAstring?8@ 00461ac4     libvcruntime:undname.obj
 0002:00000ad0       ??_C@_0BD@JDLKDPAB@?$GAvbase?5destructor?8@ 00461ad0     libvcruntime:undname.obj
 0002:00000ae4       ??_C@_0BN@DEGPLNFK@?$GAvector?5deleting?5destructor?8@ 00461ae4     libvcruntime:undname.obj
 0002:00000b04       ??_C@_0BO@OBMKPJIG@?$GAdefault?5constructor?5closure?8@ 00461b04     libvcruntime:undname.obj
 0002:00000b24       ??_C@_0BN@IMDCHIKM@?$GAscalar?5deleting?5destructor?8@ 00461b24     libvcruntime:undname.obj
 0002:00000b44       ??_C@_0BO@PFGOCPJJ@?$GAvector?5constructor?5iterator?8@ 00461b44     libvcruntime:undname.obj
 0002:00000b64       ??_C@_0BN@LFPFMEDL@?$GAvector?5destructor?5iterator?8@ 00461b64     libvcruntime:undname.obj
 0002:00000b84       ??_C@_0CE@IKBNEHA@?$GAvector?5vbase?5constructor?5itera@ 00461b84     libvcruntime:undname.obj
 0002:00000ba8       ??_C@_0BL@NILFHHPC@?$GAvirtual?5displacement?5map?8@ 00461ba8     libvcruntime:undname.obj
 0002:00000bc4       ??_C@_0CB@JONCMFFK@?$GAeh?5vector?5constructor?5iterator@ 00461bc4     libvcruntime:undname.obj
 0002:00000be8       ??_C@_0CA@GCEOPDGL@?$GAeh?5vector?5destructor?5iterator?8@ 00461be8     libvcruntime:undname.obj
 0002:00000c08       ??_C@_0CH@OOJPLCPH@?$GAeh?5vector?5vbase?5constructor?5it@ 00461c08     libvcruntime:undname.obj
 0002:00000c30       ??_C@_0BL@LLKPOHJI@?$GAcopy?5constructor?5closure?8@ 00461c30     libvcruntime:undname.obj
 0002:00000c4c       ??_C@_0BA@KBCDOMBN@?$GAudt?5returning?8@ 00461c4c     libvcruntime:undname.obj
 0002:00000c5c       ??_C@_03KLGMFNMG@?$GAEH@   00461c5c     libvcruntime:undname.obj
 0002:00000c60       ??_C@_05KHLCHHI@?$GARTTI@  00461c60     libvcruntime:undname.obj
 0002:00000c68       ??_C@_0BA@KKLDJDLB@?$GAlocal?5vftable?8@ 00461c68     libvcruntime:undname.obj
 0002:00000c78       ??_C@_0CE@IIHCMGGL@?$GAlocal?5vftable?5constructor?5clos@ 00461c78     libvcruntime:undname.obj
 0002:00000c9c       ??_C@_06FHBGPFGH@?5new?$FL?$FN@ 00461c9c     libvcruntime:undname.obj
 0002:00000ca4       ??_C@_09LBNFPBCA@?5delete?$FL?$FN@ 00461ca4     libvcruntime:undname.obj
 0002:00000cb0       ??_C@_0P@HJKNJFNN@?$GAomni?5callsig?8@ 00461cb0     libvcruntime:undname.obj
 0002:00000cc0       ??_C@_0BL@CNOONJFP@?$GAplacement?5delete?5closure?8@ 00461cc0     libvcruntime:undname.obj
 0002:00000cdc       ??_C@_0BN@CKNJLHMB@?$GAplacement?5delete?$FL?$FN?5closure?8@ 00461cdc     libvcruntime:undname.obj
 0002:00000cfc       ??_C@_0CG@CFDHKGGD@?$GAmanaged?5vector?5constructor?5ite@ 00461cfc     libvcruntime:undname.obj
 0002:00000d24       ??_C@_0CF@IMGKMJNO@?$GAmanaged?5vector?5destructor?5iter@ 00461d24     libvcruntime:undname.obj
 0002:00000d4c       ??_C@_0CG@HLDDJMAG@?$GAeh?5vector?5copy?5constructor?5ite@ 00461d4c     libvcruntime:undname.obj
 0002:00000d74       ??_C@_0CM@FCBBDIGB@?$GAeh?5vector?5vbase?5copy?5construct@ 00461d74     libvcruntime:undname.obj
 0002:00000da0       ??_C@_0BL@CLIPGLGB@?$GAdynamic?5initializer?5for?5?8@ 00461da0     libvcruntime:undname.obj
 0002:00000dbc       ??_C@_0CB@PDBIFEP@?$GAdynamic?5atexit?5destructor?5for?5@ 00461dbc     libvcruntime:undname.obj
 0002:00000de0       ??_C@_0CD@CGAJBKEJ@?$GAvector?5copy?5constructor?5iterat@ 00461de0     libvcruntime:undname.obj
 0002:00000e04       ??_C@_0CJ@GJELGAMM@?$GAvector?5vbase?5copy?5constructor?5@ 00461e04     libvcruntime:undname.obj
 0002:00000e30       ??_C@_0CL@FGIJHLCE@?$GAmanaged?5vector?5copy?5constructo@ 00461e30     libvcruntime:undname.obj
 0002:00000e5c       ??_C@_0BM@PMGGMLDN@?$GAlocal?5static?5thread?5guard?8@ 00461e5c     libvcruntime:undname.obj
 0002:00000e78       ??_C@_0N@BDNMDMOL@operator?5?$CC?$CC?5@ 00461e78     libvcruntime:undname.obj
 0002:00000e88       ??_C@_0BC@GGEBGALA@operator?5co_await@ 00461e88     libvcruntime:undname.obj
 0002:00000e9c       ??_C@_0M@GAAIMMOH@operator?$DM?$DN?$DO@ 00461e9c     libvcruntime:undname.obj
 0002:00000ea8       ??_C@_0BC@DAFEJGAK@?5Type?5Descriptor?8@ 00461ea8     libvcruntime:undname.obj
 0002:00000ebc       ??_C@_0BM@LDKODKLH@?5Base?5Class?5Descriptor?5at?5?$CI@ 00461ebc     libvcruntime:undname.obj
 0002:00000ed8       ??_C@_0BD@LGICGFMM@?5Base?5Class?5Array?8@ 00461ed8     libvcruntime:undname.obj
 0002:00000eec       ??_C@_0BN@MECKDCOJ@?5Class?5Hierarchy?5Descriptor?8@ 00461eec     libvcruntime:undname.obj
 0002:00000f0c       ??_C@_0BK@CFCOFLF@?5Complete?5Object?5Locator?8@ 00461f0c     libvcruntime:undname.obj
 0002:00000f28       ??_C@_0BG@JNJLAMPM@?$GAanonymous?5namespace?8@ 00461f28     libvcruntime:undname.obj
 0002:00000f4c       ??_C@_1DM@KHCHBNEB@?$AAa?$AAp?$AAi?$AA?9?$AAm?$AAs?$AA?9?$AAw?$AAi?$AAn?$AA?9?$AAc?$AAo?$AAr?$AAe@ 00461f4c     libvcruntime:winapi_downlevel.obj
 0002:00000f88       ??_C@_1DK@LPPGFMPP@?$AAa?$AAp?$AAi?$AA?9?$AAm?$AAs?$AA?9?$AAw?$AAi?$AAn?$AA?9?$AAc?$AAo?$AAr?$AAe@ 00461f88     libvcruntime:winapi_downlevel.obj
 0002:00000fc4       ??_C@_1BC@GDMECMAK@?$AAk?$AAe?$AAr?$AAn?$AAe?$AAl?$AA3?$AA2@ 00461fc4     libvcruntime:winapi_downlevel.obj
 0002:00000fd8       ??_C@_1BA@PFFKHIOG@?$AAa?$AAp?$AAi?$AA?9?$AAm?$AAs?$AA?9@ 00461fd8     libvcruntime:winapi_downlevel.obj
 0002:00000ff0       ??_C@_08KNHFBNJ@FlsAlloc@  00461ff0     libvcruntime:winapi_downlevel.obj
 0002:00001004       ??_C@_07PEJMOBNF@FlsFree@  00462004     libvcruntime:winapi_downlevel.obj
 0002:00001014       ??_C@_0M@GDNOONDI@FlsGetValue@ 00462014     libvcruntime:winapi_downlevel.obj
 0002:00001028       ??_C@_0M@JCPCPOEF@FlsSetValue@ 00462028     libvcruntime:winapi_downlevel.obj
 0002:0000103c       ??_C@_0BM@HCFOFFN@InitializeCriticalSectionEx@ 0046203c     libvcruntime:winapi_downlevel.obj
 0002:0000105c       ??_7bad_exception@std@@6B@ 0046205c     libvcruntime:frame.obj
 0002:00001064       ??_C@_0O@DPKOEFFH@bad?5exception@ 00462064     libvcruntime:frame.obj
 0002:00001074       ??_C@_1BI@BGOHAHKC@?$AAm?$AAs?$AAc?$AAo?$AAr?$AAe?$AAe?$AA?4?$AAd?$AAl?$AAl@ 00462074     libucrt:exit.obj
 0002:0000108c       ??_C@_0P@MIGLKIOC@CorExitProcess@ 0046208c     libucrt:exit.obj
 0002:000010a0       ?standard_lookup_table_spectre@__crt_stdio_output@@3V?$spectre_mitigated_lookup_table@Ustate_transition_pair@__crt_stdio_output@@$0IA@@1@B 004620a0     libucrt:output.obj
 0002:000011a0       ??_C@_1O@CEDCILHN@?$AA?$CI?$AAn?$AAu?$AAl?$AAl?$AA?$CJ@ 004621a0     libucrt:output.obj
 0002:000011b0       ??_C@_06OJHGLDPL@?$CInull?$CJ@ 004621b0     libucrt:output.obj
 0002:000011b8       __real@3ff0000000000000    004621b8     libucrt:frexp.obj
 0002:000011c0       __real@8000000000000000    004621c0     libucrt:frexp.obj
 0002:000011c8       ?large_power_data@?1??multiply_by_power_of_ten@__crt_strtox@@YA_NAAUbig_integer@2@I@Z@4QBIB 004621c8     libucrt:input.obj
 0002:00001ad0       ?large_power_indices@?1??multiply_by_power_of_ten@__crt_strtox@@YA_NAAUbig_integer@2@I@Z@4QBUunpack_index@?1??12@YA_N0I@Z@B 00462ad0     libucrt:input.obj
 0002:00001b68       ?small_powers_of_ten@?1??multiply_by_power_of_ten@__crt_strtox@@YA_NAAUbig_integer@2@I@Z@4QBIB 00462b68     libucrt:input.obj
 0002:00001b90       ??_C@_1GE@DPGDJKLM@?$AAm?$AAi?$AAn?$AAk?$AAe?$AAr?$AAn?$AAe?$AAl?$AA?2?$AAc?$AAr?$AAt?$AAs?$AA?2@ 00462b90     libucrt:input.obj
 0002:00001bf8       ??_C@_1FM@FELNCOBF@?$AA_?$AA_?$AAc?$AAr?$AAt?$AA_?$AAs?$AAt?$AAr?$AAt?$AAo?$AAx?$AA?3?$AA?3?$AAf@ 00462bf8     libucrt:input.obj
 0002:00001c54       ??_C@_1BG@GEMHBGAF@?$AA_?$AAi?$AAs?$AA_?$AAd?$AAo?$AAu?$AAb?$AAl?$AAe@ 00462c54     libucrt:input.obj
 0002:00001c70       ??_C@_1FK@JOJELFFO@?$AA_?$AA_?$AAc?$AAr?$AAt?$AA_?$AAs?$AAt?$AAr?$AAt?$AAo?$AAx?$AA?3?$AA?3?$AAf@ 00462c70     libucrt:input.obj
 0002:00001ccc       ??_C@_1BI@BANMPGJI@?$AA?$CB?$AA_?$AAi?$AAs?$AA_?$AAd?$AAo?$AAu?$AAb?$AAl?$AAe@ 00462ccc     libucrt:input.obj
 0002:00001ce8       ?constraints@?1??is_length_valid@__crt_stdio_input@@YA_NW4conversion_mode@2@W4length_modifier@2@@Z@4QAY0M@$$CBEA 00462ce8     libucrt:input.obj
 0002:00001d60       ?inf_uppercase@?1???$parse_floating_point_possible_infinity@DV?$input_adapter_character_source@V?$string_input_adapter@D@__crt_stdio_input@@@__crt_strtox@@_K@__crt_strtox@@YA?AW4floating_point_parse_result@1@AADAAV?$input_adapter_character_source@V?$string_input_adapter@D@__crt_stdio_input@@@1@_K@Z@4QBDB 00462d60     libucrt:input.obj
 0002:00001d64       ?inf_lowercase@?1???$parse_floating_point_possible_infinity@DV?$input_adapter_character_source@V?$string_input_adapter@D@__crt_stdio_input@@@__crt_strtox@@_K@__crt_strtox@@YA?AW4floating_point_parse_result@1@AADAAV?$input_adapter_character_source@V?$string_input_adapter@D@__crt_stdio_input@@@1@_K@Z@4QBDB 00462d64     libucrt:input.obj
 0002:00001d68       ?inity_uppercase@?1???$parse_floating_point_possible_infinity@DV?$input_adapter_character_source@V?$string_input_adapter@D@__crt_stdio_input@@@__crt_strtox@@_K@__crt_strtox@@YA?AW4floating_point_parse_result@1@AADAAV?$input_adapter_character_source@V?$string_input_adapter@D@__crt_stdio_input@@@1@_K@Z@4QBDB 00462d68     libucrt:input.obj
 0002:00001d70       ?inity_lowercase@?1???$parse_floating_point_possible_infinity@DV?$input_adapter_character_source@V?$string_input_adapter@D@__crt_stdio_input@@@__crt_strtox@@_K@__crt_strtox@@YA?AW4floating_point_parse_result@1@AADAAV?$input_adapter_character_source@V?$string_input_adapter@D@__crt_stdio_input@@@1@_K@Z@4QBDB 00462d70     libucrt:input.obj
 0002:00001d78       ?uppercase@?1???$parse_floating_point_possible_nan@DV?$input_adapter_character_source@V?$string_input_adapter@D@__crt_stdio_input@@@__crt_strtox@@_K@__crt_strtox@@YA?AW4floating_point_parse_result@1@AADAAV?$input_adapter_character_source@V?$string_input_adapter@D@__crt_stdio_input@@@1@_K@Z@4QBDB 00462d78     libucrt:input.obj
 0002:00001d7c       ?lowercase@?1???$parse_floating_point_possible_nan@DV?$input_adapter_character_source@V?$string_input_adapter@D@__crt_stdio_input@@@__crt_strtox@@_K@__crt_strtox@@YA?AW4floating_point_parse_result@1@AADAAV?$input_adapter_character_source@V?$string_input_adapter@D@__crt_stdio_input@@@1@_K@Z@4QBDB 00462d7c     libucrt:input.obj
 0002:00001d80       ?uppercase@?1???$parse_floating_point_possible_nan_is_snan@DV?$input_adapter_character_source@V?$string_input_adapter@D@__crt_stdio_input@@@__crt_strtox@@@__crt_strtox@@YA_NAADAAV?$input_adapter_character_source@V?$string_input_adapter@D@__crt_stdio_input@@@1@@Z@4QBDB 00462d80     libucrt:input.obj
 0002:00001d88       ?lowercase@?1???$parse_floating_point_possible_nan_is_snan@DV?$input_adapter_character_source@V?$string_input_adapter@D@__crt_stdio_input@@@__crt_strtox@@@__crt_strtox@@YA_NAADAAV?$input_adapter_character_source@V?$string_input_adapter@D@__crt_stdio_input@@@1@@Z@4QBDB 00462d88     libucrt:input.obj
 0002:00001d90       ?uppercase@?1???$parse_floating_point_possible_nan_is_ind@DV?$input_adapter_character_source@V?$string_input_adapter@D@__crt_stdio_input@@@__crt_strtox@@@__crt_strtox@@YA_NAADAAV?$input_adapter_character_source@V?$string_input_adapter@D@__crt_stdio_input@@@1@@Z@4QBDB 00462d90     libucrt:input.obj
 0002:00001d94       ?lowercase@?1???$parse_floating_point_possible_nan_is_ind@DV?$input_adapter_character_source@V?$string_input_adapter@D@__crt_stdio_input@@@__crt_strtox@@@__crt_strtox@@YA_NAADAAV?$input_adapter_character_source@V?$string_input_adapter@D@__crt_stdio_input@@@1@@Z@4QBDB 00462d94     libucrt:input.obj
 0002:00001dac       ??_C@_02LMMGGCAJ@?3?5@     00462dac     libucrt:perror.obj
 0002:00001db0       ___acrt_exception_action_table 00462db0     libucrt:exception_filter.obj
 0002:00001e40       ___acrt_signal_action_table_count 00462e40     libucrt:exception_filter.obj
 0002:00001e44       ___acrt_signal_action_table_size 00462e44     libucrt:exception_filter.obj
 0002:00001e48       ___acrt_signal_action_first_fpe_index 00462e48     libucrt:exception_filter.obj
 0002:00001e4c       ___acrt_signal_action_fpe_count 00462e4c     libucrt:exception_filter.obj
 0002:00001f50       ___lc_category             00462f50     libucrt:wsetlocale.obj
 0002:00001f98       ??_C@_1O@GIFLHMA@?$AAL?$AAC?$AA_?$AAA?$AAL?$AAL@ 00462f98     libucrt:wsetlocale.obj
 0002:00001fa8       ??_C@_1BG@PPOMIBNJ@?$AAL?$AAC?$AA_?$AAC?$AAO?$AAL?$AAL?$AAA?$AAT?$AAE@ 00462fa8     libucrt:wsetlocale.obj
 0002:00001fc0       ??_C@_1BC@FFJGAPJM@?$AAL?$AAC?$AA_?$AAC?$AAT?$AAY?$AAP?$AAE@ 00462fc0     libucrt:wsetlocale.obj
 0002:00001fd4       ??_C@_1BI@PCKFNJFB@?$AAL?$AAC?$AA_?$AAM?$AAO?$AAN?$AAE?$AAT?$AAA?$AAR?$AAY@ 00462fd4     libucrt:wsetlocale.obj
 0002:00001fec       ??_C@_1BG@ENIEDKID@?$AAL?$AAC?$AA_?$AAN?$AAU?$AAM?$AAE?$AAR?$AAI?$AAC@ 00462fec     libucrt:wsetlocale.obj
 0002:00002004       ??_C@_1BA@HAAOMIIG@?$AAL?$AAC?$AA_?$AAT?$AAI?$AAM?$AAE@ 00463004     libucrt:wsetlocale.obj
 0002:00002014       ??_C@_15NBPDDFIP@?$AA?$DN?$AA?$DL@ 00463014     libucrt:wsetlocale.obj
 0002:0000201c       ??_C@_13PJJBFPED@?$AA?$DL@ 0046301c     libucrt:wsetlocale.obj
 0002:00002020       ??_C@_13NMPKAAJP@?$AA?$DN@ 00463020     libucrt:wsetlocale.obj
 0002:00002024       ??_C@_13IMODFHAA@?$AA?9@   00463024     libucrt:wsetlocale.obj
 0002:00002028       ??_C@_17EFJLDFDO@?$AA?9?$AA_?$AA?4@ 00463028     libucrt:wsetlocale.obj
 0002:00002030       ??_C@_13FHBKNHDA@?$AAC@    00463030     libucrt:wsetlocale.obj
 0002:00002034       ??_C@_17MBJJLFDM@?$AA_?$AA?4?$AA?0@ 00463034     libucrt:wsetlocale.obj
 0002:0000203c       ??_C@_13ENNFDPBH@?$AA_@    0046303c     libucrt:wsetlocale.obj
 0002:00002040       ??_C@_13JOFGPIOO@?$AA?4@   00463040     libucrt:wsetlocale.obj
 0002:00002044       ??_C@_13CGOKJPIL@?$AA?1@   00463044     libucrt:peb_access.obj
 0002:000020a0       ??_C@_1EA@JGEFHKEI@?$AAa?$AAp?$AAi?$AA?9?$AAm?$AAs?$AA?9?$AAw?$AAi?$AAn?$AA?9?$AAc?$AAo?$AAr?$AAe@ 004630a0     libucrt:winapi_thunks.obj
 0002:000020e0       ??_C@_1DI@KMEPCBPN@?$AAa?$AAp?$AAi?$AA?9?$AAm?$AAs?$AA?9?$AAw?$AAi?$AAn?$AA?9?$AAc?$AAo?$AAr?$AAe@ 004630e0     libucrt:winapi_thunks.obj
 0002:00002118       ??_C@_1DI@IJCEHOCB@?$AAa?$AAp?$AAi?$AA?9?$AAm?$AAs?$AA?9?$AAw?$AAi?$AAn?$AA?9?$AAc?$AAo?$AAr?$AAe@ 00463118     libucrt:winapi_thunks.obj
 0002:00002150       ??_C@_1EI@MPIAOHOC@?$AAa?$AAp?$AAi?$AA?9?$AAm?$AAs?$AA?9?$AAw?$AAi?$AAn?$AA?9?$AAc?$AAo?$AAr?$AAe@ 00463150     libucrt:winapi_thunks.obj
 0002:00002198       ??_C@_1FK@FPHCKFIE@?$AAa?$AAp?$AAi?$AA?9?$AAm?$AAs?$AA?9?$AAw?$AAi?$AAn?$AA?9?$AAc?$AAo?$AAr?$AAe@ 00463198     libucrt:winapi_thunks.obj
 0002:000021f8       ??_C@_1EM@DILCGIIO@?$AAa?$AAp?$AAi?$AA?9?$AAm?$AAs?$AA?9?$AAw?$AAi?$AAn?$AA?9?$AAc?$AAo?$AAr?$AAe@ 004631f8     libucrt:winapi_thunks.obj
 0002:00002244       ??_C@_1DM@LNCGDDPN@?$AAa?$AAp?$AAi?$AA?9?$AAm?$AAs?$AA?9?$AAw?$AAi?$AAn?$AA?9?$AAc?$AAo?$AAr?$AAe@ 00463244     libucrt:winapi_thunks.obj
 0002:00002280       ??_C@_1DO@FPAPJEMD@?$AAa?$AAp?$AAi?$AA?9?$AAm?$AAs?$AA?9?$AAw?$AAi?$AAn?$AA?9?$AAc?$AAo?$AAr?$AAe@ 00463280     libucrt:winapi_thunks.obj
 0002:000022c0       ??_C@_1DK@NDHNAHIO@?$AAa?$AAp?$AAi?$AA?9?$AAm?$AAs?$AA?9?$AAw?$AAi?$AAn?$AA?9?$AAc?$AAo?$AAr?$AAe@ 004632c0     libucrt:winapi_thunks.obj
 0002:000022fc       ??_C@_1DM@KGHDGBCM@?$AAa?$AAp?$AAi?$AA?9?$AAm?$AAs?$AA?9?$AAw?$AAi?$AAn?$AA?9?$AAc?$AAo?$AAr?$AAe@ 004632fc     libucrt:winapi_thunks.obj
 0002:00002338       ??_C@_1EO@IJIOEFOH@?$AAa?$AAp?$AAi?$AA?9?$AAm?$AAs?$AA?9?$AAw?$AAi?$AAn?$AA?9?$AAr?$AAt?$AAc?$AAo@ 00463338     libucrt:winapi_thunks.obj
 0002:00002388       ??_C@_1FG@HHGEKANL@?$AAa?$AAp?$AAi?$AA?9?$AAm?$AAs?$AA?9?$AAw?$AAi?$AAn?$AA?9?$AAs?$AAe?$AAc?$AAu@ 00463388     libucrt:winapi_thunks.obj
 0002:000023e0       ??_C@_1EG@DBIOJECG@?$AAe?$AAx?$AAt?$AA?9?$AAm?$AAs?$AA?9?$AAw?$AAi?$AAn?$AA?9?$AAn?$AAt?$AAu?$AAs@ 004633e0     libucrt:winapi_thunks.obj
 0002:00002428       ??_C@_1EO@FIHMJCLF@?$AAe?$AAx?$AAt?$AA?9?$AAm?$AAs?$AA?9?$AAw?$AAi?$AAn?$AA?9?$AAn?$AAt?$AAu?$AAs@ 00463428     libucrt:winapi_thunks.obj
 0002:00002478       ??_C@_1BC@DNHGCMLG@?$AAa?$AAd?$AAv?$AAa?$AAp?$AAi?$AA3?$AA2@ 00463478     libucrt:winapi_thunks.obj
 0002:0000248c       ??_C@_1BG@CJPGBMEF@?$AAk?$AAe?$AAr?$AAn?$AAe?$AAl?$AAb?$AAa?$AAs?$AAe@ 0046348c     libucrt:winapi_thunks.obj
 0002:000024a4       ??_C@_1M@OAIMIKLP@?$AAn?$AAt?$AAd?$AAl?$AAl@ 004634a4     libucrt:winapi_thunks.obj
 0002:000024b0       ??_C@_1EG@DPGNFKGC@?$AAa?$AAp?$AAi?$AA?9?$AAm?$AAs?$AA?9?$AAw?$AAi?$AAn?$AA?9?$AAa?$AAp?$AAp?$AAm@ 004634b0     libucrt:winapi_thunks.obj
 0002:000024f8       ??_C@_1O@BCCLBEOE@?$AAu?$AAs?$AAe?$AAr?$AA3?$AA2@ 004634f8     libucrt:winapi_thunks.obj
 0002:00002508       ??_C@_1DM@BPJLHKCE@?$AAa?$AAp?$AAi?$AA?9?$AAm?$AAs?$AA?9?$AAw?$AAi?$AAn?$AA?9?$AAc?$AAo?$AAr?$AAe@ 00463508     libucrt:winapi_thunks.obj
 0002:00002544       ??_C@_1BA@IAIFMGEF@?$AAe?$AAx?$AAt?$AA?9?$AAm?$AAs?$AA?9@ 00463544     libucrt:winapi_thunks.obj
 0002:00002558       ??_C@_0BA@FHFNEAED@AreFileApisANSI@ 00463558     libucrt:winapi_thunks.obj
 0002:00002570       ??_C@_0BA@IHGNDAEB@CompareStringEx@ 00463570     libucrt:winapi_thunks.obj
 0002:00002588       ??_C@_0BE@LJANKFHF@EnumSystemLocalesEx@ 00463588     libucrt:winapi_thunks.obj
 0002:000025a4       ??_C@_0BA@EPCJIIPD@GetDateFormatEx@ 004635a4     libucrt:winapi_thunks.obj
 0002:000025bc       ??_C@_0BA@ONOKGCMP@GetLocaleInfoEx@ 004635bc     libucrt:winapi_thunks.obj
 0002:000025d4       ??_C@_0BA@CIJJKCJJ@GetTimeFormatEx@ 004635d4     libucrt:winapi_thunks.obj
 0002:000025ec       ??_C@_0BJ@PBCCBIPI@GetUserDefaultLocaleName@ 004635ec     libucrt:winapi_thunks.obj
 0002:00002618       ??_C@_0BC@CELBKLLA@IsValidLocaleName@ 00463618     libucrt:winapi_thunks.obj
 0002:00002634       ??_C@_0O@KKBNKAPF@LCMapStringEx@ 00463634     libucrt:winapi_thunks.obj
 0002:0000264c       ??_C@_0BB@CDHDDLLP@LCIDToLocaleName@ 0046364c     libucrt:winapi_thunks.obj
 0002:00002668       ??_C@_0BB@HBDEELFH@LocaleNameToLCID@ 00463668     libucrt:winapi_thunks.obj
 0002:00002680       ??_C@_0N@PPOMPGGK@RoInitialize@ 00463680     libucrt:winapi_thunks.obj
 0002:00002694       ??_C@_0P@LLFHBIJD@RoUninitialize@ 00463694     libucrt:winapi_thunks.obj
 0002:000026a8       ??_C@_0CF@OJOFEIGO@AppPolicyGetProcessTerminationM@ 004636a8     libucrt:winapi_thunks.obj
 0002:000026d4       ??_C@_0CF@NNDFDCOC@AppPolicyGetThreadInitializatio@ 004636d4     libucrt:winapi_thunks.obj
 0002:00002720       ___lc_time_c               00463720     libucrt:nlsdata.obj
 0002:00002884       ??_C@_03KOEHGMDN@Sun@      00463884     libucrt:nlsdata.obj
 0002:00002888       ??_C@_03PDAGKDH@Mon@       00463888     libucrt:nlsdata.obj
 0002:0000288c       ??_C@_03NAGEINEP@Tue@      0046388c     libucrt:nlsdata.obj
 0002:00002890       ??_C@_03MHOMLAJA@Wed@      00463890     libucrt:nlsdata.obj
 0002:00002894       ??_C@_03IOFIKPDN@Thu@      00463894     libucrt:nlsdata.obj
 0002:00002898       ??_C@_03IDIOELNC@Fri@      00463898     libucrt:nlsdata.obj
 0002:0000289c       ??_C@_03FEFJNEK@Sat@       0046389c     libucrt:nlsdata.obj
 0002:000028a0       ??_C@_06OOPIFAJ@Sunday@    004638a0     libucrt:nlsdata.obj
 0002:000028a8       ??_C@_06JLEDEDGH@Monday@   004638a8     libucrt:nlsdata.obj
 0002:000028b0       ??_C@_07BAAGCFCM@Tuesday@  004638b0     libucrt:nlsdata.obj
 0002:000028b8       ??_C@_09DLIGFAKA@Wednesday@ 004638b8     libucrt:nlsdata.obj
 0002:000028c4       ??_C@_08HACCIKIA@Thursday@ 004638c4     libucrt:nlsdata.obj
 0002:000028d0       ??_C@_06JECMNKMI@Friday@   004638d0     libucrt:nlsdata.obj
 0002:000028d8       ??_C@_08INBOOONO@Saturday@ 004638d8     libucrt:nlsdata.obj
 0002:000028e4       ??_C@_03JIHJHPIE@Jan@      004638e4     libucrt:nlsdata.obj
 0002:000028e8       ??_C@_03HJBDCHOM@Feb@      004638e8     libucrt:nlsdata.obj
 0002:000028ec       ??_C@_03ODNJBKGA@Mar@      004638ec     libucrt:nlsdata.obj
 0002:000028f0       ??_C@_03LEOLGMJP@Apr@      004638f0     libucrt:nlsdata.obj
 0002:000028f4       ??_C@_03CNMDKL@May@        004638f4     libucrt:nlsdata.obj
 0002:000028f8       ??_C@_03IDFGHECI@Jun@      004638f8     libucrt:nlsdata.obj
 0002:000028fc       ??_C@_03LBGABGKK@Jul@      004638fc     libucrt:nlsdata.obj
 0002:00002900       ??_C@_03IFJFEIGA@Aug@      00463900     libucrt:nlsdata.obj
 0002:00002904       ??_C@_03GGCAPAJC@Sep@      00463904     libucrt:nlsdata.obj
 0002:00002908       ??_C@_03BMAOKBAD@Oct@      00463908     libucrt:nlsdata.obj
 0002:0000290c       ??_C@_03JPJOFNIA@Nov@      0046390c     libucrt:nlsdata.obj
 0002:00002910       ??_C@_03MKABNOCG@Dec@      00463910     libucrt:nlsdata.obj
 0002:00002914       ??_C@_07CGJPFGJA@January@  00463914     libucrt:nlsdata.obj
 0002:0000291c       ??_C@_08GNJGEPFN@February@ 0046391c     libucrt:nlsdata.obj
 0002:00002928       ??_C@_05HPCKOFNC@March@    00463928     libucrt:nlsdata.obj
 0002:00002930       ??_C@_05DMJDNLEJ@April@    00463930     libucrt:nlsdata.obj
 0002:00002938       ??_C@_04CNLMGBGM@June@     00463938     libucrt:nlsdata.obj
 0002:00002940       ??_C@_04MIEPOIFP@July@     00463940     libucrt:nlsdata.obj
 0002:00002948       ??_C@_06LBBHFDDG@August@   00463948     libucrt:nlsdata.obj
 0002:00002950       ??_C@_09BHHEALKD@September@ 00463950     libucrt:nlsdata.obj
 0002:0000295c       ??_C@_07JJNFCEND@October@  0046395c     libucrt:nlsdata.obj
 0002:00002964       ??_C@_08HCHEGEOA@November@ 00463964     libucrt:nlsdata.obj
 0002:00002970       ??_C@_08EDHMEBNP@December@ 00463970     libucrt:nlsdata.obj
 0002:0000297c       ??_C@_02DEDBPAFC@AM@       0046397c     libucrt:nlsdata.obj
 0002:00002980       ??_C@_02CJNFDJBF@PM@       00463980     libucrt:nlsdata.obj
 0002:00002984       ??_C@_08BPBNCDIB@MM?1dd?1yy@ 00463984     libucrt:nlsdata.obj
 0002:00002990       ??_C@_0BE@CKGJFCPC@dddd?0?5MMMM?5dd?0?5yyyy@ 00463990     libucrt:nlsdata.obj
 0002:000029a4       ??_C@_08JCCMCCIL@HH?3mm?3ss@ 004639a4     libucrt:nlsdata.obj
 0002:000029b0       ??_C@_17MBGCMIPB@?$AAS?$AAu?$AAn@ 004639b0     libucrt:nlsdata.obj
 0002:000029b8       ??_C@_17KBOMKBF@?$AAM?$AAo?$AAn@ 004639b8     libucrt:nlsdata.obj
 0002:000029c0       ??_C@_17BMKGEGOJ@?$AAT?$AAu?$AAe@ 004639c0     libucrt:nlsdata.obj
 0002:000029c8       ??_C@_17CJEDCEPE@?$AAW?$AAe?$AAd@ 004639c8     libucrt:nlsdata.obj
 0002:000029d0       ??_C@_17PDPHAADD@?$AAT?$AAh?$AAu@ 004639d0     libucrt:nlsdata.obj
 0002:000029d8       ??_C@_17HFOLPPLP@?$AAF?$AAr?$AAi@ 004639d8     libucrt:nlsdata.obj
 0002:000029e0       ??_C@_17GGIBDPIH@?$AAS?$AAa?$AAt@ 004639e0     libucrt:nlsdata.obj
 0002:000029e8       ??_C@_1O@IHNHDHPB@?$AAS?$AAu?$AAn?$AAd?$AAa?$AAy@ 004639e8     libucrt:nlsdata.obj
 0002:000029f8       ??_C@_1O@MMNBFLIA@?$AAM?$AAo?$AAn?$AAd?$AAa?$AAy@ 004639f8     libucrt:nlsdata.obj
 0002:00002a08       ??_C@_1BA@ENFBFFEK@?$AAT?$AAu?$AAe?$AAs?$AAd?$AAa?$AAy@ 00463a08     libucrt:nlsdata.obj
 0002:00002a18       ??_C@_1BE@EBOGMDOH@?$AAW?$AAe?$AAd?$AAn?$AAe?$AAs?$AAd?$AAa?$AAy@ 00463a18     libucrt:nlsdata.obj
 0002:00002a2c       ??_C@_1BC@HHMNLIHE@?$AAT?$AAh?$AAu?$AAr?$AAs?$AAd?$AAa?$AAy@ 00463a2c     libucrt:nlsdata.obj
 0002:00002a40       ??_C@_1O@PDICJHAG@?$AAF?$AAr?$AAi?$AAd?$AAa?$AAy@ 00463a40     libucrt:nlsdata.obj
 0002:00002a50       ??_C@_1BC@ENMNNPAJ@?$AAS?$AAa?$AAt?$AAu?$AAr?$AAd?$AAa?$AAy@ 00463a50     libucrt:nlsdata.obj
 0002:00002a64       ??_C@_17DKNBKCHM@?$AAJ?$AAa?$AAn@ 00463a64     libucrt:nlsdata.obj
 0002:00002a6c       ??_C@_17LMDJEKJN@?$AAF?$AAe?$AAb@ 00463a6c     libucrt:nlsdata.obj
 0002:00002a74       ??_C@_17CKNLEDEC@?$AAM?$AAa?$AAr@ 00463a74     libucrt:nlsdata.obj
 0002:00002a7c       ??_C@_17LFPOIHDD@?$AAA?$AAp?$AAr@ 00463a7c     libucrt:nlsdata.obj
 0002:00002a84       ??_C@_17PNNKMEED@?$AAM?$AAa?$AAy@ 00463a84     libucrt:nlsdata.obj
 0002:00002a8c       ??_C@_17KCJGOCPB@?$AAJ?$AAu?$AAn@ 00463a8c     libucrt:nlsdata.obj
 0002:00002a94       ??_C@_17IJPCKHK@?$AAJ?$AAu?$AAl@ 00463a94     libucrt:nlsdata.obj
 0002:00002a9c       ??_C@_17ICPELBCN@?$AAA?$AAu?$AAg@ 00463a9c     libucrt:nlsdata.obj
 0002:00002aa4       ??_C@_17HCHCOKMG@?$AAS?$AAe?$AAp@ 00463aa4     libucrt:nlsdata.obj
 0002:00002aac       ??_C@_17FNLKOI@?$AAO?$AAc?$AAt@ 00463aac     libucrt:nlsdata.obj
 0002:00002ab4       ??_C@_17BBDMLCIG@?$AAN?$AAo?$AAv@ 00463ab4     libucrt:nlsdata.obj
 0002:00002abc       ??_C@_17EGKACKIF@?$AAD?$AAe?$AAc@ 00463abc     libucrt:nlsdata.obj
 0002:00002ac4       ??_C@_1BA@EFMEIEBA@?$AAJ?$AAa?$AAn?$AAu?$AAa?$AAr?$AAy@ 00463ac4     libucrt:nlsdata.obj
 0002:00002ad4       ??_C@_1BC@JGDDFFAM@?$AAF?$AAe?$AAb?$AAr?$AAu?$AAa?$AAr?$AAy@ 00463ad4     libucrt:nlsdata.obj
 0002:00002ae8       ??_C@_1M@IKEENEDF@?$AAM?$AAa?$AAr?$AAc?$AAh@ 00463ae8     libucrt:nlsdata.obj
 0002:00002af4       ??_C@_1M@GJNLMHFD@?$AAA?$AAp?$AAr?$AAi?$AAl@ 00463af4     libucrt:nlsdata.obj
 0002:00002b00       ??_C@_19EPFLPGAP@?$AAJ?$AAu?$AAn?$AAe@ 00463b00     libucrt:nlsdata.obj
 0002:00002b0c       ??_C@_19BIFMLPCD@?$AAJ?$AAu?$AAl?$AAy@ 00463b0c     libucrt:nlsdata.obj
 0002:00002b18       ??_C@_1O@PAHLKOAC@?$AAA?$AAu?$AAg?$AAu?$AAs?$AAt@ 00463b18     libucrt:nlsdata.obj
 0002:00002b28       ??_C@_1BE@DKAAMBJL@?$AAS?$AAe?$AAp?$AAt?$AAe?$AAm?$AAb?$AAe?$AAr@ 00463b28     libucrt:nlsdata.obj
 0002:00002b3c       ??_C@_1BA@EPANDLNG@?$AAO?$AAc?$AAt?$AAo?$AAb?$AAe?$AAr@ 00463b3c     libucrt:nlsdata.obj
 0002:00002b4c       ??_C@_1BC@BGLIFPF@?$AAN?$AAo?$AAv?$AAe?$AAm?$AAb?$AAe?$AAr@ 00463b4c     libucrt:nlsdata.obj
 0002:00002b60       ??_C@_1BC@FEMKIFH@?$AAD?$AAe?$AAc?$AAe?$AAm?$AAb?$AAe?$AAr@ 00463b60     libucrt:nlsdata.obj
 0002:00002b74       ??_C@_15ODEHAHHF@?$AAA?$AAM@ 00463b74     libucrt:nlsdata.obj
 0002:00002b7c       ??_C@_15CLMNNGEL@?$AAP?$AAM@ 00463b7c     libucrt:nlsdata.obj
 0002:00002b84       ??_C@_1BC@IEBCMHCM@?$AAM?$AAM?$AA?1?$AAd?$AAd?$AA?1?$AAy?$AAy@ 00463b84     libucrt:nlsdata.obj
 0002:00002b98       ??_C@_1CI@KNAKOEBC@?$AAd?$AAd?$AAd?$AAd?$AA?0?$AA?5?$AAM?$AAM?$AAM?$AAM?$AA?5?$AAd?$AAd?$AA?0?$AA?5@ 00463b98     libucrt:nlsdata.obj
 0002:00002bc0       ??_C@_1BC@GDGBMEMK@?$AAH?$AAH?$AA?3?$AAm?$AAm?$AA?3?$AAs?$AAs@ 00463bc0     libucrt:nlsdata.obj
 0002:00002bd4       ??_C@_1M@BMHNFIME@?$AAe?$AAn?$AA?9?$AAU?$AAS@ 00463bd4     libucrt:nlsdata.obj
 0002:00002d48       ?ccs@?1???$__acrt_stdio_parse_mode@D@@YA?AU__acrt_stdio_stream_mode@@QBD@Z@4QBDB 00463d48     libucrt:openfile.obj
 0002:00002d4c       ?utf8_encoding@?1???$__acrt_stdio_parse_mode@D@@YA?AU__acrt_stdio_stream_mode@@QBD@Z@4QBDB 00463d4c     libucrt:openfile.obj
 0002:00002d54       ?utf16_encoding@?1???$__acrt_stdio_parse_mode@D@@YA?AU__acrt_stdio_stream_mode@@QBD@Z@4QBDB 00463d54     libucrt:openfile.obj
 0002:00002d5c       ?unicode_encoding@?1???$__acrt_stdio_parse_mode@D@@YA?AU__acrt_stdio_stream_mode@@QBD@Z@4QBDB 00463d5c     libucrt:openfile.obj
 0002:00002da8       ??_C@_03OEIAHPBN@INF@      00463da8     libucrt:cvt.obj
 0002:00002dac       ??_C@_03OJHLLCGB@inf@      00463dac     libucrt:cvt.obj
 0002:00002db0       ??_C@_03LKNCIKJB@NAN@      00463db0     libucrt:cvt.obj
 0002:00002db4       ??_C@_03LHCJEHON@nan@      00463db4     libucrt:cvt.obj
 0002:00002db8       ??_C@_09OFJJIMPC@NAN?$CISNAN?$CJ@ 00463db8     libucrt:cvt.obj
 0002:00002dc4       ??_C@_09IPFBKMDL@nan?$CIsnan?$CJ@ 00463dc4     libucrt:cvt.obj
 0002:00002dd0       ??_C@_08IKHNHAJ@NAN?$CIIND?$CJ@ 00463dd0     libucrt:cvt.obj
 0002:00002ddc       ??_C@_08OFCDMILK@nan?$CIind?$CJ@ 00463ddc     libucrt:cvt.obj
 0002:00002de8       ??_C@_05KLBDPFGC@e?$CL000@ 00463de8     libucrt:cvt.obj
 0002:00002df0       ___newctype                00463df0     libucrt:ctype.obj
 0002:000030f0       ___newclmap                004640f0     libucrt:ctype.obj
 0002:00003270       ___newcumap                00464270     libucrt:ctype.obj
 0002:000033f0       __wctype                   004643f0     libucrt:ctype.obj
 0002:000036e0       ??_C@_03KHJOGHMM@exp@      004646e0     libucrt:fpexcept.obj
 0002:000036e4       ??_C@_03JGHBODFD@pow@      004646e4     libucrt:fpexcept.obj
 0002:000036e8       ??_C@_03MGHMBJCF@log@      004646e8     libucrt:fpexcept.obj
 0002:000036ec       ??_C@_05HGHHAHAP@log10@    004646ec     libucrt:fpexcept.obj
 0002:000036f4       ??_C@_04COOMCNPB@sinh@     004646f4     libucrt:fpexcept.obj
 0002:000036fc       ??_C@_04HPJJNFIM@cosh@     004646fc     libucrt:fpexcept.obj
 0002:00003704       ??_C@_04FJHINJAO@tanh@     00464704     libucrt:fpexcept.obj
 0002:0000370c       ??_C@_04FIHNOPOL@asin@     0046470c     libucrt:fpexcept.obj
 0002:00003714       ??_C@_04PDIFKINK@acos@     00464714     libucrt:fpexcept.obj
 0002:0000371c       ??_C@_04MLLJIGOK@atan@     0046471c     libucrt:fpexcept.obj
 0002:00003724       ??_C@_05KNGEOGJB@atan2@    00464724     libucrt:fpexcept.obj
 0002:0000372c       ??_C@_04EIAKFFMI@sqrt@     0046472c     libucrt:fpexcept.obj
 0002:00003734       ??_C@_03BLEJJJBH@sin@      00464734     libucrt:fpexcept.obj
 0002:00003738       ??_C@_03LALBNOCG@cos@      00464738     libucrt:fpexcept.obj
 0002:0000373c       ??_C@_03IIINPABG@tan@      0046473c     libucrt:fpexcept.obj
 0002:00003740       ??_C@_04GFPJNGEK@ceil@     00464740     libucrt:fpexcept.obj
 0002:00003748       ??_C@_05PBJFFIGL@floor@    00464748     libucrt:fpexcept.obj
 0002:00003750       ??_C@_04ODHECPBC@fabs@     00464750     libucrt:fpexcept.obj
 0002:00003758       ??_C@_04EHEDPDJG@modf@     00464758     libucrt:fpexcept.obj
 0002:00003760       ??_C@_05CEJMAHNP@ldexp@    00464760     libucrt:fpexcept.obj
 0002:00003768       ??_C@_05KBKMEMPO@_cabs@    00464768     libucrt:fpexcept.obj
 0002:00003770       ??_C@_06MEIMCGCF@_hypot@   00464770     libucrt:fpexcept.obj
 0002:00003778       ??_C@_04KEPJIHGP@fmod@     00464778     libucrt:fpexcept.obj
 0002:00003780       ??_C@_05GKKHEGJL@frexp@    00464780     libucrt:fpexcept.obj
 0002:00003788       ??_C@_03MJLDFKDL@_y0@      00464788     libucrt:fpexcept.obj
 0002:0000378c       ??_C@_03NAKIGLHK@_y1@      0046478c     libucrt:fpexcept.obj
 0002:00003790       ??_C@_03ONILCKOB@_yn@      00464790     libucrt:fpexcept.obj
 0002:00003794       ??_C@_05JGDBENOH@_logb@    00464794     libucrt:fpexcept.obj
 0002:0000379c       ??_C@_0L@KDOEJCKC@_nextafter@ 0046479c     libucrt:fpexcept.obj
 0002:000037a8       __d_inf                    004647a8     libucrt:util.obj
 0002:000037b0       __d_max                    004647b0     libucrt:util.obj
 0002:000037b8       __d_mzero                  004647b8     libucrt:util.obj
 0002:000037d8       ??_C@_1M@PBPMMENC@?$AAa?$AAm?$AA?1?$AAp?$AAm@ 004647d8     libucrt:wcsftime.obj
 0002:000037e4       ??_C@_17BLFJJHMM@?$AAa?$AA?1?$AAp@ 004647e4     libucrt:wcsftime.obj
 0002:000037ec       ??_C@_13HOIJIPNN@?$AA?5@   004647ec     libucrt:wcsftime.obj
 0002:000037f0       ??_C@_13LBAGMAIH@?$AA?6@   004647f0     libucrt:wcsftime.obj
 0002:000037f4       ??_C@_13EBCNDICG@?$AA?3@   004647f4     libucrt:wcsftime.obj
 0002:000037f8       ??_C@_13KDLDGPGJ@?$AA?7@   004647f8     libucrt:wcsftime.obj
 0002:000037fc       ??_C@_13KJIIAINM@?$AA?$CL@ 004647fc     libucrt:wcsftime.obj
 0002:00003800       ??_C@_13EJFHHPOP@?$AA?$CF@ 00464800     libucrt:wcsftime.obj
 0002:00003804       __days                     00464804     libucrt:days.obj
 0002:00003838       __lpdays                   00464838     libucrt:days.obj
 0002:0000386c       ??_C@_15HNJCPLHL@?$AAT?$AAZ@ 0046486c     libucrt:tzset.obj
 0002:0000388c       __sys_first_posix_error    0046488c     libucrt:syserr.obj
 0002:00003890       __sys_last_posix_error     00464890     libucrt:syserr.obj
 0002:00003898       __sys_posix_errlist        00464898     libucrt:syserr.obj
 0002:00003940       __sys_errlist              00464940     libucrt:syserr.obj
 0002:000039f0       ??_C@_08INEPGKHH@No?5error@ 004649f0     libucrt:syserr.obj
 0002:000039fc       ??_C@_0BI@BJFCGOHL@Operation?5not?5permitted@ 004649fc     libucrt:syserr.obj
 0002:00003a14       ??_C@_0BK@FMDHKPNF@No?5such?5file?5or?5directory@ 00464a14     libucrt:syserr.obj
 0002:00003a30       ??_C@_0BA@FKIAIBGA@No?5such?5process@ 00464a30     libucrt:syserr.obj
 0002:00003a40       ??_C@_0BK@FJBOAFDK@Interrupted?5function?5call@ 00464a40     libucrt:syserr.obj
 0002:00003a5c       ??_C@_0BD@KKNFOBBD@Input?1output?5error@ 00464a5c     libucrt:syserr.obj
 0002:00003a70       ??_C@_0BK@DPKMCKJ@No?5such?5device?5or?5address@ 00464a70     libucrt:syserr.obj
 0002:00003a8c       ??_C@_0BC@MFFGCDFL@Arg?5list?5too?5long@ 00464a8c     libucrt:syserr.obj
 0002:00003aa0       ??_C@_0BC@HKPNECK@Exec?5format?5error@ 00464aa0     libucrt:syserr.obj
 0002:00003ab4       ??_C@_0BE@NFGDDCEF@Bad?5file?5descriptor@ 00464ab4     libucrt:syserr.obj
 0002:00003ac8       ??_C@_0BD@LOHELEP@No?5child?5processes@ 00464ac8     libucrt:syserr.obj
 0002:00003adc       ??_C@_0CB@EPFKGNAK@Resource?5temporarily?5unavailabl@ 00464adc     libucrt:syserr.obj
 0002:00003b00       ??_C@_0BB@IMDKMPFB@Not?5enough?5space@ 00464b00     libucrt:syserr.obj
 0002:00003b14       ??_C@_0BC@HFNFNKAI@Permission?5denied@ 00464b14     libucrt:syserr.obj
 0002:00003b28       ??_C@_0M@LOEHLCJD@Bad?5address@ 00464b28     libucrt:syserr.obj
 0002:00003b34       ??_C@_0O@NIPGCINC@Unknown?5error@ 00464b34     libucrt:syserr.obj
 0002:00003b44       ??_C@_0BA@BIBLIOEK@Resource?5device@ 00464b44     libucrt:syserr.obj
 0002:00003b54       ??_C@_0M@NAAJNNGH@File?5exists@ 00464b54     libucrt:syserr.obj
 0002:00003b60       ??_C@_0O@OAMDNOCP@Improper?5link@ 00464b60     libucrt:syserr.obj
 0002:00003b70       ??_C@_0P@NLEIANHE@No?5such?5device@ 00464b70     libucrt:syserr.obj
 0002:00003b80       ??_C@_0BA@CJBACOOL@Not?5a?5directory@ 00464b80     libucrt:syserr.obj
 0002:00003b90       ??_C@_0P@NDHGCGKE@Is?5a?5directory@ 00464b90     libucrt:syserr.obj
 0002:00003ba0       ??_C@_0BB@HMGGCEBG@Invalid?5argument@ 00464ba0     libucrt:syserr.obj
 0002:00003bb4       ??_C@_0BO@IIFBODJE@Too?5many?5open?5files?5in?5system@ 00464bb4     libucrt:syserr.obj
 0002:00003bd4       ??_C@_0BE@INBJMKGG@Too?5many?5open?5files@ 00464bd4     libucrt:syserr.obj
 0002:00003be8       ??_C@_0CE@ONOKNLPF@Inappropriate?5I?1O?5control?5opera@ 00464be8     libucrt:syserr.obj
 0002:00003c0c       ??_C@_0P@LFMMIPAE@File?5too?5large@ 00464c0c     libucrt:syserr.obj
 0002:00003c1c       ??_C@_0BI@FEALHKLD@No?5space?5left?5on?5device@ 00464c1c     libucrt:syserr.obj
 0002:00003c34       ??_C@_0N@FEHLOILP@Invalid?5seek@ 00464c34     libucrt:syserr.obj
 0002:00003c44       ??_C@_0BG@DDBFNKBH@Read?9only?5file?5system@ 00464c44     libucrt:syserr.obj
 0002:00003c5c       ??_C@_0P@PKCJJLLM@Too?5many?5links@ 00464c5c     libucrt:syserr.obj
 0002:00003c6c       ??_C@_0M@LHEPIIOM@Broken?5pipe@ 00464c6c     libucrt:syserr.obj
 0002:00003c78       ??_C@_0N@MMJPGLJK@Domain?5error@ 00464c78     libucrt:syserr.obj
 0002:00003c88       ??_C@_0BB@FCBJFCAJ@Result?5too?5large@ 00464c88     libucrt:syserr.obj
 0002:00003c9c       ??_C@_0BK@JAEBMJJM@Resource?5deadlock?5avoided@ 00464c9c     libucrt:syserr.obj
 0002:00003cb8       ??_C@_0BC@BEDIHIDK@Filename?5too?5long@ 00464cb8     libucrt:syserr.obj
 0002:00003ccc       ??_C@_0BD@CLHBCGPB@No?5locks?5available@ 00464ccc     libucrt:syserr.obj
 0002:00003ce0       ??_C@_0BJ@IHEHINLI@Function?5not?5implemented@ 00464ce0     libucrt:syserr.obj
 0002:00003cfc       ??_C@_0BE@ICMCHPHH@Directory?5not?5empty@ 00464cfc     libucrt:syserr.obj
 0002:00003d10       ??_C@_0BG@KLEAJEFJ@Illegal?5byte?5sequence@ 00464d10     libucrt:syserr.obj
 0002:00003d28       ??_C@_0P@LDMLAFHI@address?5in?5use@ 00464d28     libucrt:syserr.obj
 0002:00003d38       ??_C@_0BG@DHPCNBJB@address?5not?5available@ 00464d38     libucrt:syserr.obj
 0002:00003d50       ??_C@_0BN@LKKBCCDB@address?5family?5not?5supported@ 00464d50     libucrt:syserr.obj
 0002:00003d70       ??_C@_0BP@KAIHPOGN@connection?5already?5in?5progress@ 00464d70     libucrt:syserr.obj
 0002:00003d90       ??_C@_0M@PMMIEFCP@bad?5message@ 00464d90     libucrt:syserr.obj
 0002:00003d9c       ??_C@_0BD@MOLBPMEA@operation?5canceled@ 00464d9c     libucrt:syserr.obj
 0002:00003db0       ??_C@_0BD@MGNDDEGM@connection?5aborted@ 00464db0     libucrt:syserr.obj
 0002:00003dc4       ??_C@_0BB@IECNJNOI@connection?5reset@ 00464dc4     libucrt:syserr.obj
 0002:00003dd8       ??_C@_0BN@KDMIFEIP@destination?5address?5required@ 00464dd8     libucrt:syserr.obj
 0002:00003df8       ??_C@_0BB@DHFDFGDM@host?5unreachable@ 00464df8     libucrt:syserr.obj
 0002:00003e0c       ??_C@_0BD@JPHBMONG@identifier?5removed@ 00464e0c     libucrt:syserr.obj
 0002:00003e20       ??_C@_0BG@KDKHOPCO@operation?5in?5progress@ 00464e20     libucrt:syserr.obj
 0002:00003e38       ??_C@_0BC@DFIBIBIL@already?5connected@ 00464e38     libucrt:syserr.obj
 0002:00003e4c       ??_C@_0BO@EFGOJEF@too?5many?5symbolic?5link?5levels@ 00464e4c     libucrt:syserr.obj
 0002:00003e6c       ??_C@_0N@IFLPBIOP@message?5size@ 00464e6c     libucrt:syserr.obj
 0002:00003e7c       ??_C@_0N@KIIEAAIO@network?5down@ 00464e7c     libucrt:syserr.obj
 0002:00003e8c       ??_C@_0O@FNPDBHEE@network?5reset@ 00464e8c     libucrt:syserr.obj
 0002:00003e9c       ??_C@_0BE@IFNCKGE@network?5unreachable@ 00464e9c     libucrt:syserr.obj
 0002:00003eb0       ??_C@_0BA@PFFCAOFK@no?5buffer?5space@ 00464eb0     libucrt:syserr.obj
 0002:00003ec0       ??_C@_0BF@PBGGPKKE@no?5message?5available@ 00464ec0     libucrt:syserr.obj
 0002:00003ed8       ??_C@_07PLECNNKG@no?5link@ 00464ed8     libucrt:syserr.obj
 0002:00003ee0       ??_C@_0L@EDOLMPAK@no?5message@ 00464ee0     libucrt:syserr.obj
 0002:00003eec       ??_C@_0BD@EAMBFIDF@no?5protocol?5option@ 00464eec     libucrt:syserr.obj
 0002:00003f00       ??_C@_0BE@MKFDAFMP@no?5stream?5resources@ 00464f00     libucrt:syserr.obj
 0002:00003f14       ??_C@_0N@LGAPMMPI@not?5a?5stream@ 00464f14     libucrt:syserr.obj
 0002:00003f24       ??_C@_0O@GLMIBBEG@not?5connected@ 00464f24     libucrt:syserr.obj
 0002:00003f34       ??_C@_0BG@MPLKFPAE@state?5not?5recoverable@ 00464f34     libucrt:syserr.obj
 0002:00003f4c       ??_C@_0N@POEIPGGF@not?5a?5socket@ 00464f4c     libucrt:syserr.obj
 0002:00003f5c       ??_C@_0O@NHEDABJP@not?5supported@ 00464f5c     libucrt:syserr.obj
 0002:00003f6c       ??_C@_0BI@LNEGIFLN@operation?5not?5supported@ 00464f6c     libucrt:syserr.obj
 0002:00003f84       ??_C@_0BA@KGKGOOJA@value?5too?5large@ 00464f84     libucrt:syserr.obj
 0002:00003f94       ??_C@_0L@BLPOFLNJ@owner?5dead@ 00464f94     libucrt:syserr.obj
 0002:00003fa0       ??_C@_0P@FNPOCJBE@protocol?5error@ 00464fa0     libucrt:syserr.obj
 0002:00003fb0       ??_C@_0BH@JPPPLHJB@protocol?5not?5supported@ 00464fb0     libucrt:syserr.obj
 0002:00003fc8       ??_C@_0BE@MIEJDDNH@wrong?5protocol?5type@ 00464fc8     libucrt:syserr.obj
 0002:00003fdc       ??_C@_0P@DIIFGFCG@stream?5timeout@ 00464fdc     libucrt:syserr.obj
 0002:00003fec       ??_C@_09KJPPMAOI@timed?5out@ 00464fec     libucrt:syserr.obj
 0002:00003ff8       ??_C@_0P@IPFDMIFL@text?5file?5busy@ 00464ff8     libucrt:syserr.obj
 0002:00004008       ??_C@_0BG@OEMDKMEE@operation?5would?5block@ 00465008     libucrt:syserr.obj
 0002:00004020       __sys_nerr                 00465020     libucrt:syserr.obj
 0002:00004034       ??_C@_1M@HPNHIDJI@?$AAj?$AAa?$AA?9?$AAJ?$AAP@ 00465034     libucrt:mbctype.obj
 0002:00004040       ??_C@_1M@BIBDDEMK@?$AAz?$AAh?$AA?9?$AAC?$AAN@ 00465040     libucrt:mbctype.obj
 0002:0000404c       ??_C@_1M@JLOOOEGK@?$AAk?$AAo?$AA?9?$AAK?$AAR@ 0046504c     libucrt:mbctype.obj
 0002:00004058       ??_C@_1M@CLNBBOPM@?$AAz?$AAh?$AA?9?$AAT?$AAW@ 00465058     libucrt:mbctype.obj
 0002:00004068       ___acrt_rg_language        00465068     libucrt:get_qualified_locale.obj
 0002:00004374       ___acrt_rg_language_count  00465374     libucrt:get_qualified_locale.obj
 0002:00004378       ___acrt_rg_country         00465378     libucrt:get_qualified_locale.obj
 0002:0000448c       ___acrt_rg_country_count   0046548c     libucrt:get_qualified_locale.obj
 0002:00004490       ??_C@_1BC@LLOKLNP@?$AAa?$AAm?$AAe?$AAr?$AAi?$AAc?$AAa?$AAn@ 00465490     libucrt:get_qualified_locale.obj
 0002:000044a4       ??_C@_1CC@HEIGCDGG@?$AAa?$AAm?$AAe?$AAr?$AAi?$AAc?$AAa?$AAn?$AA?5?$AAe?$AAn?$AAg?$AAl?$AAi?$AAs@ 004654a4     libucrt:get_qualified_locale.obj
 0002:000044c8       ??_C@_1CC@IHCNOMIN@?$AAa?$AAm?$AAe?$AAr?$AAi?$AAc?$AAa?$AAn?$AA?9?$AAe?$AAn?$AAg?$AAl?$AAi?$AAs@ 004654c8     libucrt:get_qualified_locale.obj
 0002:000044ec       ??_C@_1BG@GKAGPCGG@?$AAa?$AAu?$AAs?$AAt?$AAr?$AAa?$AAl?$AAi?$AAa?$AAn@ 004654ec     libucrt:get_qualified_locale.obj
 0002:00004504       ??_C@_1BA@GMENCENF@?$AAb?$AAe?$AAl?$AAg?$AAi?$AAa?$AAn@ 00465504     libucrt:get_qualified_locale.obj
 0002:00004514       ??_C@_1BC@PJMIIAAN@?$AAc?$AAa?$AAn?$AAa?$AAd?$AAi?$AAa?$AAn@ 00465514     libucrt:get_qualified_locale.obj
 0002:00004528       ??_C@_17NOIMNFBF@?$AAc?$AAh?$AAh@ 00465528     libucrt:get_qualified_locale.obj
 0002:00004530       ??_C@_17GGDALCHA@?$AAc?$AAh?$AAi@ 00465530     libucrt:get_qualified_locale.obj
 0002:00004538       ??_C@_1BA@NPNJKIBL@?$AAc?$AAh?$AAi?$AAn?$AAe?$AAs?$AAe@ 00465538     libucrt:get_qualified_locale.obj
 0002:00004548       ??_C@_1CC@DINBAMMJ@?$AAc?$AAh?$AAi?$AAn?$AAe?$AAs?$AAe?$AA?9?$AAh?$AAo?$AAn?$AAg?$AAk?$AAo?$AAn@ 00465548     libucrt:get_qualified_locale.obj
 0002:0000456c       ??_C@_1CG@IOBJPACO@?$AAc?$AAh?$AAi?$AAn?$AAe?$AAs?$AAe?$AA?9?$AAs?$AAi?$AAm?$AAp?$AAl?$AAi?$AAf@ 0046556c     libucrt:get_qualified_locale.obj
 0002:00004594       ??_C@_1CE@GAJNDCKG@?$AAc?$AAh?$AAi?$AAn?$AAe?$AAs?$AAe?$AA?9?$AAs?$AAi?$AAn?$AAg?$AAa?$AAp?$AAo@ 00465594     libucrt:get_qualified_locale.obj
 0002:000045b8       ??_C@_1CI@PAJPIOOD@?$AAc?$AAh?$AAi?$AAn?$AAe?$AAs?$AAe?$AA?9?$AAt?$AAr?$AAa?$AAd?$AAi?$AAt?$AAi@ 004655b8     libucrt:get_qualified_locale.obj
 0002:000045e0       ??_C@_1BM@NILJBMMD@?$AAd?$AAu?$AAt?$AAc?$AAh?$AA?9?$AAb?$AAe?$AAl?$AAg?$AAi?$AAa?$AAn@ 004655e0     libucrt:get_qualified_locale.obj
 0002:000045fc       ??_C@_1CC@OOJPJNEJ@?$AAe?$AAn?$AAg?$AAl?$AAi?$AAs?$AAh?$AA?9?$AAa?$AAm?$AAe?$AAr?$AAi?$AAc?$AAa@ 004655fc     libucrt:get_qualified_locale.obj
 0002:00004620       ??_C@_1BI@IOLFEEM@?$AAe?$AAn?$AAg?$AAl?$AAi?$AAs?$AAh?$AA?9?$AAa?$AAu?$AAs@ 00465620     libucrt:get_qualified_locale.obj
 0002:00004638       ??_C@_1BO@HFFNLENJ@?$AAe?$AAn?$AAg?$AAl?$AAi?$AAs?$AAh?$AA?9?$AAb?$AAe?$AAl?$AAi?$AAz?$AAe@ 00465638     libucrt:get_qualified_locale.obj
 0002:00004658       ??_C@_1BI@HAPKJMPO@?$AAe?$AAn?$AAg?$AAl?$AAi?$AAs?$AAh?$AA?9?$AAc?$AAa?$AAn@ 00465658     libucrt:get_qualified_locale.obj
 0002:00004670       ??_C@_1CE@HLNDMIOJ@?$AAe?$AAn?$AAg?$AAl?$AAi?$AAs?$AAh?$AA?9?$AAc?$AAa?$AAr?$AAi?$AAb?$AAb?$AAe@ 00465670     libucrt:get_qualified_locale.obj
 0002:00004694       ??_C@_1BI@LDHJHHAC@?$AAe?$AAn?$AAg?$AAl?$AAi?$AAs?$AAh?$AA?9?$AAi?$AAr?$AAe@ 00465694     libucrt:get_qualified_locale.obj
 0002:000046ac       ??_C@_1CA@NJMMCFOC@?$AAe?$AAn?$AAg?$AAl?$AAi?$AAs?$AAh?$AA?9?$AAj?$AAa?$AAm?$AAa?$AAi?$AAc?$AAa@ 004656ac     libucrt:get_qualified_locale.obj
 0002:000046cc       ??_C@_1BG@BHJEBBGG@?$AAe?$AAn?$AAg?$AAl?$AAi?$AAs?$AAh?$AA?9?$AAn?$AAz@ 004656cc     libucrt:get_qualified_locale.obj
 0002:000046e4       ??_C@_1CK@FGOEJJCO@?$AAe?$AAn?$AAg?$AAl?$AAi?$AAs?$AAh?$AA?9?$AAs?$AAo?$AAu?$AAt?$AAh?$AA?5?$AAa@ 004656e4     libucrt:get_qualified_locale.obj
 0002:00004710       ??_C@_1DE@PDBJPCJ@?$AAe?$AAn?$AAg?$AAl?$AAi?$AAs?$AAh?$AA?9?$AAt?$AAr?$AAi?$AAn?$AAi?$AAd?$AAa@ 00465710     libucrt:get_qualified_locale.obj
 0002:00004744       ??_C@_1BG@JGCANDME@?$AAe?$AAn?$AAg?$AAl?$AAi?$AAs?$AAh?$AA?9?$AAu?$AAk@ 00465744     libucrt:get_qualified_locale.obj
 0002:0000475c       ??_C@_1BG@DINKMLE@?$AAe?$AAn?$AAg?$AAl?$AAi?$AAs?$AAh?$AA?9?$AAu?$AAs@ 0046575c     libucrt:get_qualified_locale.obj
 0002:00004774       ??_C@_1BI@NMFDBHJE@?$AAe?$AAn?$AAg?$AAl?$AAi?$AAs?$AAh?$AA?9?$AAu?$AAs?$AAa@ 00465774     libucrt:get_qualified_locale.obj
 0002:0000478c       ??_C@_1BO@OIHKJKII@?$AAf?$AAr?$AAe?$AAn?$AAc?$AAh?$AA?9?$AAb?$AAe?$AAl?$AAg?$AAi?$AAa?$AAn@ 0046578c     libucrt:get_qualified_locale.obj
 0002:000047ac       ??_C@_1CA@NKAELJKI@?$AAf?$AAr?$AAe?$AAn?$AAc?$AAh?$AA?9?$AAc?$AAa?$AAn?$AAa?$AAd?$AAi?$AAa?$AAn@ 004657ac     libucrt:get_qualified_locale.obj
 0002:000047cc       ??_C@_1CE@MGKCNLGN@?$AAf?$AAr?$AAe?$AAn?$AAc?$AAh?$AA?9?$AAl?$AAu?$AAx?$AAe?$AAm?$AAb?$AAo?$AAu@ 004657cc     libucrt:get_qualified_locale.obj
 0002:000047f0       ??_C@_1BK@CEGEAILM@?$AAf?$AAr?$AAe?$AAn?$AAc?$AAh?$AA?9?$AAs?$AAw?$AAi?$AAs?$AAs@ 004657f0     libucrt:get_qualified_locale.obj
 0002:0000480c       ??_C@_1CA@PAFKEOCC@?$AAg?$AAe?$AAr?$AAm?$AAa?$AAn?$AA?9?$AAa?$AAu?$AAs?$AAt?$AAr?$AAi?$AAa?$AAn@ 0046580c     libucrt:get_qualified_locale.obj
 0002:0000482c       ??_C@_1CI@HCFHGOFD@?$AAg?$AAe?$AAr?$AAm?$AAa?$AAn?$AA?9?$AAl?$AAi?$AAc?$AAh?$AAt?$AAe?$AAn?$AAs@ 0046582c     libucrt:get_qualified_locale.obj
 0002:00004854       ??_C@_1CE@FEDDNPDG@?$AAg?$AAe?$AAr?$AAm?$AAa?$AAn?$AA?9?$AAl?$AAu?$AAx?$AAe?$AAm?$AAb?$AAo?$AAu@ 00465854     libucrt:get_qualified_locale.obj
 0002:00004878       ??_C@_1BK@LIMINNMN@?$AAg?$AAe?$AAr?$AAm?$AAa?$AAn?$AA?9?$AAs?$AAw?$AAi?$AAs?$AAs@ 00465878     libucrt:get_qualified_locale.obj
 0002:00004894       ??_C@_1BM@LGMDBEPD@?$AAi?$AAr?$AAi?$AAs?$AAh?$AA?9?$AAe?$AAn?$AAg?$AAl?$AAi?$AAs?$AAh@ 00465894     libucrt:get_qualified_locale.obj
 0002:000048b0       ??_C@_1BM@NNCFBAEE@?$AAi?$AAt?$AAa?$AAl?$AAi?$AAa?$AAn?$AA?9?$AAs?$AAw?$AAi?$AAs?$AAs@ 004658b0     libucrt:get_qualified_locale.obj
 0002:000048cc       ??_C@_1BE@FEDJNPIB@?$AAn?$AAo?$AAr?$AAw?$AAe?$AAg?$AAi?$AAa?$AAn@ 004658cc     libucrt:get_qualified_locale.obj
 0002:000048e0       ??_C@_1CC@CILKDEIE@?$AAn?$AAo?$AAr?$AAw?$AAe?$AAg?$AAi?$AAa?$AAn?$AA?9?$AAb?$AAo?$AAk?$AAm?$AAa@ 004658e0     libucrt:get_qualified_locale.obj
 0002:00004904       ??_C@_1CE@DHMMHEPL@?$AAn?$AAo?$AAr?$AAw?$AAe?$AAg?$AAi?$AAa?$AAn?$AA?9?$AAn?$AAy?$AAn?$AAo?$AAr@ 00465904     libucrt:get_qualified_locale.obj
 0002:00004928       ??_C@_1CK@OPNMHECD@?$AAp?$AAo?$AAr?$AAt?$AAu?$AAg?$AAu?$AAe?$AAs?$AAe?$AA?9?$AAb?$AAr?$AAa?$AAz@ 00465928     libucrt:get_qualified_locale.obj
 0002:00004954       ??_C@_1CE@KEEHCDB@?$AAs?$AAp?$AAa?$AAn?$AAi?$AAs?$AAh?$AA?9?$AAa?$AAr?$AAg?$AAe?$AAn?$AAt?$AAi@ 00465954     libucrt:get_qualified_locale.obj
 0002:00004978       ??_C@_1CA@GIAOLHJD@?$AAs?$AAp?$AAa?$AAn?$AAi?$AAs?$AAh?$AA?9?$AAb?$AAo?$AAl?$AAi?$AAv?$AAi?$AAa@ 00465978     libucrt:get_qualified_locale.obj
 0002:00004998       ??_C@_1BM@OJNDFNPD@?$AAs?$AAp?$AAa?$AAn?$AAi?$AAs?$AAh?$AA?9?$AAc?$AAh?$AAi?$AAl?$AAe@ 00465998     libucrt:get_qualified_locale.obj
 0002:000049b4       ??_C@_1CC@OCOLPALL@?$AAs?$AAp?$AAa?$AAn?$AAi?$AAs?$AAh?$AA?9?$AAc?$AAo?$AAl?$AAo?$AAm?$AAb?$AAi@ 004659b4     libucrt:get_qualified_locale.obj
 0002:000049d8       ??_C@_1CG@BPOFMKBB@?$AAs?$AAp?$AAa?$AAn?$AAi?$AAs?$AAh?$AA?9?$AAc?$AAo?$AAs?$AAt?$AAa?$AA?5?$AAr@ 004659d8     libucrt:get_qualified_locale.obj
 0002:00004a00       ??_C@_1DG@IGOBAPBB@?$AAs?$AAp?$AAa?$AAn?$AAi?$AAs?$AAh?$AA?9?$AAd?$AAo?$AAm?$AAi?$AAn?$AAi?$AAc@ 00465a00     libucrt:get_qualified_locale.obj
 0002:00004a38       ??_C@_1CA@JHAPGEGI@?$AAs?$AAp?$AAa?$AAn?$AAi?$AAs?$AAh?$AA?9?$AAe?$AAc?$AAu?$AAa?$AAd?$AAo?$AAr@ 00465a38     libucrt:get_qualified_locale.obj
 0002:00004a58       ??_C@_1CI@LAPALJPP@?$AAs?$AAp?$AAa?$AAn?$AAi?$AAs?$AAh?$AA?9?$AAe?$AAl?$AA?5?$AAs?$AAa?$AAl?$AAv@ 00465a58     libucrt:get_qualified_locale.obj
 0002:00004a80       ??_C@_1CE@PDGBOFOM@?$AAs?$AAp?$AAa?$AAn?$AAi?$AAs?$AAh?$AA?9?$AAg?$AAu?$AAa?$AAt?$AAe?$AAm?$AAa@ 00465a80     libucrt:get_qualified_locale.obj
 0002:00004aa4       ??_C@_1CC@NBEBAODI@?$AAs?$AAp?$AAa?$AAn?$AAi?$AAs?$AAh?$AA?9?$AAh?$AAo?$AAn?$AAd?$AAu?$AAr?$AAa@ 00465aa4     libucrt:get_qualified_locale.obj
 0002:00004ac8       ??_C@_1CA@LLKGHBMF@?$AAs?$AAp?$AAa?$AAn?$AAi?$AAs?$AAh?$AA?9?$AAm?$AAe?$AAx?$AAi?$AAc?$AAa?$AAn@ 00465ac8     libucrt:get_qualified_locale.obj
 0002:00004ae8       ??_C@_1BO@LKNDOIGD@?$AAs?$AAp?$AAa?$AAn?$AAi?$AAs?$AAh?$AA?9?$AAm?$AAo?$AAd?$AAe?$AAr?$AAn@ 00465ae8     libucrt:get_qualified_locale.obj
 0002:00004b08       ??_C@_1CE@NMDMOEEB@?$AAs?$AAp?$AAa?$AAn?$AAi?$AAs?$AAh?$AA?9?$AAn?$AAi?$AAc?$AAa?$AAr?$AAa?$AAg@ 00465b08     libucrt:get_qualified_locale.obj
 0002:00004b2c       ??_C@_1BO@LLCBEJGB@?$AAs?$AAp?$AAa?$AAn?$AAi?$AAs?$AAh?$AA?9?$AAp?$AAa?$AAn?$AAa?$AAm?$AAa@ 00465b2c     libucrt:get_qualified_locale.obj
 0002:00004b4c       ??_C@_1CC@FKPGGIHO@?$AAs?$AAp?$AAa?$AAn?$AAi?$AAs?$AAh?$AA?9?$AAp?$AAa?$AAr?$AAa?$AAg?$AAu?$AAa@ 00465b4c     libucrt:get_qualified_locale.obj
 0002:00004b70       ??_C@_1BK@CDEIHOOP@?$AAs?$AAp?$AAa?$AAn?$AAi?$AAs?$AAh?$AA?9?$AAp?$AAe?$AAr?$AAu@ 00465b70     libucrt:get_qualified_locale.obj
 0002:00004b8c       ??_C@_1CI@GAHAKKGP@?$AAs?$AAp?$AAa?$AAn?$AAi?$AAs?$AAh?$AA?9?$AAp?$AAu?$AAe?$AAr?$AAt?$AAo?$AA?5@ 00465b8c     libucrt:get_qualified_locale.obj
 0002:00004bb4       ??_C@_1CA@NKJBCAGP@?$AAs?$AAp?$AAa?$AAn?$AAi?$AAs?$AAh?$AA?9?$AAu?$AAr?$AAu?$AAg?$AAu?$AAa?$AAy@ 00465bb4     libucrt:get_qualified_locale.obj
 0002:00004bd4       ??_C@_1CE@ODILCONM@?$AAs?$AAp?$AAa?$AAn?$AAi?$AAs?$AAh?$AA?9?$AAv?$AAe?$AAn?$AAe?$AAz?$AAu?$AAe@ 00465bd4     libucrt:get_qualified_locale.obj
 0002:00004bf8       ??_C@_1CA@OBNMCGFO@?$AAs?$AAw?$AAe?$AAd?$AAi?$AAs?$AAh?$AA?9?$AAf?$AAi?$AAn?$AAl?$AAa?$AAn?$AAd@ 00465bf8     libucrt:get_qualified_locale.obj
 0002:00004c18       ??_C@_1M@PIPDDPPI@?$AAs?$AAw?$AAi?$AAs?$AAs@ 00465c18     libucrt:get_qualified_locale.obj
 0002:00004c24       ??_C@_15PJPFLCCM@?$AAu?$AAk@ 00465c24     libucrt:get_qualified_locale.obj
 0002:00004c2c       ??_C@_15GMFIMNFM@?$AAu?$AAs@ 00465c2c     libucrt:get_qualified_locale.obj
 0002:00004c34       ??_C@_17HAEBFAGL@?$AAu?$AAs?$AAa@ 00465c34     libucrt:get_qualified_locale.obj
 0002:00004c3c       ??_C@_1BA@DPFJEPHB@?$AAa?$AAm?$AAe?$AAr?$AAi?$AAc?$AAa@ 00465c3c     libucrt:get_qualified_locale.obj
 0002:00004c4c       ??_C@_1BA@ELOGGFK@?$AAb?$AAr?$AAi?$AAt?$AAa?$AAi?$AAn@ 00465c4c     libucrt:get_qualified_locale.obj
 0002:00004c5c       ??_C@_1M@GHBGIGDA@?$AAc?$AAh?$AAi?$AAn?$AAa@ 00465c5c     libucrt:get_qualified_locale.obj
 0002:00004c68       ??_C@_1M@NCHEJOPO@?$AAc?$AAz?$AAe?$AAc?$AAh@ 00465c68     libucrt:get_qualified_locale.obj
 0002:00004c74       ??_C@_1BA@BKPAPBLA@?$AAe?$AAn?$AAg?$AAl?$AAa?$AAn?$AAd@ 00465c74     libucrt:get_qualified_locale.obj
 0002:00004c84       ??_C@_1BM@HKBCKIPC@?$AAg?$AAr?$AAe?$AAa?$AAt?$AA?5?$AAb?$AAr?$AAi?$AAt?$AAa?$AAi?$AAn@ 00465c84     libucrt:get_qualified_locale.obj
 0002:00004ca0       ??_C@_1BA@PPCHPGJB@?$AAh?$AAo?$AAl?$AAl?$AAa?$AAn?$AAd@ 00465ca0     libucrt:get_qualified_locale.obj
 0002:00004cb0       ??_C@_1BE@JBMPEGDG@?$AAh?$AAo?$AAn?$AAg?$AA?9?$AAk?$AAo?$AAn?$AAg@ 00465cb0     libucrt:get_qualified_locale.obj
 0002:00004cc4       ??_C@_1BI@KOELBBPJ@?$AAn?$AAe?$AAw?$AA?9?$AAz?$AAe?$AAa?$AAl?$AAa?$AAn?$AAd@ 00465cc4     libucrt:get_qualified_locale.obj
 0002:00004cdc       ??_C@_15HIEBHAIO@?$AAn?$AAz@ 00465cdc     libucrt:get_qualified_locale.obj
 0002:00004ce4       ??_C@_1BC@CHBCPFPI@?$AAp?$AAr?$AA?5?$AAc?$AAh?$AAi?$AAn?$AAa@ 00465ce4     libucrt:get_qualified_locale.obj
 0002:00004cf8       ??_C@_1BC@JAOIIFKD@?$AAp?$AAr?$AA?9?$AAc?$AAh?$AAi?$AAn?$AAa@ 00465cf8     libucrt:get_qualified_locale.obj
 0002:00004d0c       ??_C@_1BI@BEHPPHKC@?$AAp?$AAu?$AAe?$AAr?$AAt?$AAo?$AA?9?$AAr?$AAi?$AAc?$AAo@ 00465d0c     libucrt:get_qualified_locale.obj
 0002:00004d24       ??_C@_1O@PAEOFKDI@?$AAs?$AAl?$AAo?$AAv?$AAa?$AAk@ 00465d24     libucrt:get_qualified_locale.obj
 0002:00004d34       ??_C@_1BK@FIHMCKAM@?$AAs?$AAo?$AAu?$AAt?$AAh?$AA?5?$AAa?$AAf?$AAr?$AAi?$AAc?$AAa@ 00465d34     libucrt:get_qualified_locale.obj
 0002:00004d50       ??_C@_1BI@NAEOODKB@?$AAs?$AAo?$AAu?$AAt?$AAh?$AA?5?$AAk?$AAo?$AAr?$AAe?$AAa@ 00465d50     libucrt:get_qualified_locale.obj
 0002:00004d68       ??_C@_1BK@FBDGGIFF@?$AAs?$AAo?$AAu?$AAt?$AAh?$AA?9?$AAa?$AAf?$AAr?$AAi?$AAc?$AAa@ 00465d68     libucrt:get_qualified_locale.obj
 0002:00004d84       ??_C@_1BI@GHLEJDPK@?$AAs?$AAo?$AAu?$AAt?$AAh?$AA?9?$AAk?$AAo?$AAr?$AAe?$AAa@ 00465d84     libucrt:get_qualified_locale.obj
 0002:00004d9c       ??_C@_1CE@PLHLOMJF@?$AAt?$AAr?$AAi?$AAn?$AAi?$AAd?$AAa?$AAd?$AA?5?$AA?$CG?$AA?5?$AAt?$AAo?$AAb?$AAa@ 00465d9c     libucrt:get_qualified_locale.obj
 0002:00004dc0       ??_C@_1BO@MODIMHHI@?$AAu?$AAn?$AAi?$AAt?$AAe?$AAd?$AA?9?$AAk?$AAi?$AAn?$AAg?$AAd?$AAo?$AAm@ 00465dc0     libucrt:get_qualified_locale.obj
 0002:00004de0       ??_C@_1BM@FFHJONBJ@?$AAu?$AAn?$AAi?$AAt?$AAe?$AAd?$AA?9?$AAs?$AAt?$AAa?$AAt?$AAe?$AAs@ 00465de0     libucrt:get_qualified_locale.obj
 0002:00004dfc       ??_C@_19MPDNHKDG@?$AAu?$AAt?$AAf?$AA8@ 00465dfc     libucrt:get_qualified_locale.obj
 0002:00004e08       ??_C@_17DNCLJFIF@?$AAA?$AAC?$AAP@ 00465e08     libucrt:get_qualified_locale.obj
 0002:00004e10       ??_C@_1M@FPEIIFAM@?$AAu?$AAt?$AAf?$AA?9?$AA8@ 00465e10     libucrt:get_qualified_locale.obj
 0002:00004e1c       ??_C@_17CIKBIHLH@?$AAO?$AAC?$AAP@ 00465e1c     libucrt:get_qualified_locale.obj
 0002:00004e24       ___rglangidNotDefault      00465e24     libucrt:getqloc_downlevel.obj
 0002:00005558       ??_C@_15EMKDOKLE@?$AAa?$AAr@ 00466558     libucrt:lcidtoname_downlevel.obj
 0002:00005560       ??_C@_15KNPADPLH@?$AAb?$AAg@ 00466560     libucrt:lcidtoname_downlevel.obj
 0002:00005568       ??_C@_15EDMHLDMO@?$AAc?$AAa@ 00466568     libucrt:lcidtoname_downlevel.obj
 0002:00005570       ??_C@_1O@BPEAJADD@?$AAz?$AAh?$AA?9?$AAC?$AAH?$AAS@ 00466570     libucrt:lcidtoname_downlevel.obj
 0002:00005580       ??_C@_15LJNHCMNK@?$AAc?$AAs@ 00466580     libucrt:lcidtoname_downlevel.obj
 0002:00005588       ??_C@_15FOMCIDHG@?$AAd?$AAa@ 00466588     libucrt:lcidtoname_downlevel.obj
 0002:00005590       ??_C@_15NBKABECB@?$AAd?$AAe@ 00466590     libucrt:lcidtoname_downlevel.obj
 0002:00005598       ??_C@_15GHPEIIAO@?$AAe?$AAl@ 00466598     libucrt:lcidtoname_downlevel.obj
 0002:000055a0       ??_C@_15MNPNEAIF@?$AAe?$AAn@ 004665a0     libucrt:lcidtoname_downlevel.obj
 0002:000055a8       ??_C@_15GPIOMPMH@?$AAe?$AAs@ 004665a8     libucrt:lcidtoname_downlevel.obj
 0002:000055b0       ??_C@_15NGLOAKJC@?$AAf?$AAi@ 004665b0     libucrt:lcidtoname_downlevel.obj
 0002:000055b8       ??_C@_15FBKGNKAM@?$AAf?$AAr@ 004665b8     libucrt:lcidtoname_downlevel.obj
 0002:000055c0       ??_C@_15KGGCNEFK@?$AAh?$AAe@ 004665c0     libucrt:lcidtoname_downlevel.obj
 0002:000055c8       ??_C@_15PGHLIDMF@?$AAh?$AAu@ 004665c8     libucrt:lcidtoname_downlevel.obj
 0002:000055d0       ??_C@_15BIEMAPLM@?$AAi?$AAs@ 004665d0     libucrt:lcidtoname_downlevel.obj
 0002:000055d8       ??_C@_15IFJLDHAF@?$AAi?$AAt@ 004665d8     libucrt:lcidtoname_downlevel.obj
 0002:000055e0       ??_C@_15GEMIOCAG@?$AAj?$AAa@ 004665e0     libucrt:lcidtoname_downlevel.obj
 0002:000055e8       ??_C@_15EPELEGJA@?$AAk?$AAo@ 004665e8     libucrt:lcidtoname_downlevel.obj
 0002:000055f0       ??_C@_15NDDHIMN@?$AAn?$AAl@ 004665f0     libucrt:lcidtoname_downlevel.obj
 0002:000055f8       ??_C@_15BPIGNHCD@?$AAn?$AAo@ 004665f8     libucrt:lcidtoname_downlevel.obj
 0002:00005600       ??_C@_15DEOPBLCG@?$AAp?$AAl@ 00466600     libucrt:lcidtoname_downlevel.obj
 0002:00005608       ??_C@_15KBECGEFG@?$AAp?$AAt@ 00466608     libucrt:lcidtoname_downlevel.obj
 0002:00005610       ??_C@_15GLJCBFMD@?$AAr?$AAo@ 00466610     libucrt:lcidtoname_downlevel.obj
 0002:00005618       ??_C@_15FEDGKCDI@?$AAr?$AAu@ 00466618     libucrt:lcidtoname_downlevel.obj
 0002:00005620       ??_C@_15GLKMLLHM@?$AAh?$AAr@ 00466620     libucrt:lcidtoname_downlevel.obj
 0002:00005628       ??_C@_15CPKMFBDB@?$AAs?$AAk@ 00466628     libucrt:lcidtoname_downlevel.obj
 0002:00005630       ??_C@_15BAAIOGMK@?$AAs?$AAq@ 00466630     libucrt:lcidtoname_downlevel.obj
 0002:00005638       ??_C@_15INNPNOHD@?$AAs?$AAv@ 00466638     libucrt:lcidtoname_downlevel.obj
 0002:00005640       ??_C@_15CABMMOGH@?$AAt?$AAh@ 00466640     libucrt:lcidtoname_downlevel.obj
 0002:00005648       ??_C@_15BPLIHJJM@?$AAt?$AAr@ 00466648     libucrt:lcidtoname_downlevel.obj
 0002:00005650       ??_C@_15NEOEKKDJ@?$AAu?$AAr@ 00466650     libucrt:lcidtoname_downlevel.obj
 0002:00005658       ??_C@_15NFICGAJK@?$AAi?$AAd@ 00466658     libucrt:lcidtoname_downlevel.obj
 0002:00005660       ??_C@_15HPJPHDM@?$AAb?$AAe@ 00466660     libucrt:lcidtoname_downlevel.obj
 0002:00005668       ??_C@_15LCHLGJII@?$AAs?$AAl@ 00466668     libucrt:lcidtoname_downlevel.obj
 0002:00005670       ??_C@_15PCFJPHHO@?$AAe?$AAt@ 00466670     libucrt:lcidtoname_downlevel.obj
 0002:00005678       ??_C@_15HPFPGODN@?$AAl?$AAv@ 00466678     libucrt:lcidtoname_downlevel.obj
 0002:00005680       ??_C@_15NFFGKGLG@?$AAl?$AAt@ 00466680     libucrt:lcidtoname_downlevel.obj
 0002:00005688       ??_C@_15BDAKCCHN@?$AAf?$AAa@ 00466688     libucrt:lcidtoname_downlevel.obj
 0002:00005690       ??_C@_15NFGIAIAJ@?$AAv?$AAi@ 00466690     libucrt:lcidtoname_downlevel.obj
 0002:00005698       ??_C@_15LMKNDMHN@?$AAh?$AAy@ 00466698     libucrt:lcidtoname_downlevel.obj
 0002:000056a0       ??_C@_15IJBHMCFL@?$AAa?$AAz@ 004666a0     libucrt:lcidtoname_downlevel.obj
 0002:000056a8       ??_C@_15EKOFJABL@?$AAe?$AAu@ 004666a8     libucrt:lcidtoname_downlevel.obj
 0002:000056b0       ??_C@_15BGHADCNK@?$AAm?$AAk@ 004666b0     libucrt:lcidtoname_downlevel.obj
 0002:000056b8       ??_C@_15JDNICKHM@?$AAa?$AAf@ 004666b8     libucrt:lcidtoname_downlevel.obj
 0002:000056c0       ??_C@_15KPJEDBKD@?$AAk?$AAa@ 004666c0     libucrt:lcidtoname_downlevel.obj
 0002:000056c8       ??_C@_15PDNFFFEO@?$AAf?$AAo@ 004666c8     libucrt:lcidtoname_downlevel.obj
 0002:000056d0       ??_C@_15OMLEGLOC@?$AAh?$AAi@ 004666d0     libucrt:lcidtoname_downlevel.obj
 0002:000056d8       ??_C@_15IDNNENKK@?$AAm?$AAs@ 004666d8     libucrt:lcidtoname_downlevel.obj
 0002:000056e0       ??_C@_15MACJNBMH@?$AAk?$AAk@ 004666e0     libucrt:lcidtoname_downlevel.obj
 0002:000056e8       ??_C@_15DKDJEOND@?$AAk?$AAy@ 004666e8     libucrt:lcidtoname_downlevel.obj
 0002:000056f0       ??_C@_15DFGDLJBG@?$AAs?$AAw@ 004666f0     libucrt:lcidtoname_downlevel.obj
 0002:000056f8       ??_C@_15BBFAICNG@?$AAu?$AAz@ 004666f8     libucrt:lcidtoname_downlevel.obj
 0002:00005700       ??_C@_15DKNDCGEA@?$AAt?$AAt@ 00466700     libucrt:lcidtoname_downlevel.obj
 0002:00005708       ??_C@_15MGIFMDPL@?$AAp?$AAa@ 00466708     libucrt:lcidtoname_downlevel.obj
 0002:00005710       ??_C@_15HCNDBBA@?$AAg?$AAu@ 00466710     libucrt:lcidtoname_downlevel.obj
 0002:00005718       ??_C@_15FNBEIBON@?$AAt?$AAa@ 00466718     libucrt:lcidtoname_downlevel.obj
 0002:00005720       ??_C@_15NCHGBGLK@?$AAt?$AAe@ 00466720     libucrt:lcidtoname_downlevel.obj
 0002:00005728       ??_C@_15PHPHCBPF@?$AAk?$AAn@ 00466728     libucrt:lcidtoname_downlevel.obj
 0002:00005730       ??_C@_15DLGBCKMP@?$AAm?$AAr@ 00466730     libucrt:lcidtoname_downlevel.obj
 0002:00005738       ??_C@_15EABBLBFF@?$AAs?$AAa@ 00466738     libucrt:lcidtoname_downlevel.obj
 0002:00005740       ??_C@_15CBKOMCOI@?$AAm?$AAn@ 00466740     libucrt:lcidtoname_downlevel.obj
 0002:00005748       ??_C@_15CKDMCJAF@?$AAg?$AAl@ 00466748     libucrt:lcidtoname_downlevel.obj
 0002:00005750       ??_C@_17CNJFBPG@?$AAk?$AAo?$AAk@ 00466750     libucrt:lcidtoname_downlevel.obj
 0002:00005758       ??_C@_17FFBJICPL@?$AAs?$AAy?$AAr@ 00466758     libucrt:lcidtoname_downlevel.obj
 0002:00005760       ??_C@_17KPNDCPAF@?$AAd?$AAi?$AAv@ 00466760     libucrt:lcidtoname_downlevel.obj
 0002:00005768       ??_C@_11LOCGONAA@@         00466768     libucrt:lcidtoname_downlevel.obj
 0002:0000576c       ??_C@_1M@OKAHONE@?$AAa?$AAr?$AA?9?$AAS?$AAA@ 0046676c     libucrt:lcidtoname_downlevel.obj
 0002:00005778       ??_C@_1M@FFFIGIGK@?$AAb?$AAg?$AA?9?$AAB?$AAG@ 00466778     libucrt:lcidtoname_downlevel.obj
 0002:00005784       ??_C@_1M@BJNKEDC@?$AAc?$AAa?$AA?9?$AAE?$AAS@ 00466784     libucrt:lcidtoname_downlevel.obj
 0002:00005790       ??_C@_1M@IJJHFJHA@?$AAc?$AAs?$AA?9?$AAC?$AAZ@ 00466790     libucrt:lcidtoname_downlevel.obj
 0002:0000579c       ??_C@_1M@CLPEOBGI@?$AAd?$AAa?$AA?9?$AAD?$AAK@ 0046679c     libucrt:lcidtoname_downlevel.obj
 0002:000057a8       ??_C@_1M@MCMADGCB@?$AAd?$AAe?$AA?9?$AAD?$AAE@ 004667a8     libucrt:lcidtoname_downlevel.obj
 0002:000057b4       ??_C@_1M@OOCKEMAM@?$AAe?$AAl?$AA?9?$AAG?$AAR@ 004667b4     libucrt:lcidtoname_downlevel.obj
 0002:000057c0       ??_C@_1M@DDNJFGID@?$AAf?$AAi?$AA?9?$AAF?$AAI@ 004667c0     libucrt:lcidtoname_downlevel.obj
 0002:000057cc       ??_C@_1M@GLIPPMAC@?$AAf?$AAr?$AA?9?$AAF?$AAR@ 004667cc     libucrt:lcidtoname_downlevel.obj
 0002:000057d8       ??_C@_1M@GFMCHPE@?$AAh?$AAe?$AA?9?$AAI?$AAL@ 004667d8     libucrt:lcidtoname_downlevel.obj
 0002:000057e4       ??_C@_1M@MHLPGNKM@?$AAh?$AAu?$AA?9?$AAH?$AAU@ 004667e4     libucrt:lcidtoname_downlevel.obj
 0002:000057f0       ??_C@_1M@LPDDNNPN@?$AAi?$AAs?$AA?9?$AAI?$AAS@ 004667f0     libucrt:lcidtoname_downlevel.obj
 0002:000057fc       ??_C@_1M@MADIPODN@?$AAi?$AAt?$AA?9?$AAI?$AAT@ 004667fc     libucrt:lcidtoname_downlevel.obj
 0002:00005808       ??_C@_1M@IHBJJGG@?$AAn?$AAl?$AA?9?$AAN?$AAL@ 00466808     libucrt:lcidtoname_downlevel.obj
 0002:00005814       ??_C@_1M@EANAGDL@?$AAn?$AAb?$AA?9?$AAN?$AAO@ 00466814     libucrt:lcidtoname_downlevel.obj
 0002:00005820       ??_C@_1M@NEIEMEGP@?$AAp?$AAl?$AA?9?$AAP?$AAL@ 00466820     libucrt:lcidtoname_downlevel.obj
 0002:0000582c       ??_C@_1M@BOCFIGEP@?$AAp?$AAt?$AA?9?$AAB?$AAR@ 0046682c     libucrt:lcidtoname_downlevel.obj
 0002:00005838       ??_C@_1M@IMPFOPBG@?$AAr?$AAo?$AA?9?$AAR?$AAO@ 00466838     libucrt:lcidtoname_downlevel.obj
 0002:00005844       ??_C@_1M@IDNNEJMM@?$AAr?$AAu?$AA?9?$AAR?$AAU@ 00466844     libucrt:lcidtoname_downlevel.obj
 0002:00005850       ??_C@_1M@LILEEOGM@?$AAh?$AAr?$AA?9?$AAH?$AAR@ 00466850     libucrt:lcidtoname_downlevel.obj
 0002:0000585c       ??_C@_1M@FKIFEHPB@?$AAs?$AAk?$AA?9?$AAS?$AAK@ 0046685c     libucrt:lcidtoname_downlevel.obj
 0002:00005868       ??_C@_1M@LJMAMNPJ@?$AAs?$AAq?$AA?9?$AAA?$AAL@ 00466868     libucrt:lcidtoname_downlevel.obj
 0002:00005874       ??_C@_1M@GIAKDKJK@?$AAs?$AAv?$AA?9?$AAS?$AAE@ 00466874     libucrt:lcidtoname_downlevel.obj
 0002:00005880       ??_C@_1M@MKJKIKCL@?$AAt?$AAh?$AA?9?$AAT?$AAH@ 00466880     libucrt:lcidtoname_downlevel.obj
 0002:0000588c       ??_C@_1M@MFLCCMPB@?$AAt?$AAr?$AA?9?$AAT?$AAR@ 0046688c     libucrt:lcidtoname_downlevel.obj
 0002:00005898       ??_C@_1M@OIJHDKJN@?$AAu?$AAr?$AA?9?$AAP?$AAK@ 00466898     libucrt:lcidtoname_downlevel.obj
 0002:000058a4       ??_C@_1M@LHIPCIEK@?$AAi?$AAd?$AA?9?$AAI?$AAD@ 004668a4     libucrt:lcidtoname_downlevel.obj
 0002:000058b0       ??_C@_1M@MFMOBGI@?$AAu?$AAk?$AA?9?$AAU?$AAA@ 004668b0     libucrt:lcidtoname_downlevel.obj
 0002:000058bc       ??_C@_1M@OBGLJIPL@?$AAb?$AAe?$AA?9?$AAB?$AAY@ 004668bc     libucrt:lcidtoname_downlevel.obj
 0002:000058c8       ??_C@_1M@BCFAJEAD@?$AAs?$AAl?$AA?9?$AAS?$AAI@ 004668c8     libucrt:lcidtoname_downlevel.obj
 0002:000058d4       ??_C@_1M@FKFFEDDN@?$AAe?$AAt?$AA?9?$AAE?$AAE@ 004668d4     libucrt:lcidtoname_downlevel.obj
 0002:000058e0       ??_C@_1M@KGKKAACI@?$AAl?$AAv?$AA?9?$AAL?$AAV@ 004668e0     libucrt:lcidtoname_downlevel.obj
 0002:000058ec       ??_C@_1M@IFGBIJO@?$AAl?$AAt?$AA?9?$AAL?$AAT@ 004668ec     libucrt:lcidtoname_downlevel.obj
 0002:000058f8       ??_C@_1M@FGEAHEDM@?$AAf?$AAa?$AA?9?$AAI?$AAR@ 004668f8     libucrt:lcidtoname_downlevel.obj
 0002:00005904       ??_C@_1M@KBMAIBFN@?$AAv?$AAi?$AA?9?$AAV?$AAN@ 00466904     libucrt:lcidtoname_downlevel.obj
 0002:00005910       ??_C@_1M@GPCBKDJK@?$AAh?$AAy?$AA?9?$AAA?$AAM@ 00466910     libucrt:lcidtoname_downlevel.obj
 0002:0000591c       ??_C@_1BG@BECMDDJB@?$AAa?$AAz?$AA?9?$AAA?$AAZ?$AA?9?$AAL?$AAa?$AAt?$AAn@ 0046691c     libucrt:lcidtoname_downlevel.obj
 0002:00005934       ??_C@_1M@MAOFCAEA@?$AAe?$AAu?$AA?9?$AAE?$AAS@ 00466934     libucrt:lcidtoname_downlevel.obj
 0002:00005940       ??_C@_1M@IGHABKPI@?$AAm?$AAk?$AA?9?$AAM?$AAK@ 00466940     libucrt:lcidtoname_downlevel.obj
 0002:0000594c       ??_C@_1M@IAIGNEJG@?$AAt?$AAn?$AA?9?$AAZ?$AAA@ 0046694c     libucrt:lcidtoname_downlevel.obj
 0002:00005958       ??_C@_1M@IIJCOJFA@?$AAx?$AAh?$AA?9?$AAZ?$AAA@ 00466958     libucrt:lcidtoname_downlevel.obj
 0002:00005964       ??_C@_1M@LGPJHNJH@?$AAz?$AAu?$AA?9?$AAZ?$AAA@ 00466964     libucrt:lcidtoname_downlevel.obj
 0002:00005970       ??_C@_1M@HOKAOIO@?$AAa?$AAf?$AA?9?$AAZ?$AAA@ 00466970     libucrt:lcidtoname_downlevel.obj
 0002:0000597c       ??_C@_1M@DPCLHLIE@?$AAk?$AAa?$AA?9?$AAG?$AAE@ 0046697c     libucrt:lcidtoname_downlevel.obj
 0002:00005988       ??_C@_1M@BLKMHJBI@?$AAf?$AAo?$AA?9?$AAF?$AAO@ 00466988     libucrt:lcidtoname_downlevel.obj
 0002:00005994       ??_C@_1M@LGGJAPPB@?$AAh?$AAi?$AA?9?$AAI?$AAN@ 00466994     libucrt:lcidtoname_downlevel.obj
 0002:000059a0       ??_C@_1M@FIKPIHFE@?$AAm?$AAt?$AA?9?$AAM?$AAT@ 004669a0     libucrt:lcidtoname_downlevel.obj
 0002:000059ac       ??_C@_1M@HEGGPBFA@?$AAs?$AAe?$AA?9?$AAN?$AAO@ 004669ac     libucrt:lcidtoname_downlevel.obj
 0002:000059b8       ??_C@_1M@EIBJEEPA@?$AAm?$AAs?$AA?9?$AAM?$AAY@ 004669b8     libucrt:lcidtoname_downlevel.obj
 0002:000059c4       ??_C@_1M@FHLBGMPP@?$AAk?$AAk?$AA?9?$AAK?$AAZ@ 004669c4     libucrt:lcidtoname_downlevel.obj
 0002:000059d0       ??_C@_1M@NGJJLCGI@?$AAk?$AAy?$AA?9?$AAK?$AAG@ 004669d0     libucrt:lcidtoname_downlevel.obj
 0002:000059dc       ??_C@_1M@GIENNBFC@?$AAs?$AAw?$AA?9?$AAK?$AAE@ 004669dc     libucrt:lcidtoname_downlevel.obj
 0002:000059e8       ??_C@_1BG@NDGMJIMJ@?$AAu?$AAz?$AA?9?$AAU?$AAZ?$AA?9?$AAL?$AAa?$AAt?$AAn@ 004669e8     libucrt:lcidtoname_downlevel.obj
 0002:00005a00       ??_C@_1M@IDCCIHBC@?$AAt?$AAt?$AA?9?$AAR?$AAU@ 00466a00     libucrt:lcidtoname_downlevel.obj
 0002:00005a0c       ??_C@_1M@LOICPMOJ@?$AAb?$AAn?$AA?9?$AAI?$AAN@ 00466a0c     libucrt:lcidtoname_downlevel.obj
 0002:00005a18       ??_C@_1M@KPKKNEAH@?$AAp?$AAa?$AA?9?$AAI?$AAN@ 00466a18     libucrt:lcidtoname_downlevel.obj
 0002:00005a24       ??_C@_1M@PJGPPBOG@?$AAg?$AAu?$AA?9?$AAI?$AAN@ 00466a24     libucrt:lcidtoname_downlevel.obj
 0002:00005a30       ??_C@_1M@KMKMOPHI@?$AAt?$AAa?$AA?9?$AAI?$AAN@ 00466a30     libucrt:lcidtoname_downlevel.obj
 0002:00005a3c       ??_C@_1M@KFEHEPAC@?$AAt?$AAe?$AA?9?$AAI?$AAN@ 00466a3c     libucrt:lcidtoname_downlevel.obj
 0002:00005a48       ??_C@_1M@CDCLMGHI@?$AAk?$AAn?$AA?9?$AAI?$AAN@ 00466a48     libucrt:lcidtoname_downlevel.obj
 0002:00005a54       ??_C@_1M@MIODLDKF@?$AAm?$AAl?$AA?9?$AAI?$AAN@ 00466a54     libucrt:lcidtoname_downlevel.obj
 0002:00005a60       ??_C@_1M@PBIEACPO@?$AAm?$AAr?$AA?9?$AAI?$AAN@ 00466a60     libucrt:lcidtoname_downlevel.obj
 0002:00005a6c       ??_C@_1M@NIDEAGPH@?$AAs?$AAa?$AA?9?$AAI?$AAN@ 00466a6c     libucrt:lcidtoname_downlevel.obj
 0002:00005a78       ??_C@_1M@FHIHCBIO@?$AAm?$AAn?$AA?9?$AAM?$AAN@ 00466a78     libucrt:lcidtoname_downlevel.obj
 0002:00005a84       ??_C@_1M@JAIJPENP@?$AAc?$AAy?$AA?9?$AAG?$AAB@ 00466a84     libucrt:lcidtoname_downlevel.obj
 0002:00005a90       ??_C@_1M@PHGFBEPN@?$AAg?$AAl?$AA?9?$AAE?$AAS@ 00466a90     libucrt:lcidtoname_downlevel.obj
 0002:00005a9c       ??_C@_1O@KPIPDNCP@?$AAk?$AAo?$AAk?$AA?9?$AAI?$AAN@ 00466a9c     libucrt:lcidtoname_downlevel.obj
 0002:00005aac       ??_C@_1O@KNHJLDJA@?$AAs?$AAy?$AAr?$AA?9?$AAS?$AAY@ 00466aac     libucrt:lcidtoname_downlevel.obj
 0002:00005abc       ??_C@_1O@MKEKBLAH@?$AAd?$AAi?$AAv?$AA?9?$AAM?$AAV@ 00466abc     libucrt:lcidtoname_downlevel.obj
 0002:00005acc       ??_C@_1O@OHDCKDDF@?$AAq?$AAu?$AAz?$AA?9?$AAB?$AAO@ 00466acc     libucrt:lcidtoname_downlevel.obj
 0002:00005adc       ??_C@_1M@LEPJNLFD@?$AAn?$AAs?$AA?9?$AAZ?$AAA@ 00466adc     libucrt:lcidtoname_downlevel.obj
 0002:00005ae8       ??_C@_1M@OMLEIIJB@?$AAm?$AAi?$AA?9?$AAN?$AAZ@ 00466ae8     libucrt:lcidtoname_downlevel.obj
 0002:00005af4       ??_C@_1M@PMPEAILG@?$AAa?$AAr?$AA?9?$AAI?$AAQ@ 00466af4     libucrt:lcidtoname_downlevel.obj
 0002:00005b00       ??_C@_1M@CNKPNOEE@?$AAd?$AAe?$AA?9?$AAC?$AAH@ 00466b00     libucrt:lcidtoname_downlevel.obj
 0002:00005b0c       ??_C@_1M@LKMGMLKO@?$AAe?$AAn?$AA?9?$AAG?$AAB@ 00466b0c     libucrt:lcidtoname_downlevel.obj
 0002:00005b18       ??_C@_1M@PGKJFFGL@?$AAe?$AAs?$AA?9?$AAM?$AAX@ 00466b18     libucrt:lcidtoname_downlevel.obj
 0002:00005b24       ??_C@_1M@DNNANBDC@?$AAf?$AAr?$AA?9?$AAB?$AAE@ 00466b24     libucrt:lcidtoname_downlevel.obj
 0002:00005b30       ??_C@_1M@HLGMDFHM@?$AAi?$AAt?$AA?9?$AAC?$AAH@ 00466b30     libucrt:lcidtoname_downlevel.obj
 0002:00005b3c       ??_C@_1M@CLLBGJH@?$AAn?$AAl?$AA?9?$AAB?$AAE@ 00466b3c     libucrt:lcidtoname_downlevel.obj
 0002:00005b48       ??_C@_1M@BODBOGLF@?$AAn?$AAn?$AA?9?$AAN?$AAO@ 00466b48     libucrt:lcidtoname_downlevel.obj
 0002:00005b54       ??_C@_1M@HFFAHKAD@?$AAp?$AAt?$AA?9?$AAP?$AAT@ 00466b54     libucrt:lcidtoname_downlevel.obj
 0002:00005b60       ??_C@_1BG@LNOAKHIE@?$AAs?$AAr?$AA?9?$AAS?$AAP?$AA?9?$AAL?$AAa?$AAt?$AAn@ 00466b60     libucrt:lcidtoname_downlevel.obj
 0002:00005b78       ??_C@_1M@HBMHBGAK@?$AAs?$AAv?$AA?9?$AAF?$AAI@ 00466b78     libucrt:lcidtoname_downlevel.obj
 0002:00005b84       ??_C@_1BG@DGCJGJBE@?$AAa?$AAz?$AA?9?$AAA?$AAZ?$AA?9?$AAC?$AAy?$AAr?$AAl@ 00466b84     libucrt:lcidtoname_downlevel.obj
 0002:00005b9c       ??_C@_1M@KEJDAAHB@?$AAs?$AAe?$AA?9?$AAS?$AAE@ 00466b9c     libucrt:lcidtoname_downlevel.obj
 0002:00005ba8       ??_C@_1M@HEIBJJAD@?$AAm?$AAs?$AA?9?$AAB?$AAN@ 00466ba8     libucrt:lcidtoname_downlevel.obj
 0002:00005bb4       ??_C@_1BG@PBGJMCEM@?$AAu?$AAz?$AA?9?$AAU?$AAZ?$AA?9?$AAC?$AAy?$AAr?$AAl@ 00466bb4     libucrt:lcidtoname_downlevel.obj
 0002:00005bcc       ??_C@_1O@LAOBCMDF@?$AAq?$AAu?$AAz?$AA?9?$AAE?$AAC@ 00466bcc     libucrt:lcidtoname_downlevel.obj
 0002:00005bdc       ??_C@_1M@POEEMAIO@?$AAa?$AAr?$AA?9?$AAE?$AAG@ 00466bdc     libucrt:lcidtoname_downlevel.obj
 0002:00005be8       ??_C@_1M@EFAKDEDL@?$AAz?$AAh?$AA?9?$AAH?$AAK@ 00466be8     libucrt:lcidtoname_downlevel.obj
 0002:00005bf4       ??_C@_1M@HKKIJHGI@?$AAd?$AAe?$AA?9?$AAA?$AAT@ 00466bf4     libucrt:lcidtoname_downlevel.obj
 0002:00005c00       ??_C@_1M@KBFBEHJF@?$AAe?$AAn?$AA?9?$AAA?$AAU@ 00466c00     libucrt:lcidtoname_downlevel.obj
 0002:00005c0c       ??_C@_1M@MNPLFAAH@?$AAe?$AAs?$AA?9?$AAE?$AAS@ 00466c0c     libucrt:lcidtoname_downlevel.obj
 0002:00005c18       ??_C@_1M@HJOOJFMA@?$AAf?$AAr?$AA?9?$AAC?$AAA@ 00466c18     libucrt:lcidtoname_downlevel.obj
 0002:00005c24       ??_C@_1BG@JPOFPNAB@?$AAs?$AAr?$AA?9?$AAS?$AAP?$AA?9?$AAC?$AAy?$AAr?$AAl@ 00466c24     libucrt:lcidtoname_downlevel.obj
 0002:00005c3c       ??_C@_1M@LNFOCMOB@?$AAs?$AAe?$AA?9?$AAF?$AAI@ 00466c3c     libucrt:lcidtoname_downlevel.obj
 0002:00005c48       ??_C@_1O@MGJBOAMB@?$AAq?$AAu?$AAz?$AA?9?$AAP?$AAE@ 00466c48     libucrt:lcidtoname_downlevel.obj
 0002:00005c58       ??_C@_1M@GJINLBOK@?$AAa?$AAr?$AA?9?$AAL?$AAY@ 00466c58     libucrt:lcidtoname_downlevel.obj
 0002:00005c64       ??_C@_1M@GGMNHJNL@?$AAz?$AAh?$AA?9?$AAS?$AAG@ 00466c64     libucrt:lcidtoname_downlevel.obj
 0002:00005c70       ??_C@_1M@HOIKODND@?$AAd?$AAe?$AA?9?$AAL?$AAU@ 00466c70     libucrt:lcidtoname_downlevel.obj
 0002:00005c7c       ??_C@_1M@DDOCCGFG@?$AAe?$AAn?$AA?9?$AAC?$AAA@ 00466c7c     libucrt:lcidtoname_downlevel.obj
 0002:00005c88       ??_C@_1M@BNOEMJLF@?$AAe?$AAs?$AA?9?$AAG?$AAT@ 00466c88     libucrt:lcidtoname_downlevel.obj
 0002:00005c94       ??_C@_1M@EOGNKEK@?$AAf?$AAr?$AA?9?$AAC?$AAH@ 00466c94     libucrt:lcidtoname_downlevel.obj
 0002:00005ca0       ??_C@_1M@FLIDJFHL@?$AAh?$AAr?$AA?9?$AAB?$AAA@ 00466ca0     libucrt:lcidtoname_downlevel.obj
 0002:00005cac       ??_C@_1O@FMCELNAJ@?$AAs?$AAm?$AAj?$AA?9?$AAN?$AAO@ 00466cac     libucrt:lcidtoname_downlevel.obj
 0002:00005cbc       ??_C@_1M@JHGLJMGJ@?$AAa?$AAr?$AA?9?$AAD?$AAZ@ 00466cbc     libucrt:lcidtoname_downlevel.obj
 0002:00005cc8       ??_C@_1M@JKKFDCNP@?$AAz?$AAh?$AA?9?$AAM?$AAO@ 00466cc8     libucrt:lcidtoname_downlevel.obj
 0002:00005cd4       ??_C@_1M@GEEFALPE@?$AAd?$AAe?$AA?9?$AAL?$AAI@ 00466cd4     libucrt:lcidtoname_downlevel.obj
 0002:00005ce0       ??_C@_1M@IGEOFBG@?$AAe?$AAn?$AA?9?$AAN?$AAZ@ 00466ce0     libucrt:lcidtoname_downlevel.obj
 0002:00005cec       ??_C@_1M@KDBONEHP@?$AAe?$AAs?$AA?9?$AAC?$AAR@ 00466cec     libucrt:lcidtoname_downlevel.obj
 0002:00005cf8       ??_C@_1M@FHMDOHNN@?$AAf?$AAr?$AA?9?$AAL?$AAU@ 00466cf8     libucrt:lcidtoname_downlevel.obj
 0002:00005d04       ??_C@_1BG@NFKKMAFG@?$AAb?$AAs?$AA?9?$AAB?$AAA?$AA?9?$AAL?$AAa?$AAt?$AAn@ 00466d04     libucrt:lcidtoname_downlevel.obj
 0002:00005d1c       ??_C@_1O@IMNBEMCI@?$AAs?$AAm?$AAj?$AA?9?$AAS?$AAE@ 00466d1c     libucrt:lcidtoname_downlevel.obj
 0002:00005d2c       ??_C@_1M@DHHMBNDP@?$AAa?$AAr?$AA?9?$AAM?$AAA@ 00466d2c     libucrt:lcidtoname_downlevel.obj
 0002:00005d38       ??_C@_1M@BNBLJCGH@?$AAe?$AAn?$AA?9?$AAI?$AAE@ 00466d38     libucrt:lcidtoname_downlevel.obj
 0002:00005d44       ??_C@_1M@GEPAFMDL@?$AAe?$AAs?$AA?9?$AAP?$AAA@ 00466d44     libucrt:lcidtoname_downlevel.obj
 0002:00005d50       ??_C@_1M@OJONDMDL@?$AAf?$AAr?$AA?9?$AAM?$AAC@ 00466d50     libucrt:lcidtoname_downlevel.obj
 0002:00005d5c       ??_C@_1BG@OBCNFJB@?$AAs?$AAr?$AA?9?$AAB?$AAA?$AA?9?$AAL?$AAa?$AAt?$AAn@ 00466d5c     libucrt:lcidtoname_downlevel.obj
 0002:00005d74       ??_C@_1O@KEMEEGPO@?$AAs?$AAm?$AAa?$AA?9?$AAN?$AAO@ 00466d74     libucrt:lcidtoname_downlevel.obj
 0002:00005d84       ??_C@_1M@ELMGFODK@?$AAa?$AAr?$AA?9?$AAT?$AAN@ 00466d84     libucrt:lcidtoname_downlevel.obj
 0002:00005d90       ??_C@_1M@BHDLHFAF@?$AAe?$AAn?$AA?9?$AAZ?$AAA@ 00466d90     libucrt:lcidtoname_downlevel.obj
 0002:00005d9c       ??_C@_1M@BMGIGLIF@?$AAe?$AAs?$AA?9?$AAD?$AAO@ 00466d9c     libucrt:lcidtoname_downlevel.obj
 0002:00005da8       ??_C@_1BG@CMBHIPBE@?$AAs?$AAr?$AA?9?$AAB?$AAA?$AA?9?$AAC?$AAy?$AAr?$AAl@ 00466da8     libucrt:lcidtoname_downlevel.obj
 0002:00005dc0       ??_C@_1O@HEDBLHNP@?$AAs?$AAm?$AAa?$AA?9?$AAS?$AAE@ 00466dc0     libucrt:lcidtoname_downlevel.obj
 0002:00005dd0       ??_C@_1M@DAGCADIM@?$AAa?$AAr?$AA?9?$AAO?$AAM@ 00466dd0     libucrt:lcidtoname_downlevel.obj
 0002:00005ddc       ??_C@_1M@FODLMICG@?$AAe?$AAn?$AA?9?$AAJ?$AAM@ 00466ddc     libucrt:lcidtoname_downlevel.obj
 0002:00005de8       ??_C@_1M@DNMLCIHB@?$AAe?$AAs?$AA?9?$AAV?$AAE@ 00466de8     libucrt:lcidtoname_downlevel.obj
 0002:00005df4       ??_C@_1O@EOKHMKJK@?$AAs?$AAm?$AAs?$AA?9?$AAF?$AAI@ 00466df4     libucrt:lcidtoname_downlevel.obj
 0002:00005e04       ??_C@_1M@CAFJMKOF@?$AAa?$AAr?$AA?9?$AAY?$AAE@ 00466e04     libucrt:lcidtoname_downlevel.obj
 0002:00005e10       ??_C@_1M@CBFHIJLI@?$AAe?$AAn?$AA?9?$AAC?$AAB@ 00466e10     libucrt:lcidtoname_downlevel.obj
 0002:00005e1c       ??_C@_1M@BGNFLDN@?$AAe?$AAs?$AA?9?$AAC?$AAO@ 00466e1c     libucrt:lcidtoname_downlevel.obj
 0002:00005e28       ??_C@_1O@JMPHMAMC@?$AAs?$AAm?$AAn?$AA?9?$AAF?$AAI@ 00466e28     libucrt:lcidtoname_downlevel.obj
 0002:00005e38       ??_C@_1M@JLANABKE@?$AAa?$AAr?$AA?9?$AAS?$AAY@ 00466e38     libucrt:lcidtoname_downlevel.obj
 0002:00005e44       ??_C@_1M@HPKGCFGN@?$AAe?$AAn?$AA?9?$AAB?$AAZ@ 00466e44     libucrt:lcidtoname_downlevel.obj
 0002:00005e50       ??_C@_1M@OLJCMLGM@?$AAe?$AAs?$AA?9?$AAP?$AAE@ 00466e50     libucrt:lcidtoname_downlevel.obj
 0002:00005e5c       ??_C@_1M@MKKGFKLE@?$AAa?$AAr?$AA?9?$AAJ?$AAO@ 00466e5c     libucrt:lcidtoname_downlevel.obj
 0002:00005e68       ??_C@_1M@EKPGLDNI@?$AAe?$AAn?$AA?9?$AAT?$AAT@ 00466e68     libucrt:lcidtoname_downlevel.obj
 0002:00005e74       ??_C@_1M@OONGHFHE@?$AAe?$AAs?$AA?9?$AAA?$AAR@ 00466e74     libucrt:lcidtoname_downlevel.obj
 0002:00005e80       ??_C@_1M@OOJFGBHE@?$AAa?$AAr?$AA?9?$AAL?$AAB@ 00466e80     libucrt:lcidtoname_downlevel.obj
 0002:00005e8c       ??_C@_1M@GCEJHNEG@?$AAe?$AAn?$AA?9?$AAZ?$AAW@ 00466e8c     libucrt:lcidtoname_downlevel.obj
 0002:00005e98       ??_C@_1M@JNOCAHJI@?$AAe?$AAs?$AA?9?$AAE?$AAC@ 00466e98     libucrt:lcidtoname_downlevel.obj
 0002:00005ea4       ??_C@_1M@JEFHPGGB@?$AAa?$AAr?$AA?9?$AAK?$AAW@ 00466ea4     libucrt:lcidtoname_downlevel.obj
 0002:00005eb0       ??_C@_1M@MLKIBJOJ@?$AAe?$AAn?$AA?9?$AAP?$AAH@ 00466eb0     libucrt:lcidtoname_downlevel.obj
 0002:00005ebc       ??_C@_1M@BDNIPEND@?$AAe?$AAs?$AA?9?$AAC?$AAL@ 00466ebc     libucrt:lcidtoname_downlevel.obj
 0002:00005ec8       ??_C@_1M@MPNMEKBD@?$AAa?$AAr?$AA?9?$AAA?$AAE@ 00466ec8     libucrt:lcidtoname_downlevel.obj
 0002:00005ed4       ??_C@_1M@KBJALCPI@?$AAe?$AAs?$AA?9?$AAU?$AAY@ 00466ed4     libucrt:lcidtoname_downlevel.obj
 0002:00005ee0       ??_C@_1M@LLCCOAGA@?$AAa?$AAr?$AA?9?$AAB?$AAH@ 00466ee0     libucrt:lcidtoname_downlevel.obj
 0002:00005eec       ??_C@_1M@PBFNCDEL@?$AAe?$AAs?$AA?9?$AAP?$AAY@ 00466eec     libucrt:lcidtoname_downlevel.obj
 0002:00005ef8       ??_C@_1M@EDGINPNP@?$AAa?$AAr?$AA?9?$AAQ?$AAA@ 00466ef8     libucrt:lcidtoname_downlevel.obj
 0002:00005f04       ??_C@_1M@MKDBIIJI@?$AAe?$AAs?$AA?9?$AAB?$AAO@ 00466f04     libucrt:lcidtoname_downlevel.obj
 0002:00005f10       ??_C@_1M@CPKKEBLD@?$AAe?$AAs?$AA?9?$AAS?$AAV@ 00466f10     libucrt:lcidtoname_downlevel.obj
 0002:00005f1c       ??_C@_1M@NDBGMMJL@?$AAe?$AAs?$AA?9?$AAH?$AAN@ 00466f1c     libucrt:lcidtoname_downlevel.obj
 0002:00005f28       ??_C@_1M@JIJIBHDP@?$AAe?$AAs?$AA?9?$AAN?$AAI@ 00466f28     libucrt:lcidtoname_downlevel.obj
 0002:00005f34       ??_C@_1M@CGFMKEEK@?$AAe?$AAs?$AA?9?$AAP?$AAR@ 00466f34     libucrt:lcidtoname_downlevel.obj
 0002:00005f40       ??_C@_1O@ICJHKIIK@?$AAz?$AAh?$AA?9?$AAC?$AAH?$AAT@ 00466f40     libucrt:lcidtoname_downlevel.obj
 0002:00005f50       ??_C@_15CLNEJCE@?$AAs?$AAr@ 00466f50     libucrt:lcidtoname_downlevel.obj
 0002:00006678       ??_C@_1M@KAHEKEIG@?$AAa?$AAf?$AA?9?$AAz?$AAa@ 00467678     libucrt:lcidtoname_downlevel.obj
 0002:00006684       ??_C@_1M@GIECOABL@?$AAa?$AAr?$AA?9?$AAa?$AAe@ 00467684     libucrt:lcidtoname_downlevel.obj
 0002:00006690       ??_C@_1M@BMLMEKGI@?$AAa?$AAr?$AA?9?$AAb?$AAh@ 00467690     libucrt:lcidtoname_downlevel.obj
 0002:0000669c       ??_C@_1M@DAPFDGGB@?$AAa?$AAr?$AA?9?$AAd?$AAz@ 0046769c     libucrt:lcidtoname_downlevel.obj
 0002:000066a8       ??_C@_1M@FJNKGKIG@?$AAa?$AAr?$AA?9?$AAe?$AAg@ 004676a8     libucrt:lcidtoname_downlevel.obj
 0002:000066b4       ??_C@_1M@FLGKKCLO@?$AAa?$AAr?$AA?9?$AAi?$AAq@ 004676b4     libucrt:lcidtoname_downlevel.obj
 0002:000066c0       ??_C@_1M@GNDIPALM@?$AAa?$AAr?$AA?9?$AAj?$AAo@ 004676c0     libucrt:lcidtoname_downlevel.obj
 0002:000066cc       ??_C@_1M@DDMJFMGJ@?$AAa?$AAr?$AA?9?$AAk?$AAw@ 004676cc     libucrt:lcidtoname_downlevel.obj
 0002:000066d8       ??_C@_1M@EJALMLHM@?$AAa?$AAr?$AA?9?$AAl?$AAb@ 004676d8     libucrt:lcidtoname_downlevel.obj
 0002:000066e4       ??_C@_1M@MOBDBLOC@?$AAa?$AAr?$AA?9?$AAl?$AAy@ 004676e4     libucrt:lcidtoname_downlevel.obj
 0002:000066f0       ??_C@_1M@JAOCLHDH@?$AAa?$AAr?$AA?9?$AAm?$AAa@ 004676f0     libucrt:lcidtoname_downlevel.obj
 0002:000066fc       ??_C@_1M@JHPMKJIE@?$AAa?$AAr?$AA?9?$AAo?$AAm@ 004676fc     libucrt:lcidtoname_downlevel.obj
 0002:00006708       ??_C@_1M@OEPGHFNH@?$AAa?$AAr?$AA?9?$AAq?$AAa@ 00467708     libucrt:lcidtoname_downlevel.obj
 0002:00006714       ??_C@_1M@KJDONENM@?$AAa?$AAr?$AA?9?$AAs?$AAa@ 00467714     libucrt:lcidtoname_downlevel.obj
 0002:00006720       ??_C@_1M@DMJDKLKM@?$AAa?$AAr?$AA?9?$AAs?$AAy@ 00467720     libucrt:lcidtoname_downlevel.obj
 0002:0000672c       ??_C@_1M@OMFIPEDC@?$AAa?$AAr?$AA?9?$AAt?$AAn@ 0046772c     libucrt:lcidtoname_downlevel.obj
 0002:00006738       ??_C@_1M@IHMHGAON@?$AAa?$AAr?$AA?9?$AAy?$AAe@ 00467738     libucrt:lcidtoname_downlevel.obj
 0002:00006744       ??_C@_1BG@KDCPGJGB@?$AAa?$AAz?$AA?9?$AAa?$AAz?$AA?9?$AAc?$AAy?$AAr?$AAl@ 00467744     libucrt:lcidtoname_downlevel.obj
 0002:0000675c       ??_C@_1BG@IBCKDDOE@?$AAa?$AAz?$AA?9?$AAa?$AAz?$AA?9?$AAl?$AAa?$AAt?$AAn@ 0046775c     libucrt:lcidtoname_downlevel.obj
 0002:00006774       ??_C@_1M@EGPFDCPD@?$AAb?$AAe?$AA?9?$AAb?$AAy@ 00467774     libucrt:lcidtoname_downlevel.obj
 0002:00006780       ??_C@_1M@PCMGMCGC@?$AAb?$AAg?$AA?9?$AAb?$AAg@ 00467780     libucrt:lcidtoname_downlevel.obj
 0002:0000678c       ??_C@_1M@BJBMFGOB@?$AAb?$AAn?$AA?9?$AAi?$AAn@ 0046778c     libucrt:lcidtoname_downlevel.obj
 0002:00006798       ??_C@_1BG@EAKMMACD@?$AAb?$AAs?$AA?9?$AAb?$AAa?$AA?9?$AAl?$AAa?$AAt?$AAn@ 00467798     libucrt:lcidtoname_downlevel.obj
 0002:000067b0       ??_C@_1M@KGADAODK@?$AAc?$AAa?$AA?9?$AAe?$AAs@ 004677b0     libucrt:lcidtoname_downlevel.obj
 0002:000067bc       ??_C@_1M@COAJPDHI@?$AAc?$AAs?$AA?9?$AAc?$AAz@ 004677bc     libucrt:lcidtoname_downlevel.obj
 0002:000067c8       ??_C@_1M@DHBHFONH@?$AAc?$AAy?$AA?9?$AAg?$AAb@ 004677c8     libucrt:lcidtoname_downlevel.obj
 0002:000067d4       ??_C@_1M@IMGKELGA@?$AAd?$AAa?$AA?9?$AAd?$AAk@ 004677d4     libucrt:lcidtoname_downlevel.obj
 0002:000067e0       ??_C@_1M@NNDGDNGA@?$AAd?$AAe?$AA?9?$AAa?$AAt@ 004677e0     libucrt:lcidtoname_downlevel.obj
 0002:000067ec       ??_C@_1M@IKDBHEEM@?$AAd?$AAe?$AA?9?$AAc?$AAh@ 004677ec     libucrt:lcidtoname_downlevel.obj
 0002:000067f8       ??_C@_1M@GFFOJMCJ@?$AAd?$AAe?$AA?9?$AAd?$AAe@ 004677f8     libucrt:lcidtoname_downlevel.obj
 0002:00006804       ??_C@_1M@MDNLKBPM@?$AAd?$AAe?$AA?9?$AAl?$AAi@ 00467804     libucrt:lcidtoname_downlevel.obj
 0002:00006810       ??_C@_1M@NJBEEJNL@?$AAd?$AAe?$AA?9?$AAl?$AAu@ 00467810     libucrt:lcidtoname_downlevel.obj
 0002:0000681c       ??_C@_1O@GNNELBAP@?$AAd?$AAi?$AAv?$AA?9?$AAm?$AAv@ 0046781c     libucrt:lcidtoname_downlevel.obj
 0002:0000682c       ??_C@_1M@EJLEOGAE@?$AAe?$AAl?$AA?9?$AAg?$AAr@ 0046782c     libucrt:lcidtoname_downlevel.obj
 0002:00006838       ??_C@_1M@GMPONJN@?$AAe?$AAn?$AA?9?$AAa?$AAu@ 00467838     libucrt:lcidtoname_downlevel.obj
 0002:00006844       ??_C@_1M@NIDIIPGF@?$AAe?$AAn?$AA?9?$AAb?$AAz@ 00467844     libucrt:lcidtoname_downlevel.obj
 0002:00006850       ??_C@_1M@JEHMIMFO@?$AAe?$AAn?$AA?9?$AAc?$AAa@ 00467850     libucrt:lcidtoname_downlevel.obj
 0002:0000685c       ??_C@_1M@IGMJCDLA@?$AAe?$AAn?$AA?9?$AAc?$AAb@ 0046785c     libucrt:lcidtoname_downlevel.obj
 0002:00006868       ??_C@_1M@BNFIGBKG@?$AAe?$AAn?$AA?9?$AAg?$AAb@ 00467868     libucrt:lcidtoname_downlevel.obj
 0002:00006874       ??_C@_1M@LKIFDIGP@?$AAe?$AAn?$AA?9?$AAi?$AAe@ 00467874     libucrt:lcidtoname_downlevel.obj
 0002:00006880       ??_C@_1M@PJKFGCCO@?$AAe?$AAn?$AA?9?$AAj?$AAm@ 00467880     libucrt:lcidtoname_downlevel.obj
 0002:0000688c       ??_C@_1M@KPPKEPBO@?$AAe?$AAn?$AA?9?$AAn?$AAz@ 0046788c     libucrt:lcidtoname_downlevel.obj
 0002:00006898       ??_C@_1M@GMDGLDOB@?$AAe?$AAn?$AA?9?$AAp?$AAh@ 00467898     libucrt:lcidtoname_downlevel.obj
 0002:000068a4       ??_C@_1M@ONGIBJNA@?$AAe?$AAn?$AA?9?$AAt?$AAt@ 004678a4     libucrt:lcidtoname_downlevel.obj
 0002:000068b0       ??_C@_1M@LLODPCMM@?$AAe?$AAn?$AA?9?$AAu?$AAs@ 004678b0     libucrt:lcidtoname_downlevel.obj
 0002:000068bc       ??_C@_1M@LAKFNPAN@?$AAe?$AAn?$AA?9?$AAz?$AAa@ 004678bc     libucrt:lcidtoname_downlevel.obj
 0002:000068c8       ??_C@_1M@MFNHNHEO@?$AAe?$AAn?$AA?9?$AAz?$AAw@ 004678c8     libucrt:lcidtoname_downlevel.obj
 0002:000068d4       ??_C@_1M@EJEINPHM@?$AAe?$AAs?$AA?9?$AAa?$AAr@ 004678d4     libucrt:lcidtoname_downlevel.obj
 0002:000068e0       ??_C@_1M@GNKPCCJA@?$AAe?$AAs?$AA?9?$AAb?$AAo@ 004678e0     libucrt:lcidtoname_downlevel.obj
 0002:000068ec       ??_C@_1M@LEEGFONL@?$AAe?$AAs?$AA?9?$AAc?$AAl@ 004678ec     libucrt:lcidtoname_downlevel.obj
 0002:000068f8       ??_C@_1M@KGPDPBDF@?$AAe?$AAs?$AA?9?$AAc?$AAo@ 004678f8     libucrt:lcidtoname_downlevel.obj
 0002:00006904       ??_C@_1M@EIAHOHH@?$AAe?$AAs?$AA?9?$AAc?$AAr@ 00467904     libucrt:lcidtoname_downlevel.obj
 0002:00006910       ??_C@_1M@LLPGMBIN@?$AAe?$AAs?$AA?9?$AAd?$AAo@ 00467910     libucrt:lcidtoname_downlevel.obj
 0002:0000691c       ??_C@_1M@DKHMKNJA@?$AAe?$AAs?$AA?9?$AAe?$AAc@ 0046791c     libucrt:lcidtoname_downlevel.obj
 0002:00006928       ??_C@_1M@GKGFPKAP@?$AAe?$AAs?$AA?9?$AAe?$AAs@ 00467928     libucrt:lcidtoname_downlevel.obj
 0002:00006934       ??_C@_1M@LKHKGDLN@?$AAe?$AAs?$AA?9?$AAg?$AAt@ 00467934     libucrt:lcidtoname_downlevel.obj
 0002:00006940       ??_C@_1M@HEIIGGJD@?$AAe?$AAs?$AA?9?$AAh?$AAn@ 00467940     libucrt:lcidtoname_downlevel.obj
 0002:0000694c       ??_C@_1M@FBDHPPGD@?$AAe?$AAs?$AA?9?$AAm?$AAx@ 0046794c     libucrt:lcidtoname_downlevel.obj
 0002:00006958       ??_C@_1M@DPAGLNDH@?$AAe?$AAs?$AA?9?$AAn?$AAi@ 00467958     libucrt:lcidtoname_downlevel.obj
 0002:00006964       ??_C@_1M@MDGOPGDD@?$AAe?$AAs?$AA?9?$AAp?$AAa@ 00467964     libucrt:lcidtoname_downlevel.obj
 0002:00006970       ??_C@_1M@EMAMGBGE@?$AAe?$AAs?$AA?9?$AAp?$AAe@ 00467970     libucrt:lcidtoname_downlevel.obj
 0002:0000697c       ??_C@_1M@IBMCAOEC@?$AAe?$AAs?$AA?9?$AAp?$AAr@ 0046797c     libucrt:lcidtoname_downlevel.obj
 0002:00006988       ??_C@_1M@FGMDIJED@?$AAe?$AAs?$AA?9?$AAp?$AAy@ 00467988     libucrt:lcidtoname_downlevel.obj
 0002:00006994       ??_C@_1M@IIDEOLLL@?$AAe?$AAs?$AA?9?$AAs?$AAv@ 00467994     libucrt:lcidtoname_downlevel.obj
 0002:000069a0       ??_C@_1M@GAOBIPA@?$AAe?$AAs?$AA?9?$AAu?$AAy@ 004679a0     libucrt:lcidtoname_downlevel.obj
 0002:000069ac       ??_C@_1M@JKFFICHJ@?$AAe?$AAs?$AA?9?$AAv?$AAe@ 004679ac     libucrt:lcidtoname_downlevel.obj
 0002:000069b8       ??_C@_1M@PNMLOJDF@?$AAe?$AAt?$AA?9?$AAe?$AAe@ 004679b8     libucrt:lcidtoname_downlevel.obj
 0002:000069c4       ??_C@_1M@GHHLIKEI@?$AAe?$AAu?$AA?9?$AAe?$AAs@ 004679c4     libucrt:lcidtoname_downlevel.obj
 0002:000069d0       ??_C@_1M@PBNONODE@?$AAf?$AAa?$AA?9?$AAi?$AAr@ 004679d0     libucrt:lcidtoname_downlevel.obj
 0002:000069dc       ??_C@_1M@JEEHPMIL@?$AAf?$AAi?$AA?9?$AAf?$AAi@ 004679dc     libucrt:lcidtoname_downlevel.obj
 0002:000069e8       ??_C@_1M@LMDCNDBA@?$AAf?$AAo?$AA?9?$AAf?$AAo@ 004679e8     libucrt:lcidtoname_downlevel.obj
 0002:000069f4       ??_C@_1M@JKEOHLDK@?$AAf?$AAr?$AA?9?$AAb?$AAe@ 004679f4     libucrt:lcidtoname_downlevel.obj
 0002:00006a00       ??_C@_1M@NOHADPMI@?$AAf?$AAr?$AA?9?$AAc?$AAa@ 00467a00     libucrt:lcidtoname_downlevel.obj
 0002:00006a0c       ??_C@_1M@KDHIHAEC@?$AAf?$AAr?$AA?9?$AAc?$AAh@ 00467a0c     libucrt:lcidtoname_downlevel.obj
 0002:00006a18       ??_C@_1M@MMBBFGAK@?$AAf?$AAr?$AA?9?$AAf?$AAr@ 00467a18     libucrt:lcidtoname_downlevel.obj
 0002:00006a24       ??_C@_1M@PAFNENNF@?$AAf?$AAr?$AA?9?$AAl?$AAu@ 00467a24     libucrt:lcidtoname_downlevel.obj
 0002:00006a30       ??_C@_1M@EOHDJGDD@?$AAf?$AAr?$AA?9?$AAm?$AAc@ 00467a30     libucrt:lcidtoname_downlevel.obj
 0002:00006a3c       ??_C@_1M@FAPLLOPF@?$AAg?$AAl?$AA?9?$AAe?$AAs@ 00467a3c     libucrt:lcidtoname_downlevel.obj
 0002:00006a48       ??_C@_1M@FOPBFLOO@?$AAg?$AAu?$AA?9?$AAi?$AAn@ 00467a48     libucrt:lcidtoname_downlevel.obj
 0002:00006a54       ??_C@_1M@KBMCINPM@?$AAh?$AAe?$AA?9?$AAi?$AAl@ 00467a54     libucrt:lcidtoname_downlevel.obj
 0002:00006a60       ??_C@_1M@BBPHKFPJ@?$AAh?$AAi?$AA?9?$AAi?$AAn@ 00467a60     libucrt:lcidtoname_downlevel.obj
 0002:00006a6c       ??_C@_1M@PMBNDPHD@?$AAh?$AAr?$AA?9?$AAb?$AAa@ 00467a6c     libucrt:lcidtoname_downlevel.obj
 0002:00006a78       ??_C@_1M@BPCKOEGE@?$AAh?$AAr?$AA?9?$AAh?$AAr@ 00467a78     libucrt:lcidtoname_downlevel.obj
 0002:00006a84       ??_C@_1M@GACBMHKE@?$AAh?$AAu?$AA?9?$AAh?$AAu@ 00467a84     libucrt:lcidtoname_downlevel.obj
 0002:00006a90       ??_C@_1M@MILPAJJC@?$AAh?$AAy?$AA?9?$AAa?$AAm@ 00467a90     libucrt:lcidtoname_downlevel.obj
 0002:00006a9c       ??_C@_1M@BABBICEC@?$AAi?$AAd?$AA?9?$AAi?$AAd@ 00467a9c     libucrt:lcidtoname_downlevel.obj
 0002:00006aa8       ??_C@_1M@BIKNHHPF@?$AAi?$AAs?$AA?9?$AAi?$AAs@ 00467aa8     libucrt:lcidtoname_downlevel.obj
 0002:00006ab4       ??_C@_1M@NMPCJPHE@?$AAi?$AAt?$AA?9?$AAc?$AAh@ 00467ab4     libucrt:lcidtoname_downlevel.obj
 0002:00006ac0       ??_C@_1M@GHKGFEDF@?$AAi?$AAt?$AA?9?$AAi?$AAt@ 00467ac0     libucrt:lcidtoname_downlevel.obj
 0002:00006acc       ??_C@_1M@NIEJCJJA@?$AAj?$AAa?$AA?9?$AAj?$AAp@ 00467acc     libucrt:lcidtoname_downlevel.obj
 0002:00006ad8       ??_C@_1M@JILFNBIM@?$AAk?$AAa?$AA?9?$AAg?$AAe@ 00467ad8     libucrt:lcidtoname_downlevel.obj
 0002:00006ae4       ??_C@_1M@PACPMGPH@?$AAk?$AAk?$AA?9?$AAk?$AAz@ 00467ae4     libucrt:lcidtoname_downlevel.obj
 0002:00006af0       ??_C@_1M@IELFGMHA@?$AAk?$AAn?$AA?9?$AAi?$AAn@ 00467af0     libucrt:lcidtoname_downlevel.obj
 0002:00006afc       ??_C@_1O@IBBJHCH@?$AAk?$AAo?$AAk?$AA?9?$AAi?$AAn@ 00467afc     libucrt:lcidtoname_downlevel.obj
 0002:00006b0c       ??_C@_1M@DMHAEOGC@?$AAk?$AAo?$AA?9?$AAk?$AAr@ 00467b0c     libucrt:lcidtoname_downlevel.obj
 0002:00006b18       ??_C@_1M@HBAHBIGA@?$AAk?$AAy?$AA?9?$AAk?$AAg@ 00467b18     libucrt:lcidtoname_downlevel.obj
 0002:00006b24       ??_C@_1M@KPMILCJG@?$AAl?$AAt?$AA?9?$AAl?$AAt@ 00467b24     libucrt:lcidtoname_downlevel.obj
 0002:00006b30       ??_C@_1M@BDEKKCA@?$AAl?$AAv?$AA?9?$AAl?$AAv@ 00467b30     libucrt:lcidtoname_downlevel.obj
 0002:00006b3c       ??_C@_1M@ELCKCCJJ@?$AAm?$AAi?$AA?9?$AAn?$AAz@ 00467b3c     libucrt:lcidtoname_downlevel.obj
 0002:00006b48       ??_C@_1M@CBOOLAPA@?$AAm?$AAk?$AA?9?$AAm?$AAk@ 00467b48     libucrt:lcidtoname_downlevel.obj
 0002:00006b54       ??_C@_1M@GPHNBJKN@?$AAm?$AAl?$AA?9?$AAi?$AAn@ 00467b54     libucrt:lcidtoname_downlevel.obj
 0002:00006b60       ??_C@_1M@PABJILIG@?$AAm?$AAn?$AA?9?$AAm?$AAn@ 00467b60     libucrt:lcidtoname_downlevel.obj
 0002:00006b6c       ??_C@_1M@FGBKKIPG@?$AAm?$AAr?$AA?9?$AAi?$AAn@ 00467b6c     libucrt:lcidtoname_downlevel.obj
 0002:00006b78       ??_C@_1M@NDBPDDAL@?$AAm?$AAs?$AA?9?$AAb?$AAn@ 00467b78     libucrt:lcidtoname_downlevel.obj
 0002:00006b84       ??_C@_1M@OPIHOOPI@?$AAm?$AAs?$AA?9?$AAm?$AAy@ 00467b84     libucrt:lcidtoname_downlevel.obj
 0002:00006b90       ??_C@_1M@PPDBCNFM@?$AAm?$AAt?$AA?9?$AAm?$AAt@ 00467b90     libucrt:lcidtoname_downlevel.obj
 0002:00006b9c       ??_C@_1M@KDJDKMDD@?$AAn?$AAb?$AA?9?$AAn?$AAo@ 00467b9c     libucrt:lcidtoname_downlevel.obj
 0002:00006ba8       ??_C@_1M@KFCFLMJP@?$AAn?$AAl?$AA?9?$AAb?$AAe@ 00467ba8     libucrt:lcidtoname_downlevel.obj
 0002:00006bb4       ??_C@_1M@KPOPDDGO@?$AAn?$AAl?$AA?9?$AAn?$AAl@ 00467bb4     libucrt:lcidtoname_downlevel.obj
 0002:00006bc0       ??_C@_1M@LJKPEMLN@?$AAn?$AAn?$AA?9?$AAn?$AAo@ 00467bc0     libucrt:lcidtoname_downlevel.obj
 0002:00006bcc       ??_C@_1M@BDGHHBFL@?$AAn?$AAs?$AA?9?$AAz?$AAa@ 00467bcc     libucrt:lcidtoname_downlevel.obj
 0002:00006bd8       ??_C@_1M@IDEHOAP@?$AAp?$AAa?$AA?9?$AAi?$AAn@ 00467bd8     libucrt:lcidtoname_downlevel.obj
 0002:00006be4       ??_C@_1M@HDBKGOGH@?$AAp?$AAl?$AA?9?$AAp?$AAl@ 00467be4     libucrt:lcidtoname_downlevel.obj
 0002:00006bf0       ??_C@_1M@LJLLCMEH@?$AAp?$AAt?$AA?9?$AAb?$AAr@ 00467bf0     libucrt:lcidtoname_downlevel.obj
 0002:00006bfc       ??_C@_1M@NCMONAAL@?$AAp?$AAt?$AA?9?$AAp?$AAt@ 00467bfc     libucrt:lcidtoname_downlevel.obj
 0002:00006c08       ??_C@_1O@EAKMAJDN@?$AAq?$AAu?$AAz?$AA?9?$AAb?$AAo@ 00467c08     libucrt:lcidtoname_downlevel.obj
 0002:00006c18       ??_C@_1O@BHHPIGDN@?$AAq?$AAu?$AAz?$AA?9?$AAe?$AAc@ 00467c18     libucrt:lcidtoname_downlevel.obj
 0002:00006c28       ??_C@_1O@GBAPEKMJ@?$AAq?$AAu?$AAz?$AA?9?$AAp?$AAe@ 00467c28     libucrt:lcidtoname_downlevel.obj
 0002:00006c38       ??_C@_1M@CLGLEFBO@?$AAr?$AAo?$AA?9?$AAr?$AAo@ 00467c38     libucrt:lcidtoname_downlevel.obj
 0002:00006c44       ??_C@_1M@CEEDODME@?$AAr?$AAu?$AA?9?$AAr?$AAu@ 00467c44     libucrt:lcidtoname_downlevel.obj
 0002:00006c50       ??_C@_1M@HPKKKMPP@?$AAs?$AAa?$AA?9?$AAi?$AAn@ 00467c50     libucrt:lcidtoname_downlevel.obj
 0002:00006c5c       ??_C@_1M@BKMAIGOJ@?$AAs?$AAe?$AA?9?$AAf?$AAi@ 00467c5c     libucrt:lcidtoname_downlevel.obj
 0002:00006c68       ??_C@_1M@NDPIFLFI@?$AAs?$AAe?$AA?9?$AAn?$AAo@ 00467c68     libucrt:lcidtoname_downlevel.obj
 0002:00006c74       ??_C@_1M@DANKKHJ@?$AAs?$AAe?$AA?9?$AAs?$AAe@ 00467c74     libucrt:lcidtoname_downlevel.obj
 0002:00006c80       ??_C@_1M@PNBLONPJ@?$AAs?$AAk?$AA?9?$AAs?$AAk@ 00467c80     libucrt:lcidtoname_downlevel.obj
 0002:00006c8c       ??_C@_1M@LFMODOAL@?$AAs?$AAl?$AA?9?$AAs?$AAi@ 00467c8c     libucrt:lcidtoname_downlevel.obj
 0002:00006c98       ??_C@_1O@DFKOMPG@?$AAs?$AAm?$AAa?$AA?9?$AAn?$AAo@ 00467c98     libucrt:lcidtoname_downlevel.obj
 0002:00006ca8       ??_C@_1O@NDKPBNNH@?$AAs?$AAm?$AAa?$AA?9?$AAs?$AAe@ 00467ca8     libucrt:lcidtoname_downlevel.obj
 0002:00006cb8       ??_C@_1O@PLLKBHAB@?$AAs?$AAm?$AAj?$AA?9?$AAn?$AAo@ 00467cb8     libucrt:lcidtoname_downlevel.obj
 0002:00006cc8       ??_C@_1O@CLEPOGCA@?$AAs?$AAm?$AAj?$AA?9?$AAs?$AAe@ 00467cc8     libucrt:lcidtoname_downlevel.obj
 0002:00006cd8       ??_C@_1O@DLGJGKMK@?$AAs?$AAm?$AAn?$AA?9?$AAf?$AAi@ 00467cd8     libucrt:lcidtoname_downlevel.obj
 0002:00006ce8       ??_C@_1O@OJDJGAJC@?$AAs?$AAm?$AAs?$AA?9?$AAf?$AAi@ 00467ce8     libucrt:lcidtoname_downlevel.obj
 0002:00006cf8       ??_C@_1M@BOFOGHPB@?$AAs?$AAq?$AA?9?$AAa?$AAl@ 00467cf8     libucrt:lcidtoname_downlevel.obj
 0002:00006d04       ??_C@_1BG@LJBBIPGB@?$AAs?$AAr?$AA?9?$AAb?$AAa?$AA?9?$AAc?$AAy?$AAr?$AAl@ 00467d04     libucrt:lcidtoname_downlevel.obj
 0002:00006d1c       ??_C@_1BG@JLBENFOE@?$AAs?$AAr?$AA?9?$AAb?$AAa?$AA?9?$AAl?$AAa?$AAt?$AAn@ 00467d1c     libucrt:lcidtoname_downlevel.obj
 0002:00006d34       ??_C@_1BG@KODPNHE@?$AAs?$AAr?$AA?9?$AAs?$AAp?$AA?9?$AAc?$AAy?$AAr?$AAl@ 00467d34     libucrt:lcidtoname_downlevel.obj
 0002:00006d4c       ??_C@_1BG@CIOGKHPB@?$AAs?$AAr?$AA?9?$AAs?$AAp?$AA?9?$AAl?$AAa?$AAt?$AAn@ 00467d4c     libucrt:lcidtoname_downlevel.obj
 0002:00006d64       ??_C@_1M@NGFJLMAC@?$AAs?$AAv?$AA?9?$AAf?$AAi@ 00467d64     libucrt:lcidtoname_downlevel.obj
 0002:00006d70       ??_C@_1M@MPJEJAJC@?$AAs?$AAv?$AA?9?$AAs?$AAe@ 00467d70     libucrt:lcidtoname_downlevel.obj
 0002:00006d7c       ??_C@_1M@MPNDHLFK@?$AAs?$AAw?$AA?9?$AAk?$AAe@ 00467d7c     libucrt:lcidtoname_downlevel.obj
 0002:00006d88       ??_C@_1O@KOHBJJI@?$AAs?$AAy?$AAr?$AA?9?$AAs?$AAy@ 00467d88     libucrt:lcidtoname_downlevel.obj
 0002:00006d98       ??_C@_1M@LDCEFHA@?$AAt?$AAa?$AA?9?$AAi?$AAn@ 00467d98     libucrt:lcidtoname_downlevel.obj
 0002:00006da4       ??_C@_1M@CNJOFAK@?$AAt?$AAe?$AA?9?$AAi?$AAn@ 00467da4     libucrt:lcidtoname_downlevel.obj
 0002:00006db0       ??_C@_1M@GNAECACD@?$AAt?$AAh?$AA?9?$AAt?$AAh@ 00467db0     libucrt:lcidtoname_downlevel.obj
 0002:00006dbc       ??_C@_1M@CHBIHOJO@?$AAt?$AAn?$AA?9?$AAz?$AAa@ 00467dbc     libucrt:lcidtoname_downlevel.obj
 0002:00006dc8       ??_C@_1M@GCCMIGPJ@?$AAt?$AAr?$AA?9?$AAt?$AAr@ 00467dc8     libucrt:lcidtoname_downlevel.obj
 0002:00006dd4       ??_C@_1M@CELMCNBK@?$AAt?$AAt?$AA?9?$AAr?$AAu@ 00467dd4     libucrt:lcidtoname_downlevel.obj
 0002:00006de0       ??_C@_1M@KLMCELGA@?$AAu?$AAk?$AA?9?$AAu?$AAa@ 00467de0     libucrt:lcidtoname_downlevel.obj
 0002:00006dec       ??_C@_1M@EPAJJAJF@?$AAu?$AAr?$AA?9?$AAp?$AAk@ 00467dec     libucrt:lcidtoname_downlevel.obj
 0002:00006df8       ??_C@_1BG@GEGPMCDJ@?$AAu?$AAz?$AA?9?$AAu?$AAz?$AA?9?$AAc?$AAy?$AAr?$AAl@ 00467df8     libucrt:lcidtoname_downlevel.obj
 0002:00006e10       ??_C@_1BG@EGGKJILM@?$AAu?$AAz?$AA?9?$AAu?$AAz?$AA?9?$AAl?$AAa?$AAt?$AAn@ 00467e10     libucrt:lcidtoname_downlevel.obj
 0002:00006e28       ??_C@_1M@GFOCLFF@?$AAv?$AAi?$AA?9?$AAv?$AAn@ 00467e28     libucrt:lcidtoname_downlevel.obj
 0002:00006e34       ??_C@_1M@CPAMEDFI@?$AAx?$AAh?$AA?9?$AAz?$AAa@ 00467e34     libucrt:lcidtoname_downlevel.obj
 0002:00006e40       ??_C@_1O@EBKIFIGN@?$AAz?$AAh?$AA?9?$AAc?$AAh?$AAs@ 00467e40     libucrt:lcidtoname_downlevel.obj
 0002:00006e50       ??_C@_1O@NMHPGANE@?$AAz?$AAh?$AA?9?$AAc?$AAh?$AAt@ 00467e50     libucrt:lcidtoname_downlevel.obj
 0002:00006e60       ??_C@_1M@LPINJOMC@?$AAz?$AAh?$AA?9?$AAc?$AAn@ 00467e60     libucrt:lcidtoname_downlevel.obj
 0002:00006e6c       ??_C@_1M@OCJEJODD@?$AAz?$AAh?$AA?9?$AAh?$AAk@ 00467e6c     libucrt:lcidtoname_downlevel.obj
 0002:00006e78       ??_C@_1M@DNDLJINH@?$AAz?$AAh?$AA?9?$AAm?$AAo@ 00467e78     libucrt:lcidtoname_downlevel.obj
 0002:00006e84       ??_C@_1M@MBFDNDND@?$AAz?$AAh?$AA?9?$AAs?$AAg@ 00467e84     libucrt:lcidtoname_downlevel.obj
 0002:00006e90       ??_C@_1M@IMEPLEPE@?$AAz?$AAh?$AA?9?$AAt?$AAw@ 00467e90     libucrt:lcidtoname_downlevel.obj
 0002:00006e9c       ??_C@_1M@BBGHNHJP@?$AAz?$AAu?$AA?9?$AAz?$AAa@ 00467e9c     libucrt:lcidtoname_downlevel.obj
 0002:00006ea8       ??_C@_05DNEBIAHO@1?$CDINF@ 00467ea8     libucrt:cfout.obj
 0002:00006eb0       ??_C@_06IMKFLFPG@1?$CDQNAN@ 00467eb0     libucrt:cfout.obj
 0002:00006eb8       ??_C@_06PGGFOGJG@1?$CDSNAN@ 00467eb8     libucrt:cfout.obj
 0002:00006ec0       ??_C@_05PHHOCPM@1?$CDIND@  00467ec0     libucrt:cfout.obj
 0002:00006f28       ??_C@_1BA@BALFACEM@?$AAC?$AAO?$AAN?$AAO?$AAU?$AAT?$AA$@ 00467f28     libucrt:initcon.obj
 0002:00007040       __infinity                 00468040     libucrt:87tran.obj
 0002:0000704a       __minfinity                0046804a     libucrt:87tran.obj
 0002:00007054       __logemax                  00468054     libucrt:87tran.obj
 0002:0000707a       __OP_EXPjmptab             0046807a     libucrt:87tran.obj
 0002:000070a0       __indefinite               004680a0     libucrt:87disp.obj
 0002:000070aa       __piby2                    004680aa     libucrt:87disp.obj
 0002:000070b4       __piby4                    004680b4     libucrt:87disp.obj
 0002:000070e8       __DEFAULT_CW_in_mem        004680e8     libucrt:common.obj
 0002:000070ea       __pi_by_2_to_61            004680ea     libucrt:common.obj
 0002:00007130       ___acrt_log10_table_t      00468130     libucrt:log10_tables.obj
 0002:00007540       ___acrt_log10_table_cb     00468540     libucrt:log10_tables.obj
 0002:00007950       __real@3fe0000000000000    00468950     libucrt:powhlp.obj
 0002:00007970       __xmm@00000000000000000000000000000000 00468970     libvcruntime:wcschr.obj
 0002:00007980       ??_C@_00CNPNBAHC@@         00468980     server.obj
 0002:00007984       ??_C@_06DBPGMFD@demos?1@   00468984     server.obj
 0002:0000798c       ??_C@_0BC@FBNFCGI@config?1maprot?4cfg@ 0046898c     server.obj
 0002:000079a0       ??_C@_0BF@HMGGBOLD@config?1serverpwd?4cfg@ 004689a0     server.obj
 0002:000079b8       ??_C@_0BL@LOIBGNNA@config?1serverblacklist?4cfg@ 004689b8     server.obj
 0002:000079d4       ??_C@_0BB@LCNCLBCE@config?1geoip?4cfg@ 004689d4     server.obj
 0002:000079e8       ??_C@_0BN@FBHLOLPE@config?1nicknameblacklist?4cfg@ 004689e8     server.obj
 0002:00007a08       ??_C@_0BC@PIIDFBHM@config?1serverinfo@ 00468a08     server.obj
 0002:00007a1c       ??_C@_0M@NPFMGNOF@config?1motd@ 00468a1c     server.obj
 0002:00007a28       ??_C@_0BF@NGMKNHPI@config?1forbidden?4cfg@ 00468a28     server.obj
 0002:00007a40       ??_C@_05MIDDFADP@logs?1@   00468a40     server.obj
 0002:00007a48       ??_C@_0BM@KEHNPADK@config?1serverparameters?4cfg@ 00468a48     server.obj
 0002:00007a64       ??_C@_0BC@GMFDDAG@config?1servervita@ 00468a64     server.obj
 0002:00007a78       ??_C@_0P@FCIOGDPL@assaultcube?3?1?1@ 00468a78     server.obj
 0002:00007a88       ??_C@_01CLKCMJKC@?5@       00468a88     server.obj
 0002:00007a90       ??_C@_0JG@HDHGCCHE@KEY?5FAILURE?3?5you?5provided?5the?5?$CI@ 00468a90     server.obj
 0002:00007b28       ??_C@_0O@DMIEEPMJ@?9?9masterport?$DN@ 00468b28     server.obj
 0002:00007b38       ??_C@_0CP@NBGHBJEB@reading?5commandline?5parameters?5@ 00468b38     server.obj
 0002:00007b68       ??_C@_02OJDBNLEE@?5?7@     00468b68     server.obj
 0002:00007b6c       ??_C@_0CP@FJLEBJDA@unknown?5parameter?5in?5file?5?8?$CFs?8?0@ 00468b6c     server.obj
 0002:00007b9c       ??_C@_0BK@PBCMPAON@failed?5to?5read?5file?5?8?$CFs?8?6@ 00468b9c     server.obj
 0002:00007bb8       ??_C@_05KKJKHDCN@none?$DP@ 00468bb8     server.obj
 0002:00007bc0       ??_C@_05OEPGNJB@light@     00468bc0     server.obj
 0002:00007bc8       ??_C@_0M@GFCPGAEM@playerstart@ 00468bc8     server.obj
 0002:00007bd4       ??_C@_06HBOMKLFK@pistol@   00468bd4     server.obj
 0002:00007bdc       ??_C@_07PGLHBBOF@ammobox@  00468bdc     server.obj
 0002:00007be4       ??_C@_08HOOJIBOO@grenades@ 00468be4     server.obj
 0002:00007bf0       ??_C@_06KJINILIP@health@   00468bf0     server.obj
 0002:00007bf8       ??_C@_06BCDCLMEB@helmet@   00468bf8     server.obj
 0002:00007c00       ??_C@_06EEGMCOHM@armour@   00468c00     server.obj
 0002:00007c08       ??_C@_06NJDJMKIN@akimbo@   00468c08     server.obj
 0002:00007c10       ??_C@_08NIOLEMIA@mapmodel@ 00468c10     server.obj
 0002:00007c1c       ??_C@_07DIDNFGDE@trigger@  00468c1c     server.obj
 0002:00007c24       ??_C@_06GGMOHJIJ@ladder@   00468c24     server.obj
 0002:00007c2c       ??_C@_08DHNDAEM@ctf?9flag@ 00468c2c     server.obj
 0002:00007c38       ??_C@_05MHNANJII@sound@    00468c38     server.obj
 0002:00007c40       ??_C@_04POIGMEJN@clip@     00468c40     server.obj
 0002:00007c48       ??_C@_06DGJGPDPE@plclip@   00468c48     server.obj
 0002:00007c50       ??_C@_05JLNEMJLN@dummy@    00468c50     server.obj
 0002:00007c58       ??_C@_03MHPINNNA@CLA@      00468c58     server.obj
 0002:00007c5c       ??_C@_04FNLBLMFN@RVSF@     00468c5c     server.obj
 0002:00007c64       ??_C@_09KIMLPHEC@CLA?9SPECT@ 00468c64     server.obj
 0002:00007c70       ??_C@_0L@LICPIECI@RVSF?9SPECT@ 00468c70     server.obj
 0002:00007c7c       ??_C@_09GNDCBOBP@SPECTATOR@ 00468c7c     server.obj
 0002:00007c88       ??_C@_04GKJNKENE@void@     00468c88     server.obj
 0002:00007c90       ??_C@_04EINOLIEB@CSPC@     00468c90     server.obj
 0002:00007c98       ??_C@_04BFFOAGHD@RSPC@     00468c98     server.obj
 0002:00007ca0       ??_C@_04CAGGOBLG@SPEC@     00468ca0     server.obj
 0002:00007ca8       ??_C@_07GDJPGPDM@unarmed@  00468ca8     server.obj
 0002:00007cb0       ??_C@_05JEBDMKHG@admin@    00468cb0     server.obj
 0002:00007cb8       ??_C@_05HEIBENID@owner@    00468cb8     server.obj
 0002:00007cc0       ??_C@_0L@OOAGJHAM@dispatched@ 00468cc0     server.obj
 0002:00007ccc       ??_C@_06JEEPOKGA@jorked@   00468ccc     server.obj
 0002:00007cd4       ??_C@_08EJHNGMPD@peppered@ 00468cd4     server.obj
 0002:00007ce0       ??_C@_06KGGGBDJD@killed@   00468ce0     server.obj
 0002:00007ce8       ??_C@_0L@HBLBJB@penetrated@ 00468ce8     server.obj
 0002:00007cf4       ??_C@_08GHGDOGBF@shredded@ 00468cf4     server.obj
 0002:00007d00       ??_C@_06DAPHOLID@busted@   00468d00     server.obj
 0002:00007d08       ??_C@_0N@IJEFNJML@disassembled@ 00468d08     server.obj
 0002:00007d18       ??_C@_08BOIOMPGI@london?8d@ 00468d18     server.obj
 0002:00007d24       ??_C@_08LNLLEEDF@executed@ 00468d24     server.obj
 0002:00007d30       ??_C@_0M@DLHMBKIE@ejorkulated@ 00468d30     server.obj
 0002:00007d3c       ??_C@_0L@PEBKKBEB@splattered@ 00468d3c     server.obj
 0002:00007d48       ??_C@_0L@FHFILHJA@anihilated@ 00468d48     server.obj
 0002:00007d54       ??_C@_08JANKBJDD@headshot@ 00468d54     server.obj
 0002:00007d60       ??_C@_05EAPLHLDK@domed@    00468d60     server.obj
 0002:00007d68       ??_C@_08DECJNDF@exploded@  00468d68     server.obj
 0002:00007d74       ??_C@_0BA@OKFJALEA@busted?5all?5over@ 00468d74     server.obj
 0002:00007d84       ??_C@_05CBJEHOEJ@jfk?8d@   00468d84     server.obj
 0002:00007d8c       ??_C@_0M@GNNOGAKC@player?1jump@ 00468d8c     server.obj
 0002:00007d98       ??_C@_04BIEPDJCB@Jump@     00468d98     server.obj
 0002:00007da0       ??_C@_0M@LGIBKDIM@player?1step@ 00468da0     server.obj
 0002:00007dac       ??_C@_0N@BCNAEEA@Soft?5landing@ 00468dac     server.obj
 0002:00007dbc       ??_C@_0M@BBANDMMG@player?1land@ 00468dbc     server.obj
 0002:00007dc8       ??_C@_0N@ICFDPIIG@Hard?5landing@ 00468dc8     server.obj
 0002:00007dd8       ??_C@_0M@FGLFIMKL@weapon?1ric1@ 00468dd8     server.obj
 0002:00007de4       ??_C@_0P@FHLOKKBN@Ricochet?5air?51@ 00468de4     server.obj
 0002:00007df4       ??_C@_0M@HNJINPGI@weapon?1ric2@ 00468df4     server.obj
 0002:00007e00       ??_C@_0P@HMJDPJNO@Ricochet?5air?52@ 00468e00     server.obj
 0002:00007e10       ??_C@_0M@GEIDOOCJ@weapon?1ric3@ 00468e10     server.obj
 0002:00007e1c       ??_C@_0N@NJKHFEFF@Ricochet?5hit@ 00468e1c     server.obj
 0002:00007e2c       ??_C@_0BD@ONIIKCOO@weapon?1waterimpact@ 00468e2c     server.obj
 0002:00007e40       ??_C@_0BG@LLHCFINA@Bullet?5?$CIwater?5impact?$CJ@ 00468e40     server.obj
 0002:00007e58       ??_C@_0N@MJGPAHBM@weapon?1knife@ 00468e58     server.obj
 0002:00007e68       ??_C@_05BPFOPNCG@Knife@    00468e68     server.obj
 0002:00007e70       ??_C@_0L@LKBPNHIC@weapon?1usp@ 00468e70     server.obj
 0002:00007e7c       ??_C@_06LOFBJCMG@Pistol@   00468e7c     server.obj
 0002:00007e84       ??_C@_0BF@MCOGHKNE@weapon?1pistol_reload@ 00468e84     server.obj
 0002:00007e9c       ??_C@_0BB@GBKLOKCL@Pistol?5reloading@ 00468e9c     server.obj
 0002:00007eb0       ??_C@_0P@NBDKPICF@weapon?1carbine@ 00468eb0     server.obj
 0002:00007ec0       ??_C@_07KJPLOLGP@Carbine@  00468ec0     server.obj
 0002:00007ec8       ??_C@_0BG@MJPGDPLI@weapon?1carbine_reload@ 00468ec8     server.obj
 0002:00007ee0       ??_C@_0BC@PBBCOHLK@Carbine?5reloading@ 00468ee0     server.obj
 0002:00007ef4       ??_C@_0P@HLKJBNND@weapon?1shotgun@ 00468ef4     server.obj
 0002:00007f04       ??_C@_07DGIAOJJ@Shotgun@   00468f04     server.obj
 0002:00007f0c       ??_C@_0BG@DMKBBOML@weapon?1shotgun_reload@ 00468f0c     server.obj
 0002:00007f24       ??_C@_0BC@NODFOAPC@Shotgun?5reloading@ 00468f24     server.obj
 0002:00007f38       ??_C@_0L@ODANIEDP@weapon?1sub@ 00468f38     server.obj
 0002:00007f44       ??_C@_0P@MPAHGGFC@Submachine?5gun@ 00468f44     server.obj
 0002:00007f54       ??_C@_0BC@DPJLGFDO@weapon?1sub_reload@ 00468f54     server.obj
 0002:00007f68       ??_C@_0BJ@LLKHHBPA@Submachine?5gun?5reloading@ 00468f68     server.obj
 0002:00007f84       ??_C@_0O@CIICPCNG@weapon?1sniper@ 00468f84     server.obj
 0002:00007f94       ??_C@_06OOFIBKJO@Sniper@   00468f94     server.obj
 0002:00007f9c       ??_C@_0BF@OGCCCGGC@weapon?1sniper_reload@ 00468f9c     server.obj
 0002:00007fb4       ??_C@_0BB@CKHPHMFM@Sniper?5reloading@ 00468fb4     server.obj
 0002:00007fc8       ??_C@_0M@FGGLEMPB@weapon?1auto@ 00468fc8     server.obj
 0002:00007fd4       ??_C@_0O@OPBALMBM@Assault?5rifle@ 00468fd4     server.obj
 0002:00007fe4       ??_C@_0BD@GCNMCBHE@weapon?1auto_reload@ 00468fe4     server.obj
 0002:00007ff8       ??_C@_0BI@DDOIMOK@Assault?5rifle?5reloading@ 00468ff8     server.obj
 0002:00008010       ??_C@_0BG@NKCBJNFG@misc?1pickup_ammo_clip@ 00469010     server.obj
 0002:00008028       ??_C@_0M@GGDKJKLI@Ammo?5pickup@ 00469028     server.obj
 0002:00008034       ??_C@_0BD@HFJJLGLF@misc?1pickup_health@ 00469034     server.obj
 0002:00008048       ??_C@_0O@MLANGGEJ@Health?5pickup@ 00469048     server.obj
 0002:00008058       ??_C@_0BD@JIHIBDEG@misc?1pickup_armour@ 00469058     server.obj
 0002:0000806c       ??_C@_0O@OGOLLBNK@Armour?5pickup@ 0046906c     server.obj
 0002:0000807c       ??_C@_0L@OLHBAANG@misc?1tick9@ 0046907c     server.obj
 0002:00008088       ??_C@_0O@BGOOKAOB@Akimbo?5pickup@ 00469088     server.obj
 0002:00008098       ??_C@_0BC@JGCENOFC@weapon?1clip_empty@ 00469098     server.obj
 0002:000080ac       ??_C@_0L@HGMAHEHA@Empty?5clip@ 004690ac     server.obj
 0002:000080b8       ??_C@_0M@KHBFFAOL@misc?1tick11@ 004690b8     server.obj
 0002:000080c4       ??_C@_0BA@DHBGKBCD@Akimbo?5finished@ 004690c4     server.obj
 0002:000080d4       ??_C@_0N@FABPBCIE@player?1pain1@ 004690d4     server.obj
 0002:000080e4       ??_C@_06DDCFMBJH@Pain?51@  004690e4     server.obj
 0002:000080ec       ??_C@_0N@HLDCEBEH@player?1pain2@ 004690ec     server.obj
 0002:000080fc       ??_C@_06BIAIJCFE@Pain?52@  004690fc     server.obj
 0002:00008104       ??_C@_0N@GCCJHAAG@player?1pain3@ 00469104     server.obj
 0002:00008114       ??_C@_06BBDKDBF@Pain?53@   00469114     server.obj
 0002:0000811c       ??_C@_0N@CNGIOGMB@player?1pain4@ 0046911c     server.obj
 0002:0000812c       ??_C@_06EOFCDFNC@Pain?54@  0046912c     server.obj
 0002:00008134       ??_C@_0N@DEHDNHIA@player?1pain5@ 00469134     server.obj
 0002:00008144       ??_C@_06FHEJAEJD@Pain?55@  00469144     server.obj
 0002:0000814c       ??_C@_0N@BPFOIEED@player?1pain6@ 0046914c     server.obj
 0002:0000815c       ??_C@_06HMGEFHFA@Pain?56@  0046915c     server.obj
 0002:00008164       ??_C@_0M@CPFABJBI@player?1die1@ 00469164     server.obj
 0002:00008170       ??_C@_05LMDOEFHJ@Die?51@   00469170     server.obj
 0002:00008178       ??_C@_0M@EHNEKNL@player?1die2@ 00469178     server.obj
 0002:00008184       ??_C@_05JHBDBGLK@Die?52@   00469184     server.obj
 0002:0000818c       ??_C@_0BD@FLOBOKKB@weapon?1grenade_exp@ 0046918c     server.obj
 0002:000081a0       ??_C@_0BC@FDJHBPII@Grenade?5explosion@ 004691a0     server.obj
 0002:000081b4       ??_C@_0P@IAGJOHHP@player?1splash1@ 004691b4     server.obj
 0002:000081c4       ??_C@_08MPDHPJLN@Splash?51@ 004691c4     server.obj
 0002:000081d0       ??_C@_0P@KLEELELM@player?1splash2@ 004691d0     server.obj
 0002:000081e0       ??_C@_08OEBKKKHO@Splash?52@ 004691e0     server.obj
 0002:000081ec       ??_C@_0N@DDPEMIFI@ctf?1flagdrop@ 004691ec     server.obj
 0002:000081fc       ??_C@_09KBEKAJNH@Flag?5drop@ 004691fc     server.obj
 0002:00008208       ??_C@_0P@CCLAAKHN@ctf?1flagpickup@ 00469208     server.obj
 0002:00008218       ??_C@_0M@HCMIOOGB@Flag?5pickup@ 00469218     server.obj
 0002:00008224       ??_C@_0P@HBOFJJEL@ctf?1flagreturn@ 00469224     server.obj
 0002:00008234       ??_C@_0M@CBJNHNFH@Flag?5return@ 00469234     server.obj
 0002:00008240       ??_C@_0O@DNNOOKJD@ctf?1flagscore@ 00469240     server.obj
 0002:00008250       ??_C@_0L@EAELMKOD@Flag?5score@ 00469250     server.obj
 0002:0000825c       ??_C@_0BE@CHJEMMAE@weapon?1grenade_pull@ 0046925c     server.obj
 0002:00008270       ??_C@_0N@PKIEMEAA@Grenade?5pull@ 00469270     server.obj
 0002:00008280       ??_C@_0BF@NGFFDADE@weapon?1grenade_throw@ 00469280     server.obj
 0002:00008298       ??_C@_0O@NBOFOECF@Grenade?5throw@ 00469298     server.obj
 0002:000082a8       ??_C@_0BH@JFNPMEJF@weapon?1grenade_bounce1@ 004692a8     server.obj
 0002:000082c0       ??_C@_0BB@GIJIAMCN@Grenade?5bounce?51@ 004692c0     server.obj
 0002:000082d4       ??_C@_0BH@LOPCJHFG@weapon?1grenade_bounce2@ 004692d4     server.obj
 0002:000082ec       ??_C@_0BB@EDLFFPOO@Grenade?5bounce?52@ 004692ec     server.obj
 0002:00008300       ??_C@_0BH@CECMLOKI@weapon?1pistol_akreload@ 00469300     server.obj
 0002:00008318       ??_C@_0O@MOAAKNMM@Akimbo?5reload@ 00469318     server.obj
 0002:00008328       ??_C@_0BA@HODAEJBM@misc?1change_gun@ 00469328     server.obj
 0002:00008338       ??_C@_0O@CMOODNNF@Change?5weapon@ 00469338     server.obj
 0002:00008348       ??_C@_0O@DKCDDDPE@misc?1impact_t@ 00469348     server.obj
 0002:00008358       ??_C@_09PJCMGAA@Hit?5sound@ 00469358     server.obj
 0002:00008364       ??_C@_0L@DDEPKGCP@player?1gib@ 00469364     server.obj
 0002:00008370       ??_C@_0L@EIDPHHMO@Gib?5sounds@ 00469370     server.obj
 0002:0000837c       ??_C@_0O@DBJNKAPO@misc?1headshot@ 0046937c     server.obj
 0002:0000838c       ??_C@_08BCCLJLJA@Headshot@ 0046938c     server.obj
 0002:00008398       ??_C@_0P@KIFHMJDG@vote?1vote_call@ 00469398     server.obj
 0002:000083a8       ??_C@_09LALLIFMK@Call?5vote@ 004693a8     server.obj
 0002:000083b4       ??_C@_0P@FFDHMOLH@vote?1vote_pass@ 004693b4     server.obj
 0002:000083c4       ??_C@_09EICPHAIB@Pass?5vote@ 004693c4     server.obj
 0002:000083d0       ??_C@_0P@GGHMIEKN@vote?1vote_fail@ 004693d0     server.obj
 0002:000083e0       ??_C@_09BOHCEAOK@Fail?5vote@ 004693e0     server.obj
 0002:000083ec       ??_C@_0BB@COMCEBBO@player?1footsteps@ 004693ec     server.obj
 0002:00008400       ??_C@_09MABIJEAA@Footsteps@ 00469400     server.obj
 0002:0000840c       ??_C@_0O@PDLFJAAC@player?1crouch@ 0046940c     server.obj
 0002:0000841c       ??_C@_06PBKMMHEL@Crouch@   0046941c     server.obj
 0002:00008424       ??_C@_0BC@JCHFIPHM@player?1watersteps@ 00469424     server.obj
 0002:00008438       ??_C@_0BA@OAODNPEG@Water?5footsteps@ 00469438     server.obj
 0002:00008448       ??_C@_0BD@CEMKJNAH@player?1watercrouch@ 00469448     server.obj
 0002:0000845c       ??_C@_0BA@CJDECEBP@Water?5crouching@ 0046945c     server.obj
 0002:0000846c       ??_C@_0BB@OGNILAPG@player?1crouch_in@ 0046946c     server.obj
 0002:00008480       ??_C@_09MJDEANPP@Crouch?9in@ 00469480     server.obj
 0002:0000848c       ??_C@_0BC@CKHDCACG@player?1crouch_out@ 0046948c     server.obj
 0002:000084a0       ??_C@_0L@FDIAHEDP@Crouch?9out@ 004694a0     server.obj
 0002:000084ac       ??_C@_0BB@FEIGAOLE@misc?1menu_click1@ 004694ac     server.obj
 0002:000084c0       ??_C@_0M@FDEIGFFC@Menu?5select@ 004694c0     server.obj
 0002:000084cc       ??_C@_0BB@HPKLFNHH@misc?1menu_click2@ 004694cc     server.obj
 0002:000084e0       ??_C@_0L@MILFFLCA@Menu?5enter@ 004694e0     server.obj
 0002:000084ec       ??_C@_0BC@EPBABFIF@player?1underwater@ 004694ec     server.obj
 0002:00008500       ??_C@_0L@LFPBPCDD@Underwater@ 00469500     server.obj
 0002:0000850c       ??_C@_0O@BFHKIADO@misc?1tinnitus@ 0046950c     server.obj
 0002:0000851c       ??_C@_08DGMMLLFA@Tinnitus@ 0046951c     server.obj
 0002:00008528       ??_C@_0BF@EHNGJPMG@voicecom?1affirmative@ 00469528     server.obj
 0002:00008540       ??_C@_0M@HOICMPAN@Affirmative@ 00469540     server.obj
 0002:0000854c       ??_C@_0BF@BDDNHPPM@voicecom?1allrightsir@ 0046954c     server.obj
 0002:00008564       ??_C@_0O@BEBHFNED@All?9right?5sir@ 00469564     server.obj
 0002:00008574       ??_C@_0BE@JMOLCCEA@voicecom?1comeonmove@ 00469574     server.obj
 0002:00008588       ??_C@_0O@OBCHHKLO@Come?5on?0?5move@ 00469588     server.obj
 0002:00008598       ??_C@_0BN@MCANLHBO@voicecom?1cominginwiththeflag@ 00469598     server.obj
 0002:000085b8       ??_C@_0BI@DBOHAKM@Coming?5in?5with?5the?5flag@ 004695b8     server.obj
 0002:000085d0       ??_C@_0BB@EGCGDADA@voicecom?1coverme@ 004695d0     server.obj
 0002:000085e4       ??_C@_08FLAGMGHM@Cover?5me@ 004695e4     server.obj
 0002:000085f0       ??_C@_0BH@MCPEHDGD@voicecom?1defendtheflag@ 004695f0     server.obj
 0002:00008608       ??_C@_0BA@OFAKNIJD@Defend?5the?5flag@ 00469608     server.obj
 0002:00008618       ??_C@_0BD@IAILBGPI@voicecom?1enemydown@ 00469618     server.obj
 0002:0000862c       ??_C@_0L@HKDICABG@Enemy?5down@ 0046962c     server.obj
 0002:00008638       ??_C@_0BF@IFBNNEAG@voicecom?1gogetemboys@ 00469638     server.obj
 0002:00008650       ??_C@_0BB@ICNBIIKD@Go?5get?5?8em?5boys?$CB@ 00469650     server.obj
 0002:00008664       ??_C@_0BF@PLMPABGC@voicecom?1goodjobteam@ 00469664     server.obj
 0002:0000867c       ??_C@_0O@JEMKNFGF@Good?5job?5team@ 0046967c     server.obj
 0002:0000868c       ??_C@_0BB@DNGFLOOF@voicecom?1igotone@ 0046968c     server.obj
 0002:000086a0       ??_C@_0L@FKHKLJFJ@I?5got?5one?$CB@ 004696a0     server.obj
 0002:000086ac       ??_C@_0BG@LACNMDDF@voicecom?1imadecontact@ 004696ac     server.obj
 0002:000086c4       ??_C@_0P@GJLFDACE@I?5made?5contact@ 004696c4     server.obj
 0002:000086d4       ??_C@_0BF@FDBMICMC@voicecom?1imattacking@ 004696d4     server.obj
 0002:000086ec       ??_C@_0O@OHCPJMNC@I?8m?5attacking@ 004696ec     server.obj
 0002:000086fc       ??_C@_0BF@KICNCKGM@voicecom?1imondefense@ 004696fc     server.obj
 0002:00008714       ??_C@_0P@HEIFOHPG@I?8m?5on?5defense@ 00469714     server.obj
 0002:00008724       ??_C@_0BJ@KAEMOGGA@voicecom?1imonyourteamman@ 00469724     server.obj
 0002:00008740       ??_C@_0BB@HFIPFCNK@I?8m?5on?5your?5team@ 00469740     server.obj
 0002:00008754       ??_C@_0BC@BKOANIFD@voicecom?1negative@ 00469754     server.obj
 0002:00008768       ??_C@_08BIJOEGAJ@Negative@ 00469768     server.obj
 0002:00008774       ??_C@_0BB@JEEJCLCL@voicecom?1nocando@ 00469774     server.obj
 0002:00008788       ??_C@_09LENHHELI@No?5can?5do@ 00469788     server.obj
 0002:00008794       ??_C@_0BI@JHKIJFMA@voicecom?1recovertheflag@ 00469794     server.obj
 0002:000087ac       ??_C@_0BB@FFJCKPPJ@Recover?5the?5flag@ 004697ac     server.obj
 0002:000087c0       ??_C@_0P@BEJBBJNB@voicecom?1sorry@ 004697c0     server.obj
 0002:000087d0       ??_C@_05LHPLNCAP@Sorry@    004697d0     server.obj
 0002:000087d8       ??_C@_0BD@NHIEKGKC@voicecom?1spreadout@ 004697d8     server.obj
 0002:000087ec       ??_C@_0L@MAHKOBCH@Spread?5out@ 004697ec     server.obj
 0002:000087f8       ??_C@_0BC@JDOEJEOL@voicecom?1stayhere@ 004697f8     server.obj
 0002:0000880c       ??_C@_09GLEBBAJB@Stay?5here@ 0046980c     server.obj
 0002:00008818       ??_C@_0BG@OHHHLHJL@voicecom?1staytogether@ 00469818     server.obj
 0002:00008830       ??_C@_0O@GFNPHGLN@Stay?5together@ 00469830     server.obj
 0002:00008840       ??_C@_0BI@JPBAJDNM@voicecom?1theresnowaysir@ 00469840     server.obj
 0002:00008858       ??_C@_0BD@JOFPGNCK@There?8s?5no?5way?5sir@ 00469858     server.obj
 0002:0000886c       ??_C@_0BB@LAOLJNLB@voicecom?1wedidit@ 0046986c     server.obj
 0002:00008880       ??_C@_0L@PBKAGDPK@We?5did?5it?$CB@ 00469880     server.obj
 0002:0000888c       ??_C@_0N@DPLJMJJF@voicecom?1yes@ 0046988c     server.obj
 0002:0000889c       ??_C@_03CCLAEDDF@Yes@      0046989c     server.obj
 0002:000088a0       ??_C@_0BF@LFCNLIKO@voicecom?1onthemove_1@ 004698a0     server.obj
 0002:000088b8       ??_C@_09JMONDFPD@Under?5way@ 004698b8     server.obj
 0002:000088c4       ??_C@_0BF@JOAAOLGN@voicecom?1onthemove_2@ 004698c4     server.obj
 0002:000088dc       ??_C@_0M@LBFADPPF@On?5the?5move@ 004698dc     server.obj
 0002:000088e8       ??_C@_0BG@KHNJEIEM@voicecom?1igotyourback@ 004698e8     server.obj
 0002:00008900       ??_C@_0O@DPPOCJIH@Got?5your?5back@ 00469900     server.obj
 0002:00008910       ??_C@_0BI@GACEGPJ@voicecom?1igotyoucovered@ 00469910     server.obj
 0002:00008928       ??_C@_0BA@FPBOBMNO@Got?5you?5covered@ 00469928     server.obj
 0002:00008938       ??_C@_0BG@IJMBDPPH@voicecom?1inposition_1@ 00469938     server.obj
 0002:00008950       ??_C@_0M@JNIFNLEL@In?5position@ 00469950     server.obj
 0002:0000895c       ??_C@_0BG@KCOMGMDE@voicecom?1inposition_2@ 0046995c     server.obj
 0002:00008974       ??_C@_0BA@DMEOEKAC@In?5position?5now@ 00469974     server.obj
 0002:00008984       ??_C@_0BC@BBNKONGC@voicecom?1reportin@ 00469984     server.obj
 0002:00008998       ??_C@_0L@NIHBHOJB@Report?5in?$CB@ 00469998     server.obj
 0002:000089a4       ??_C@_0BC@GICDKLID@voicecom?1niceshot@ 004699a4     server.obj
 0002:000089b8       ??_C@_09KELICDFF@Nice?5shot@ 004699b8     server.obj
 0002:000089c4       ??_C@_0BC@BONCNABF@voicecom?1thanks_1@ 004699c4     server.obj
 0002:000089d8       ??_C@_06GOJFLACL@Thanks@   004699d8     server.obj
 0002:000089e0       ??_C@_0BC@DFPPIDNG@voicecom?1thanks_2@ 004699e0     server.obj
 0002:000089f4       ??_C@_0M@GBENEOBE@Thanks?0?5man@ 004699f4     server.obj
 0002:00008a00       ??_C@_0BD@CLNJAGL@voicecom?1awesome_1@ 00469a00     server.obj
 0002:00008a14       ??_C@_0M@HICOAMBJ@Awesome?5?$CI1?$CJ@ 00469a14     server.obj
 0002:00008a20       ??_C@_0BD@CJJAMDKI@voicecom?1awesome_2@ 00469a20     server.obj
 0002:00008a34       ??_C@_0M@HKGILCEA@Awesome?5?$CI2?$CJ@ 00469a34     server.obj
 0002:00008a40       ??_C@_0BD@MOCGIBHL@misc?1pickup_helmet@ 00469a40     server.obj
 0002:00008a54       ??_C@_0O@BGLEODNE@Helmet?5pickup@ 00469a54     server.obj
 0002:00008a64       ??_C@_0BB@HDHPNBCB@player?1heartbeat@ 00469a64     server.obj
 0002:00008a78       ??_C@_09JNKFAEDP@Heartbeat@ 00469a78     server.obj
 0002:00008a84       ??_C@_0O@OIHPEKF@ktf?1flagscore@ 00469a84     server.obj
 0002:00008a94       ??_C@_09KEADPCJ@KTF?5score@ 00469a94     server.obj
 0002:00008aa0       ??_C@_0M@HOLHNHFJ@misc?1camera@ 00469aa0     server.obj
 0002:00008aac       ??_C@_0L@KKOCHHLN@Screenshot@ 00469aac     server.obj
 0002:00008ab8       ??_C@_0JL@FAEFMENG@an?5error?5occurred?5running?5the?5A@ 00469ab8     server.obj
 0002:00008b54       ??_C@_06CMCBKMCB@weight@   00469b54     server.obj
 0002:00008b5c       ??_C@_06LGDBIFHB@repeat@   00469b5c     server.obj
 0002:00008b64       ??_C@_04CLCEDBPF@time@     00469b64     server.obj
 0002:00008b6c       ??_C@_07OPBKMLPH@mintime@  00469b6c     server.obj
 0002:00008b74       ??_C@_07JHKGEBG@maxtime@   00469b74     server.obj
 0002:00008b7c       ??_C@_0L@DONIJINK@minplayers@ 00469b7c     server.obj
 0002:00008b88       ??_C@_0L@PCNFODNF@maxplayers@ 00469b88     server.obj
 0002:00008b94       ??_C@_0M@FDEMOPMD@maxteamsize@ 00469b94     server.obj
 0002:00008ba0       ??_C@_0O@MOODODND@teamthreshold@ 00469ba0     server.obj
 0002:00008bb0       ??_C@_06LBOEMNGF@manual@   00469bb0     server.obj
 0002:00008bb8       ??_C@_08NGGFOJBB@restrict@ 00469bb8     server.obj
 0002:00008bc4       ??_C@_0BI@OMJIFFNB@packages?2maps?2official?2@ 00469bc4     server.obj
 0002:00008bdc       ??_C@_0P@JMNKJHGD@packages?2maps?2@ 00469bdc     server.obj
 0002:00008bec       ??_C@_0BK@MIFHMGFN@packages?2maps?2servermaps?2@ 00469bec     server.obj
 0002:00008c08       ??_C@_0CD@BOPDALNM@packages?2maps?2servermaps?2incomi@ 00469c08     server.obj
 0002:00008c2c       ??_C@_08FDNEBLPN@official@ 00469c2c     server.obj
 0002:00008c38       ??_C@_05IDKHKMLA@local@    00469c38     server.obj
 0002:00008c40       ??_C@_06EKNFNOKI@custom@   00469c40     server.obj
 0002:00008c48       ??_C@_09CAHPDAG@temporary@ 00469c48     server.obj
 0002:00008c54       ??_C@_07CIFAGBMG@unknown@  00469c54     server.obj
 0002:00008c5c       ??_C@_0BB@GJJOBAMO@illegal?5filename@ 00469c5c     server.obj
 0002:00008c70       ??_C@_08NCPIFAOA@?$CFs?$CFs?4cfg@ 00469c70     server.obj
 0002:00008c7c       ??_C@_0BK@MECCINJK@illegal?5chars?5in?5cfg?5file@ 00469c7c     server.obj
 0002:00008c98       ??_C@_08CMFGFGML@?$CFs?$CFs?4cgz@ 00469c98     server.obj
 0002:00008ca4       ??_C@_0BD@FJOJJJIH@loading?5cgz?5failed@ 00469ca4     server.obj
 0002:00008cb8       ??_C@_0BB@NOKMNFC@cfg?5file?5too?5big@ 00469cb8     server.obj
 0002:00008ccc       ??_C@_0BB@BLOOLBIA@cgz?5file?5too?5big@ 00469ccc     server.obj
 0002:00008ce0       ??_C@_0BN@DMHOAKHA@cgz?5?$CL?5cfg?4gz?5too?5big?5to?5send@ 00469ce0     server.obj
 0002:00008d00       ??_C@_02JDPG@rb@           00469d00     server.obj
 0002:00008d04       ??_C@_0BE@HBKNPAAN@can?8t?5open?5map?5file@ 00469d04     server.obj
 0002:00008d18       ??_C@_04CEENDHAF@CUBE@     00469d18     server.obj
 0002:00008d20       ??_C@_04BHBGMNAP@ACMP@     00469d20     server.obj
 0002:00008d28       ??_C@_0N@NBDBJEGM@bad?5map?5file@ 00469d28     server.obj
 0002:00008d38       ??_C@_0BG@JEPJIBCA@incompatible?5map?5file@ 00469d38     server.obj
 0002:00008d50       ??_C@_0BD@HNAFDEGJ@map?5file?5truncated@ 00469d50     server.obj
 0002:00008d64       ??_C@_01MCMALHOG@a@        00469d64     server.obj
 0002:00008d68       ??_C@_0M@DPBLMNMA@?$CFs?5?5?$CFs?5?5?$CFs?6@ 00469d68     server.obj
 0002:00008d74       ??_C@_0BJ@HNNMEOOH@invalid?5HX_ARTIST?5record@ 00469d74     server.obj
 0002:00008d90       ??_C@_0CP@CEGBPHGE@overflow?5during?5conversion?5of?5e@ 00469d90     server.obj
 0002:00008dc0       ??_C@_0BA@FBNABAKD@map?5file?5broken@ 00469dc0     server.obj
 0002:00008dd0       ??_C@_0CC@IIMKFACI@while?5reading?5map?3?5unexpected?5e@ 00469dd0     server.obj
 0002:00008df4       ??_C@_0CL@IMEODHPJ@unoptimised?5map?5file?5not?5allowe@ 00469df4     server.obj
 0002:00008e20       ??_C@_0N@FCLCMN@illegal?5type@ 00469e20     server.obj
 0002:00008e30       ??_C@_0BF@DKKGAHBA@world?5geometry?5error@ 00469e30     server.obj
 0002:00008e48       ??_C@_0BH@KNIDJPBB@world?5layout?5malformed@ 00469e48     server.obj
 0002:00008e60       ??_C@_0BI@CAFBOALP@world?5layout?5unplayable@ 00469e60     server.obj
 0002:00008e78       ??_C@_0BO@LKCKAGIL@gzipping?5the?5floorplan?5failed@ 00469e78     server.obj
 0002:00008e98       ??_C@_0CA@KLKOGOBN@reading?5map?5?8?$CFs?$CFs?8?5failed?3?5?$CFs?4?6@ 00469e98     server.obj
 0002:00008eb8       ??_C@_0KF@IGPOCAJL@read?5map?5?8?$CFs?$CFs?8?3?5cgz?5?$CFd?5bytes?0?5@ 00469eb8     server.obj
 0002:00008f60       ??_C@_03GPGADENH@cgz@      00469f60     server.obj
 0002:00008f68       ??_C@_0GP@GPMGDGPD@?6?$CD?$CD?$CD?$CD?5?$CFs?5?$CD?$CD?$CD?$CD?5scanning?5all?5map?5@ 00469f68     server.obj
 0002:00008fd8       ??_C@_0CJ@EPFODGHD@packages?2maps?2servermaps?2incomi@ 00469fd8     server.obj
 0002:00009004       ??_C@_02GMLFBBN@wb@        0046a004     server.obj
 0002:00009008       ??_C@_0CJ@LBPADAFI@packages?2maps?2servermaps?2incomi@ 0046a008     server.obj
 0002:00009034       ??_C@_0CA@HDCDJCDJ@could?5not?5read?5config?5file?5?8?$CFs?8@ 0046a034     server.obj
 0002:00009054       ??_C@_02CBLDBPFN@?1?1@     0046a054     server.obj
 0002:00009058       ??_C@_08MMCLGCMD@?$CFs?$CFd?4cfg@ 0046a058     server.obj
 0002:00009064       ??_C@_01NOFIACDB@w@        0046a064     server.obj
 0002:00009068       ??_C@_01JLIPDDHJ@?3@       0046a068     server.obj
 0002:0000906c       ??_C@_07LPFJLKOF@?$CFs?$CFs?3?$CFd@ 0046a06c     server.obj
 0002:00009078       ??_C@_0EM@ELHEMECA@weight?$HMtime?$HMmintime?$HMmaxtime?$HMmin@ 0046a078     server.obj
 0002:000090c4       ??_C@_0BA@MHLNGKPI@use_hx_modeinfo@ 0046a0c4     server.obj
 0002:000090d4       ??_C@_01DNKMNLPK@?$HM@     0046a0d4     server.obj
 0002:000090d8       ??_C@_0CH@IEOFIBOG@read?5?$CFd?5map?5rotation?5entries?5fr@ 0046a0d8     server.obj
 0002:00009100       ??_C@_0BN@BJHKGPNB@maprot?5parameters?5for?3?5?$CFs?$CFs?6@ 0046a100     server.obj
 0002:00009120       ??_C@_0L@PLKNJIJH@?5?5mode?5?$CFs?3@ 0046a120     server.obj
 0002:0000912c       ??_C@_06OELMCFOK@?5?$CFs?3?$CFd@ 0046a12c     server.obj
 0002:00009134       ??_C@_01EEMJAFIK@?6@       0046a134     server.obj
 0002:00009138       ??_C@_0BE@POFLBJKA@?5?5modes_allowed?5?$CFs?6@ 0046a138     server.obj
 0002:0000914c       ??_C@_0BB@IOMJAEDN@?5?5modes_auto?5?$CFs?6@ 0046a14c     server.obj
 0002:00009160       ??_C@_0BA@KFOGACPP@?5?5modes?5man?5?$CFs?6@ 0046a160     server.obj
 0002:00009170       ??_C@_0BD@EOKPNJLH@?5?5modes_cr?$FL?$CFd?$FN?5?$CFs?6@ 0046a170     server.obj
 0002:00009184       ??_C@_0BF@OKODOJC@?5?5modes_pn?$FL?$CF02d?$FN?5?$CFs?6@ 0046a184     server.obj
 0002:0000919c       ??_C@_03JFMEENOE@ERR@      0046a19c     server.obj
 0002:000091a0       ??_C@_0BF@HMDKFMLP@reading?5ip?5list?5?8?$CFs?8@ 0046a1a0     server.obj
 0002:000091b8       ??_C@_0DB@NDJDIDPE@?5error?5in?5line?5?$CFd?0?5file?5?$CFs?3?5fai@ 0046a1b8     server.obj
 0002:000091f0       ??_C@_0EB@NPEKPHHB@?5error?3?5IP?5list?5entry?5?$CFs?$HM?$CFs?5del@ 0046a1f0     server.obj
 0002:00009234       ??_C@_0CN@POBMANGM@?5IP?5list?5entry?5?$CFs?5got?5dropped?5?$CI@ 0046a234     server.obj
 0002:00009264       ??_C@_0DG@NPOAPKPL@?5IP?5list?5entry?5?$CFs?5got?5dropped?5?$CI@ 0046a264     server.obj
 0002:0000929c       ??_C@_0DP@LLADELBK@?5IP?5list?5entries?5?$CFs?5and?5?$CFs?5are?5@ 0046a29c     server.obj
 0002:000092e0       ??_C@_0EJ@DANCCJBP@?5error?3?5IP?5list?5entries?5?$CFs?$HM?$CFs?5a@ 0046a2e0     server.obj
 0002:0000932c       ??_C@_0DD@GNDACHPH@?5concatenating?5IP?5list?5entries?5@ 0046a32c     server.obj
 0002:00009360       ??_C@_06NOJLBGIH@?5?$CFs?5?$CFs@ 0046a360     server.obj
 0002:00009368       ??_C@_0ED@MMOJCHPN@read?5?$CFd?5?$CI?$CFd?$CJ?5IP?5list?5entries?5fr@ 0046a368     server.obj
 0002:000093ac       ??_C@_0BK@KKEKLEBO@reading?5ip?5blacklist?5?8?$CFs?8@ 0046a3ac     server.obj
 0002:000093c8       ??_C@_0CJ@DFKMCCEO@?5error?5in?5line?5?$CFd?0?5file?5?$CFs?3?5ign@ 0046a3c8     server.obj
 0002:000093f4       ??_C@_0CP@PHNKLMFL@?5blacklist?5entry?5?$CFs?5got?5dropped@ 0046a3f4     server.obj
 0002:00009424       ??_C@_0DI@HCOHKKA@?5blacklist?5entry?5?$CFs?5got?5dropped@ 0046a424     server.obj
 0002:0000945c       ??_C@_0DH@CDMDIKMH@?5blacklist?5entries?5?$CFs?5and?5?$CFs?5ar@ 0046a45c     server.obj
 0002:00009494       ??_C@_03EEBNCBOD@?5?$CFs@  0046a494     server.obj
 0002:00009498       ??_C@_0DE@LCODJEAN@read?5?$CFd?5?$CI?$CFd?$CJ?5blacklist?5entries?5@ 0046a498     server.obj
 0002:000094cc       ??_C@_0CA@CEHEPNJB@reading?5nickname?5blacklist?5?8?$CFs?8@ 0046a4cc     server.obj
 0002:000094ec       ??_C@_06MPKMECK@accept@    0046a4ec     server.obj
 0002:000094f4       ??_C@_05PIBOEKAB@block@    0046a4f4     server.obj
 0002:000094fc       ??_C@_01OJONOECF@b@        0046a4fc     server.obj
 0002:00009500       ??_C@_06MDMAPODC@blocki@   0046a500     server.obj
 0002:00009508       ??_C@_02PPNCOJEN@bi@       0046a508     server.obj
 0002:0000950c       ??_C@_0DB@EKMLHED@?5error?5in?5line?5?$CFd?0?5file?5?$CFs?3?5unk@ 0046a50c     server.obj
 0002:00009540       ??_C@_0CC@ODAFNME@?5nickname?5whitelist?5?$CI?$CFd?5entries@ 0046a540     server.obj
 0002:00009564       ??_C@_0L@MHPGGDE@?5?5pwd?3?$CC?$CFs?$CC@ 0046a564     server.obj
 0002:00009570       ??_C@_04GCLKCGOG@?5?5?$CFs@ 0046a570     server.obj
 0002:00009578       ??_C@_0O@PPFPHPHF@?5?5accept?5?$CFs?$CFs@ 0046a578     server.obj
 0002:00009588       ??_C@_0CC@BLJMIBMB@?5nickname?5blacklist?5?$CI?$CFd?5entries@ 0046a588     server.obj
 0002:000095ac       ??_C@_01KBJDNOO@i@         0046a5ac     server.obj
 0002:000095b0       ??_C@_0BA@PLEINLAL@?5?5?$CF2d?5block?$CFs?$CFs@ 0046a5b0     server.obj
 0002:000095c0       ??_C@_0EC@IGCCFJCH@read?5?$CFd?5?$CL?5?$CFd?5entries?5from?5nickn@ 0046a5c0     server.obj
 0002:00009604       ??_C@_05DNIIFBMG@?$CFs?5?$CFs@ 0046a604     server.obj
 0002:0000960c       ??_C@_0BM@MLKFCIBF@reading?5forbidden?5list?5?8?$CFs?8@ 0046a60c     server.obj
 0002:00009628       ??_C@_0BN@OPMPJNDF@reading?5admin?5passwords?5?8?$CFs?8@ 0046a628     server.obj
 0002:00009648       ??_C@_0P@HDFCIBNK@line?$CF4d?3?5?$CFs?5?$CFd@ 0046a648     server.obj
 0002:00009658       ??_C@_0CC@MFGFCPJP@read?5?$CFd?5admin?5passwords?5from?5?8?$CF@ 0046a658     server.obj
 0002:0000967c       ??_C@_09JAEEGPLL@?$CFs_en?4txt@ 0046a67c     server.obj
 0002:00009688       ??_C@_0BM@BLBBJBHA@reading?5info?5text?5file?5?8?$CFs?8@ 0046a688     server.obj
 0002:000096a4       ??_C@_03OFAPEBGM@?$CFs?6@  0046a6a4     server.obj
 0002:000096a8       ??_C@_0CI@LOBCGEKE@info?5text?5file?5?8?$CFs?8?5truncated?3?5@ 0046a6a8     server.obj
 0002:000096d0       ??_C@_0BF@JADKPBLD@?$CFs?3?$CFd?5?1?1?5default?5?$CFd?6@ 0046a6d0     server.obj
 0002:000096e8       ??_C@_0BF@LOJAKBHA@?$CFs?3?$CFs?5?1?1?5default?5?$CFs?6@ 0046a6e8     server.obj
 0002:00009700       ??_C@_0DF@EJLLDCCP@server?5statistics?5parameter?5?$CFs?5@ 0046a700     server.obj
 0002:00009738       ??_C@_0DJ@CNHBFANK@server?5statistics?5parameter?5?$CFs?5@ 0046a738     server.obj
 0002:00009774       ??_C@_05NIGAKFML@first@    0046a774     server.obj
 0002:0000977c       ??_C@_04PLGBGIDD@last@     0046a77c     server.obj
 0002:00009784       ??_C@_03PNPPPIFF@ban@      0046a784     server.obj
 0002:00009788       ??_C@_09GHOJLDKL@whitelist@ 0046a788     server.obj
 0002:00009794       ??_C@_07PJADLICL@minconn@  0046a794     server.obj
 0002:0000979c       ??_C@_06DFDMDPH@minact@    0046a79c     server.obj
 0002:000097a4       ??_C@_05GECEPKB@flags@     0046a7a4     server.obj
 0002:000097ac       ??_C@_09MILKCFFA@antiflags@ 0046a7ac     server.obj
 0002:000097b8       ??_C@_05NJJCGGEC@frags@    0046a7b8     server.obj
 0002:000097c0       ??_C@_06EHIKAPAF@deaths@   0046a7c0     server.obj
 0002:000097c8       ??_C@_03HKHGBJNM@tks@      0046a7c8     server.obj
 0002:000097cc       ??_C@_08MOEOKJOB@suicides@ 0046a7cc     server.obj
 0002:000097d8       ??_C@_06GJOIPFFF@damage@   0046a7d8     server.obj
 0002:000097e0       ??_C@_02HPEDFNFO@ff@       0046a7e0     server.obj
 0002:000097e4       ??_C@_06GOALCNFB@PUBKEY@   0046a7e4     server.obj
 0002:000097ec       ??_C@_04IPKHEEB@NAME@      0046a7ec     server.obj
 0002:000097f4       ??_C@_06IIIGFHDN@PUBCOM@   0046a7f4     server.obj
 0002:000097fc       ??_C@_07FDAFEGGH@PRIVCOM@  0046a7fc     server.obj
 0002:00009804       ??_C@_02MFEOMNPG@IP@       0046a804     server.obj
 0002:00009808       ??_C@_02KJDGAJLC@CC@       0046a808     server.obj
 0002:0000980c       ??_C@_04OIOOEIIC@CLAN@     0046a80c     server.obj
 0002:00009814       ??_C@_04KNIOFKKL@STAT@     0046a814     server.obj
 0002:0000981c       ??_C@_02HAOIJKIC@?$CFc@    0046a81c     server.obj
 0002:00009820       ??_C@_0GE@FGMLCLLB@?1?1?5AC?5server?5vita?5database?6?1?1?5a@ 0046a820     server.obj
 0002:00009884       ??_C@_09EACAMGIO@PUBKEY?5?$CFs@ 0046a884     server.obj
 0002:00009890       ??_C@_06NAMLFCKE@?6?7NAME@ 0046a890     server.obj
 0002:00009898       ??_C@_04MLJFLENC@?6?7IP@   0046a898     server.obj
 0002:000098a0       ??_C@_0N@MCHCGLCD@?6?7PRIVCOM?5?$CFs@ 0046a8a0     server.obj
 0002:000098b0       ??_C@_0M@EOBBOCDA@?6?7PUBCOM?5?$CFs@ 0046a8b0     server.obj
 0002:000098bc       ??_C@_09DKCMFFPJ@?6?7CLAN?5?$CFs@ 0046a8bc     server.obj
 0002:000098c8       ??_C@_04KHONHAJG@?6?7CC@   0046a8c8     server.obj
 0002:000098d0       ??_C@_05BJHFBPJM@?5?$CFc?$CFc@ 0046a8d0     server.obj
 0002:000098d8       ??_C@_06HFLPHMEO@?6?7STAT@ 0046a8d8     server.obj
 0002:000098e0       ??_C@_02PHMGELLB@?6?6@     0046a8e0     server.obj
 0002:000098e4       ??_C@_08BEHKFNNO@disabled@ 0046a8e4     server.obj
 0002:000098f0       ??_C@_07MHHIKOPA@enabled@  0046a8f0     server.obj
 0002:000098f8       ??_C@_0L@HMJMFLPL@dumpmaprot@ 0046a8f8     server.obj
 0002:00009904       ??_C@_0P@LBCIFG@dumpparameters@ 0046a904     server.obj
 0002:00009914       ??_C@_0L@CIPAEDBA@vitamaxage@ 0046a914     server.obj
 0002:00009920       ??_C@_0DP@DOMNNEAP@omitted?5?$CFd?5vitas?5from?5autosave?5@ 0046a920     server.obj
 0002:00009960       ??_C@_0BJ@PKEDLOJP@thread?5management?5mishap@ 0046a960     server.obj
 0002:0000997c       ??_C@_0BG@CFKPHLOP@waking?5readmapsthread@ 0046a97c     server.obj
 0002:00009994       ??_C@_0CD@MIFDONNE@marked?5servermap?5?$CFs?$CFs?5for?5delet@ 0046a994     server.obj
 0002:000099b8       ??_C@_0BF@HIMPDODE@added?5servermap?5?$CFs?$CFs@ 0046a9b8     server.obj
 0002:000099d0       ??_C@_0BE@GAFHDIMN@added?5?$CFd?5servermaps@ 0046a9d0     server.obj
 0002:000099e4       ??_C@_0BO@MGFICHNK@read?1updated?5?$CFd?5vitas?5from?5?$CFs@ 0046a9e4     server.obj
 0002:00009a04       ??_C@_0CB@GJIJECNO@?$CFsdebug?1maprot_debug_verbose?4tx@ 0046aa04     server.obj
 0002:00009a28       ??_C@_0CE@KGFEEEDI@?$CFsdebug?1serverparameter_dump_?$CFs@ 0046aa28     server.obj
 0002:00009a4c       ??_C@_0BP@MDEHMDAC@?1?1?5server?5parameter?5dump?0?5?$CFs?6?6@ 0046aa4c     server.obj
 0002:00009a6c       ??_C@_0BD@ODGOJFKA@gamepenalty_cutoff@ 0046aa6c     server.obj
 0002:00009a80       ??_C@_0BD@KLPEKIDB@gamepenalty_random@ 0046aa80     server.obj
 0002:00009a94       ??_C@_0BC@GKFAHACG@mappenalty_cutoff@ 0046aa94     server.obj
 0002:00009aa8       ??_C@_0BC@NFLJOMGF@mappenalty_weight@ 0046aaa8     server.obj
 0002:00009abc       ??_C@_0BD@FJAJIEMD@modepenalty_weight@ 0046aabc     server.obj
 0002:00009ad0       ??_C@_0BC@KIPLHDNK@no?5maps?5available@ 0046aad0     server.obj
 0002:00009ae4       ??_C@_0BA@PJKANJGC@dumpsuggestions@ 0046aae4     server.obj
 0002:00009af4       ??_C@_0CG@MNEPGHMA@?$CFsdebug?1maprotsuggestions_dump_@ 0046aaf4     server.obj
 0002:00009b1c       ??_C@_0DA@LACADAHB@?1?1?5maprot?5suggestions?5dump?0?5?$CFs?6@ 0046ab1c     server.obj
 0002:00009b50       ??_C@_0EN@HHMGDAEB@map?3?5?$CC?$CFs?$CFs?$CC?0?5weight?3?5?$CFd?0?5bestmo@ 0046ab50     server.obj
 0002:00009ba0       ??_C@_03LFPLOMCK@ri2@      0046aba0     server.obj
 0002:00009ba4       ??_C@_03FMJJJCGO@ris@      0046aba4     server.obj
 0002:00009ba8       ??_C@_05IAHDPNHG@ri8vv@    0046aba8     server.obj
 0002:00009bb0       ??_C@_0BA@JCCALKHB@demo_max_number@ 0046abb0     server.obj
 0002:00009bc0       ??_C@_09GMFLEFFF@demo_save@ 0046abc0     server.obj
 0002:00009bcc       ??_C@_09JNNBJFKG@demo_path@ 0046abcc     server.obj
 0002:00009bd8       ??_C@_0BC@EIGICDCI@?$CFw_?$CFh_?$CFn_?$CFMmin_?$CFG@ 0046abd8     server.obj
 0002:00009bec       ??_C@_0BE@BFPKGCND@demo_filenameformat@ 0046abec     server.obj
 0002:00009c00       ??_C@_0M@BMHEADLN@?$CFY?$CFm?$CFd_?$CFH?$CFM@ 0046ac00     server.obj
 0002:00009c0c       ??_C@_0BF@GGGJELDC@demo_timestampformat@ 0046ac0c     server.obj
 0002:00009c24       ??_C@_0L@BJNPPEAF@demo_debug@ 0046ac24     server.obj
 0002:00009c30       ??_C@_0BP@OLDDNPIE@dropping?5demo?5?$CD?$CFd?5?$CC?$CFs?$CC?0?5age?5?$CFd@ 0046ac30     server.obj
 0002:00009c50       ??_C@_0EC@HKMMDGBK@clearing?5unfinished?5demo?5slot?5?$CD@ 0046ac50     server.obj
 0002:00009c94       ??_C@_0CK@MFCNDDPB@initdemoslot?$CI?$CJ?3?5use?5slot?5?$CFd?0?5se@ 0046ac94     server.obj
 0002:00009cc0       ??_C@_0DA@OGODHFHA@demoworkerthread?$CI?$CJ?3?5close?5slot?5@ 0046acc0     server.obj
 0002:00009cf0       ??_C@_0BA@JPHJNOJK@SERVDEMOEND?$DM?$CFs?$DO@ 0046acf0     server.obj
 0002:00009d00       ??_C@_0CJ@OIKHEPIJ@demo?5?$CD?$CFd?5written?5to?5file?5?$CC?$CFs?$CC?5?$CI@ 0046ad00     server.obj
 0002:00009d2c       ??_C@_0CG@OHBOMEGA@failed?5to?5write?5demo?5?$CD?$CFd?5to?5fil@ 0046ad2c     server.obj
 0002:00009d54       ??_C@_0DP@LOILALCF@recording?5demo?5?$CD?$CFd?5?$CC?$CFs?$CC?5?$CI?$CFd?5byt@ 0046ad54     server.obj
 0002:00009d94       ??_C@_0DC@MMCDJGLP@demoworkerthread?$CI?$CJ?3?5cleanup?5slo@ 0046ad94     server.obj
 0002:00009dc8       ??_C@_0DG@GFAIIMOC@demorecord?5ringbuffer?5overflow?5@ 0046adc8     server.obj
 0002:00009e00       ??_C@_0CN@PGIDOPLP@demorecord_beginintermission?$CI?$CJ?3@ 0046ae00     server.obj
 0002:00009e30       ??_C@_03IINIKNLB@rim@      0046ae30     server.obj
 0002:00009e34       ??_C@_0BO@HKOLOOBI@enddemorecord?$CI?$CJ?3?5sequence?5?$CD?$CFd@ 0046ae34     server.obj
 0002:00009e54       ??_C@_0BE@HLAIMMHL@Demo?5?$CD?$CFd?5discarded?4@ 0046ae54     server.obj
 0002:00009e68       ??_C@_0L@LCAANBFG@?$CFs?3?5?$CFs?0?5?$CFs@ 0046ae68     server.obj
 0002:00009e74       ??_C@_07DNFOMHCC@?0?5?$CFd?5mr@ 0046ae74     server.obj
 0002:00009e7c       ??_C@_0L@DMPMECKM@?$CFs?0?5?$CF?42fMB@ 0046ae7c     server.obj
 0002:00009e88       ??_C@_0EC@GAFPDJMH@Demo?5?$CD?$CFd?5?$CC?$CFs?$CC?5recorded?6Press?5F1@ 0046ae88     server.obj
 0002:00009ecc       ??_C@_0BE@NBIGHJFK@Demo?5?$CC?$CFs?$CC?5recorded?4@ 0046aecc     server.obj
 0002:00009ee0       ??_C@_08ILKDANLA@?$CFs?$CFs?4dmo@ 0046aee0     server.obj
 0002:00009eec       ??_C@_0P@KHAJHHDM@recording?5demo@ 0046aeec     server.obj
 0002:00009efc       ??_C@_0BO@GOLBMBCF@Demo?5recording?5started?5?$CI?$CD?$CFd?$CJ?4@ 0046aefc     server.obj
 0002:00009f1c       ??_C@_0BB@GEJJBCDD@ASSAULTCUBE_DEMO@ 0046af1c     server.obj
 0002:00009f30       ??_C@_0O@IJJBOPPC@?$CFs?0?5?$CFs?0?5?$CFs?5?$CFs@ 0046af30     server.obj
 0002:00009f40       ??_C@_0CK@IGGJNCL@setupdemorecord?$CI?$CJ?3?5sequence?5?$CD?$CFd@ 0046af40     server.obj
 0002:00009f6c       ??_C@_0BC@POHFLPFB@cleared?5all?5demos@ 0046af6c     server.obj
 0002:00009f80       ??_C@_0BB@OLHIBGKM@cleared?5demo?5?$CD?$CFd@ 0046af80     server.obj
 0002:00009f94       ??_C@_0DA@IFBLKHCG@?$AM3Sorry?0?5you?5have?5already?5downl@ 0046af94     server.obj
 0002:00009fc8       ??_C@_0GA@NOFIKPDG@scheduled?5download?5of?5demo?5?$CD?$CFd?5@ 0046afc8     server.obj
 0002:0000a028       ??_C@_0BH@FGABOCMC@demo?5?$CD?$CFd?5not?5available@ 0046b028     server.obj
 0002:0000a040       ??_C@_04BOGJAFCD@risi@     0046b040     server.obj
 0002:0000a048       ??_C@_0BH@DDHBGPNA@demo?5playback?5finished@ 0046b048     server.obj
 0002:0000a060       ??_C@_0N@KEAIKOPL@demos?1?$CFs?4dmo@ 0046b060     server.obj
 0002:0000a070       ??_C@_0BJ@FGMPABJP@could?5not?5read?5demo?5?$CC?$CFs?$CC@ 0046b070     server.obj
 0002:0000a08c       ??_C@_0BI@GNMJEANF@?$CC?$CFs?$CC?5is?5not?5a?5demo?5file@ 0046b08c     server.obj
 0002:0000a0a4       ??_C@_05MAMALHE@older@     0046b0a4     server.obj
 0002:0000a0ac       ??_C@_05IIOMECNB@newer@    0046b0ac     server.obj
 0002:0000a0b4       ??_C@_0DA@ONDKFKJL@demo?5?$CC?$CFs?$CC?5requires?5an?5?$CFs?5versio@ 0046b0b4     server.obj
 0002:0000a0e4       ??_C@_0BC@HOBCLJFH@playing?5demo?5?$CC?$CFs?$CC@ 0046b0e4     server.obj
 0002:0000a0f8       ??_C@_06HJADOMEE@is?5afk@  0046b0f8     server.obj
 0002:0000a100       ??_C@_0L@NNJGPDOG@?$FL?$CFs?$FN?5?$CFs?5?$CFs@ 0046b100     server.obj
 0002:0000a10c       ??_C@_09JOMJAOJO@?$CFs?5is?5afk@ 0046b10c     server.obj
 0002:0000a118       ??_C@_0CD@KHFJCHFC@kicked?5for?5excessive?5friendly?5f@ 0046b118     server.obj
 0002:0000a13c       ??_C@_0P@GCHGGLJK@tried?5to?5touch@ 0046b13c     server.obj
 0002:0000a14c       ??_C@_07PLFLGKJL@touched@  0046b14c     server.obj
 0002:0000a154       ??_C@_0CN@FJEMGDMH@?$FL?$CFs?$FN?5?$CFs?5?$CFs?5the?5?$CFs?5flag?5at?5dista@ 0046b154     server.obj
 0002:0000a184       ??_C@_06BHKKDCOF@riiiii@   0046b184     server.obj
 0002:0000a18c       ??_C@_05CJOCHPGC@riiii@    0046b18c     server.obj
 0002:0000a198       ??_C@_0FE@GCHNFFAA@aborting?5flagaction?$CIflag?5?$CFd?0?5ac@ 0046b198     server.obj
 0002:0000a1ec       ??_C@_04PNICDIF@riii@      0046b1ec     server.obj
 0002:0000a1f4       ??_C@_05PFNLCNMP@stole@    0046b1f4     server.obj
 0002:0000a1fc       ??_C@_09CEJFKJLO@picked?5up@ 0046b1fc     server.obj
 0002:0000a208       ??_C@_0BE@CBGFHNGN@?$FL?$CFs?$FN?5?$CFs?5?$CFs?5the?5flag@ 0046b208     server.obj
 0002:0000a21c       ??_C@_04BLLOBPAA@lost@     0046b21c     server.obj
 0002:0000a224       ??_C@_07JBEJBFGB@dropped@  0046b224     server.obj
 0002:0000a22c       ??_C@_0BK@CCLBGGOC@?$FL?$CFs?$FN?5?$CFs?5returned?5the?5flag@ 0046b22c     server.obj
 0002:0000a248       ??_C@_0CN@PJGDHNFE@?$FL?$CFs?$FN?5?$CFs?5hunted?5the?5flag?5for?5?$CFs?0@ 0046b248     server.obj
 0002:0000a278       ??_C@_0DC@PGHOIBJI@?$FL?$CFs?$FN?5?$CFs?5scored?5with?5the?5flag?5fo@ 0046b278     server.obj
 0002:0000a2ac       ??_C@_0DG@LBKOGMMH@?$FL?$CFs?$FN?5?$CFs?5scored?0?5carrying?5for?5?$CFd@ 0046b2ac     server.obj
 0002:0000a2e4       ??_C@_0BI@PALEAONP@?$FL?$CFs?$FN?5?$CFs?5failed?5to?5score@ 0046b2e4     server.obj
 0002:0000a2fc       ??_C@_0CN@PFEJALKB@flagaction?5?$CFd?0?5actor?5?$CFd?0?5flag?5?$CF@ 0046b2fc     server.obj
 0002:0000a32c       ??_C@_0CG@ENALELKK@the?5server?5reset?5the?5flag?5for?5t@ 0046b32c     server.obj
 0002:0000a354       ??_C@_0DM@HGHNGCDE@flagaction?5?$CFd?5with?5invalid?5acto@ 0046b354     server.obj
 0002:0000a390       ??_C@_0CG@PNFJOKHN@?$FL?$CFs?$FN?5?$CFs?5got?5forced?5to?5pickup?5th@ 0046b390     server.obj
 0002:0000a3b8       ??_C@_0DN@JFGDIDCG@?$FL?$CFs?$FN?5tried?5to?5pick?5up?5entity?5?$CD?$CF@ 0046b3b8     server.obj
 0002:0000a3f8       ??_C@_0FG@DOFPPKEH@?$FL?$CFs?$FN?5tried?5to?5pick?5up?5entity?5?$CD?$CF@ 0046b3f8     server.obj
 0002:0000a450       ??_C@_0O@OIIGAAOA@tried?5to?5pick@ 0046b450     server.obj
 0002:0000a460       ??_C@_06NMDIHEMP@picked@   0046b460     server.obj
 0002:0000a468       ??_C@_0DC@GNGKALCE@?$FL?$CFs?$FN?5?$CFs?5?$CFs?5up?5entity?5?$CD?$CFd?5?$CI?$CFs?$CJ?0?5@ 0046b468     server.obj
 0002:0000a49c       ??_C@_03KMOANNGL@ri3@      0046b49c     server.obj
 0002:0000a4a0       ??_C@_03MIIMBIGP@ri7@      0046b4a0     server.obj
 0002:0000a4a4       ??_C@_03NBJHCJCO@ri6@      0046b4a4     server.obj
 0002:0000a4a8       ??_C@_0BB@OKHBFNLA@?$FL?$CFs?$FN?5?$CFs?5suicided@ 0046b4a8     server.obj
 0002:0000a4bc       ??_C@_03PKLKHKON@ri5@      0046b4bc     server.obj
 0002:0000a4c0       ??_C@_0BA@HNEOCNBG@?5their?5teammate@ 0046b4c0     server.obj
 0002:0000a4d0       ??_C@_07NLFOLLKK@smurfed@  0046b4d0     server.obj
 0002:0000a4d8       ??_C@_0BA@INPKPLLM@?$FL?$CFs?$FN?5?$CFs?5?$CFs?$CFs?5?$CFs@ 0046b4d8     server.obj
 0002:0000a4e8       ??_C@_04DLOBGJBI@ri6x@     0046b4e8     server.obj
 0002:0000a4f0       ??_C@_06DIJPEION@?$CFs?$CFs?$CFs@ 0046b4f0     server.obj
 0002:0000a4f8       ??_C@_0CC@EIJPODON@using?5randomness?5to?5shuffle?5tea@ 0046b4f8     server.obj
 0002:0000a51c       ??_C@_05FNONLPDI@match@    0046b51c     server.obj
 0002:0000a524       ??_C@_04CGHPDPGO@vita@     0046b524     server.obj
 0002:0000a52c       ??_C@_0CF@PADODCHH@using?5?$CFs?5skill?5data?5to?5shuffle?5@ 0046b52c     server.obj
 0002:0000a554       ??_C@_0BD@FFGHKNDI@startgame?$CI?$CJ?5abused@ 0046b554     server.obj
 0002:0000a568       ??_C@_0CE@EHBHDKNC@server?5description?5reset?5to?5def@ 0046b568     server.obj
 0002:0000a58c       ??_C@_0CB@PAJFFLK@server?5description?5reset?5to?5?8?$CFs@ 0046b58c     server.obj
 0002:0000a5b0       ??_C@_0BE@BMIIOCCM@servermap?5not?5found@ 0046b5b0     server.obj
 0002:0000a5c4       ??_C@_07MGAFENNG@risiiii@  0046b5c4     server.obj
 0002:0000a5cc       ??_C@_0DO@ENANGNME@Game?5start?3?5?$CFs?5on?5?$CFs?0?5?$CFd?5player@ 0046b5cc     server.obj
 0002:0000a60c       ??_C@_0O@PBFGJBDN@teamsize?5?$CFd?0?5@ 0046b60c     server.obj
 0002:0000a61c       ??_C@_04LKOGMCLF@not?5@    0046b61c     server.obj
 0002:0000a624       ??_C@_0CJ@GKDJPFAP@?$CImap?5rev?5?$CFd?1?$CFd?0?5?$CFs?0?5?8getmap?8?5?$CFs@ 0046b624     server.obj
 0002:0000a650       ??_C@_0BN@IEDHGJLO@error?3?5failed?5to?5preload?5map@ 0046b650     server.obj
 0002:0000a670       ??_C@_03ILJCGOLJ@?6?$CFs@  0046b670     server.obj
 0002:0000a674       ??_C@_0BB@CBKCJIPK@invalid?5map?5name@ 0046b674     server.obj
 0002:0000a688       ??_C@_0CC@PHGHJOLD@the?5server?5does?5not?5have?5this?5m@ 0046b688     server.obj
 0002:0000a6ac       ??_C@_0BJ@GHAEIAPJ@first?5do?5a?3?5?$AM1sendmap?5?$CFs@ 0046b6ac     server.obj
 0002:0000a6c8       ??_C@_0CD@CFHMDAPO@?$AM3map?5?$CC?$CFs?$CC?5does?5not?5support?5?$CC?$CFs@ 0046b6c8     server.obj
 0002:0000a6ec       ??_C@_0BA@JLKMKDLC@map?5is?5readonly@ 0046b6ec     server.obj
 0002:0000a6fc       ??_C@_0BK@OCCJAJBH@player?5spawns?5?$CIminimum?35?$CJ@ 0046b6fc     server.obj
 0002:0000a718       ??_C@_05OMGAMCPJ@?5and?5@  0046b718     server.obj
 0002:0000a720       ??_C@_0L@GLKDCPGP@flag?5bases@ 0046b720     server.obj
 0002:0000a72c       ??_C@_08NDNIJDBN@?5missing@ 0046b72c     server.obj
 0002:0000a738       ??_C@_02DKCKIIND@?$CFs@    0046b738     server.obj
 0002:0000a73c       ??_C@_0BL@ODOLBKFO@load?5map?5?8?$CFs?8?5in?5mode?5?8?$CFs?8@ 0046b73c     server.obj
 0002:0000a758       ??_C@_0BE@CMIJKKAF@?5?$CIin?5the?5next?5game?$CJ@ 0046b758     server.obj
 0002:0000a76c       ??_C@_0BL@KLCOLIHG@force?5player?5?$CFs?5to?5team?5?$CFs@ 0046b76c     server.obj
 0002:0000a788       ??_C@_0BL@DAFFAHDF@kick?5player?5?$CFs?0?5reason?3?5?$CFs@ 0046b788     server.obj
 0002:0000a7a4       ??_C@_0BK@DFKEPACD@ban?5player?5?$CFs?0?5reason?3?5?$CFs@ 0046b7a4     server.obj
 0002:0000a7c0       ??_C@_0BA@CMODEPPP@remove?5all?5bans@ 0046b7c0     server.obj
 0002:0000a7d0       ??_C@_0P@CFBNFONL@pause?5the?5game@ 0046b7d0     server.obj
 0002:0000a7e0       ??_C@_0BA@FDKDGHPE@resume?5the?5game@ 0046b7e0     server.obj
 0002:0000a7f0       ??_C@_0BK@MACNFFGB@change?5mastermode?5to?5?8?$CFs?8@ 0046b7f0     server.obj
 0002:0000a80c       ??_C@_06OFNJOBDK@enable@   0046b80c     server.obj
 0002:0000a814       ??_C@_07DBNODEFN@disable@  0046b814     server.obj
 0002:0000a81c       ??_C@_0M@PLOEBEDN@?$CFs?5autoteam@ 0046b81c     server.obj
 0002:0000a828       ??_C@_0O@NPMMHHAE@shuffle?5teams@ 0046b828     server.obj
 0002:0000a838       ??_C@_0CA@LOAMFEOG@shuffle?5teams?5requires?5teammode@ 0046b838     server.obj
 0002:0000a858       ??_C@_0BH@IKBEHIPN@invalid?5shuffle?5action@ 0046b858     server.obj
 0002:0000a870       ??_C@_0O@MDFFACOL@?$CFs?5demorecord@ 0046b870     server.obj
 0002:0000a880       ??_C@_0O@KGFFHOAE@clear?5demo?5?$CFd@ 0046b880     server.obj
 0002:0000a890       ??_C@_0BP@LFNDKAFG@set?5server?5description?5to?5?8?$CFs?8@ 0046b890     server.obj
 0002:0000a8b0       ??_C@_02KAJCLHKP@no@       0046b8b0     server.obj
 0002:0000a8b4       ??_C@_03ICICOMAL@yes@      0046b8b4     server.obj
 0002:0000a8b8       ??_C@_0BI@NAACJIDA@?$FL?$CFs?$FN?5client?5?$CFs?5voted?5?$CFs@ 0046b8b8     server.obj
 0002:0000a8d0       ??_C@_02ODPEEKDN@ri@       0046b8d0     server.obj
 0002:0000a8d4       ??_C@_09DJENBFJK@?$FLunknown?$FN@ 0046b8d4     server.obj
 0002:0000a8e0       ??_C@_0CB@EFMKMBHI@?$FL?$CFs?$FN?5client?5?$CFs?5called?5a?5vote?3?5?$CF@ 0046b8e0     server.obj
 0002:0000a904       ??_C@_0CC@GBCGBFMK@?$AM3shuffle?5teams?5requires?5teammo@ 0046b904     server.obj
 0002:0000a928       ??_C@_0CO@OGJCHPFO@?$FL?$CFs?$FN?5client?5?$CFs?5failed?5to?5call?5a@ 0046b928     server.obj
 0002:0000a958       ??_C@_09BHGEMBEK@?$FLunnamed?$FN@ 0046b958     server.obj
 0002:0000a964       ??_C@_0CO@GHJIOCFJ@?$FL?$CFs?$FN?5player?5?$CFs?5used?5admin?5passw@ 0046b964     server.obj
 0002:0000a998       ??_C@_0ED@FNKAJAPE@?$FL?$CFs?$FN?5player?5?$CFs?5claimed?5admin?5th@ 0046b998     server.obj
 0002:0000a9dc       ??_C@_0O@BMJKFEFI@normal?5player@ 0046b9dc     server.obj
 0002:0000a9ec       ??_C@_0CB@LMBFBACF@?$FL?$CFs?$FN?5set?5role?5of?5player?5?$CFs?5to?5?$CF@ 0046b9ec     server.obj
 0002:0000aa10       ??_C@_0O@GBHLNNFC@?0?5score?5saved@ 0046ba10     server.obj
 0002:0000aa20       ??_C@_0DN@CHPBBPC@?$FL?$CFs?$FN?5disconnecting?5client?5?$CFs?5?$CI?$CF@ 0046ba20     server.obj
 0002:0000aa60       ??_C@_0DH@BODBKIPC@?$FL?$CFs?$FN?5disconnected?5client?5?$CFs?5cn?5@ 0046ba60     server.obj
 0002:0000aa98       ??_C@_03OMLEGILF@rii@      0046ba98     server.obj
 0002:0000aa9c       ??_C@_09NNHJADML@ri3i8ivvi@ 0046ba9c     server.obj
 0002:0000aaa8       ??_C@_09BHIGKPDD@ri6IIIi3k@ 0046baa8     server.obj
 0002:0000aab4       ??_C@_04DMOIMBME@ri2x@     0046bab4     server.obj
 0002:0000aabc       ??_C@_07DAFEBGJG@riimiss@  0046babc     server.obj
 0002:0000aac4       ??_C@_0P@MOLAMMIG@auth_verify_ip@ 0046bac4     server.obj
 0002:0000aad8       ??_C@_0EE@EJGEAAAN@?$FL?$CFs?$FN?5client?5reported?5different?5@ 0046bad8     server.obj
 0002:0000ab1c       ??_C@_0DC@GGLLMHCL@SERVINFOCHALLENGE?$DM?$CI?$CFd?$CJ?5cn?3?5?$CFd?5c@ 0046bb1c     server.obj
 0002:0000ab50       ??_C@_0BI@MKKOMFOE@?5?$CFs?5st?3?5?$CFd?5ct?3?5?$CFd?5?$CI?$CFd?$CJ?$DO@ 0046bb50     server.obj
 0002:0000ab68       ??_C@_0BD@IJOJOPMD@SERVINFOSIGNED?$DM?$CFs?$DO@ 0046bb68     server.obj
 0002:0000ab7c       ??_C@_0M@JBAACIJC@?0?5AC?3?5?$CFd?$HM?$CFx@ 0046bb7c     server.obj
 0002:0000ab88       ??_C@_0N@FELMAHAH@?0?5pubkey?3?5?$CFs@ 0046bb88     server.obj
 0002:0000ab98       ??_C@_0BL@IHGBIFAL@?0?5nickname?5whitelist?5match@ 0046bb98     server.obj
 0002:0000abb4       ??_C@_0BH@LEGOAJIM@?0?5vita?5whitelist?5match@ 0046bbb4     server.obj
 0002:0000abcc       ??_C@_0CJ@MNMCBDLD@?$FL?$CFs?$FN?5?$CFs?5logged?5in?5?$CIreconnect?5to@ 0046bbcc     server.obj
 0002:0000abf8       ??_C@_03OIFAJNHF@PWD@      0046bbf8     server.obj
 0002:0000abfc       ??_C@_0DB@CAFCEIDH@?$FL?$CFs?$FN?5?8?$CFs?8?5matches?5nickname?5whit@ 0046bbfc     server.obj
 0002:0000ac30       ??_C@_0CP@FMIPILOP@?$FL?$CFs?$FN?5?8?$CFs?8?5matches?5nickname?5blac@ 0046bc30     server.obj
 0002:0000ac60       ??_C@_0O@PLGNHIKI@?0?5ban?5removed@ 0046bc60     server.obj
 0002:0000ac70       ??_C@_0DI@PDCCIHHC@?$FL?$CFs?$FN?5?$CFs?5logged?5in?5using?5the?5adm@ 0046bc70     server.obj
 0002:0000aca8       ??_C@_0CP@IBLJBKAC@?$FL?$CFs?$FN?5?$CFs?5logged?5in?5using?5the?5vit@ 0046bca8     server.obj
 0002:0000acd8       ??_C@_0DC@FAPPFMOC@?$FL?$CFs?$FN?5?$CFs?5client?5logged?5in?5?$CIusing@ 0046bcd8     server.obj
 0002:0000ad0c       ??_C@_0BO@IFDANLCP@?$FL?$CFs?$FN?5?$CFs?5logged?5in?5?$CIdefault?$CJ?$CFs@ 0046bd0c     server.obj
 0002:0000ad2c       ??_C@_0BL@CBDFDHFH@?$DMNULL?$DO?5client?5in?5process?$CI?$CJ@ 0046bd2c     server.obj
 0002:0000ad48       ??_C@_05GKIADEAH@?$CIme?$CJ?5@ 0046bd48     server.obj
 0002:0000ad50       ??_C@_0CA@NOOICLB@?$FL?$CFs?$FN?5?$CFs?$CFs?5says?5to?5team?5?$CFs?3?5?8?$CFs?8@ 0046bd50     server.obj
 0002:0000ad70       ??_C@_0O@CJDLHKDA@SPAM?5detected@ 0046bd70     server.obj
 0002:0000ad80       ??_C@_0BB@MMLLCPDI@Forbidden?5speech@ 0046bd80     server.obj
 0002:0000ad94       ??_C@_0CE@GHKEIHML@?$FL?$CFs?$FN?5?$CFs?$CFs?5says?5to?5team?5?$CFs?3?5?8?$CFs?8@ 0046bd94     server.obj
 0002:0000adb8       ??_C@_0DG@IDLCDFAJ@?$AM3Please?5do?5not?5spam?$DL?5your?5mess@ 0046bdb8     server.obj
 0002:0000adf0       ??_C@_0DH@MADHHECP@?$AM3Watch?5your?5language?$CB?5Your?5mes@ 0046bdf0     server.obj
 0002:0000ae28       ??_C@_0BF@JEKPNMLI@?$FL?$CFs?$FN?5?$CFs?$CFs?5says?3?5?8?$CFs?8@ 0046be28     server.obj
 0002:0000ae40       ??_C@_06LNEICABJ@riiuis@   0046be40     server.obj
 0002:0000ae48       ??_C@_0BJ@BMDPJOFP@?$FL?$CFs?$FN?5?$CFs?$CFs?5says?3?5?8?$CFs?8?0?5?$CFs@ 0046be48     server.obj
 0002:0000ae64       ??_C@_07BHLLLGNC@allowed@  0046be64     server.obj
 0002:0000ae6c       ??_C@_0L@BNMPONEH@disallowed@ 0046be6c     server.obj
 0002:0000ae78       ??_C@_0BO@FJIADOJP@?$FL?$CFs?$FN?5?$CFs?5says?5to?5?$CFs?3?5?8?$CFs?8?5?$CI?$CFs?$CJ@ 0046be78     server.obj
 0002:0000ae98       ??_C@_05JJMPIFLJ@riiis@    0046be98     server.obj
 0002:0000aea0       ??_C@_0BN@HBPFNFPO@?$FL?$CFs?$FN?5?$CFs?5says?5to?5?$CFs?3?5?8?$CFs?8?0?5?$CFs@ 0046bea0     server.obj
 0002:0000aec0       ??_C@_0DA@HEHLCMOG@?$FL?$CFs?$FN?5?$CFs?5is?5now?5on?5the?5right?5map@ 0046bec0     server.obj
 0002:0000aef0       ??_C@_0CM@DAHMHNME@?$FL?$CFs?$FN?5?$CFs?5is?5on?5the?5wrong?5map?3?5re@ 0046bef0     server.obj
 0002:0000af1c       ??_C@_0BL@KCDEMBPD@?$FL?$CFs?$FN?5?$CFs?5changed?5name?5to?5?$CFs@ 0046bf1c     server.obj
 0002:0000af38       ??_C@_0BF@KMJHPLNN@?$AM3Please?5do?5not?5spam@ 0046bf38     server.obj
 0002:0000af50       ??_C@_0DD@CAPPLCII@?$FL?$CFs?$FN?5?8?$CFs?8?5matches?5nickname?5whit@ 0046bf50     server.obj
 0002:0000af84       ??_C@_0CN@KJALLOBA@?$FL?$CFs?$FN?5?8?$CFs?8?5matches?5nickname?5blac@ 0046bf84     server.obj
 0002:0000afb4       ??_C@_02PDIHAGKM@ii@       0046bfb4     server.obj
 0002:0000afb8       ??_C@_09DJPLOHAF@map?5is?5RO@ 0046bfb8     server.obj
 0002:0000afc4       ??_C@_0CK@ONEGOBN@?$AM3map?5upload?5rejected?3?5map?5?$CFs?5i@ 0046bfc4     server.obj
 0002:0000aff0       ??_C@_0CD@OBIDBOGI@server?5incoming?5reached?5its?5lim@ 0046bff0     server.obj
 0002:0000b014       ??_C@_0DI@BEFFHL@?$AM3server?5does?5not?5support?5more?5@ 0046c014     server.obj
 0002:0000b04c       ??_C@_0CB@LJBAEAOB@no?5permission?5for?5initial?5uploa@ 0046c04c     server.obj
 0002:0000b070       ??_C@_0DE@CIKMLDDH@?$AM3initial?5map?5upload?5rejected?3?5@ 0046c070     server.obj
 0002:0000b0a4       ??_C@_0BI@OADHIB@no?5permission?5to?5update@ 0046c0a4     server.obj
 0002:0000b0bc       ??_C@_0CM@JIIFFCLH@?$AM3map?5update?5rejected?3?5you?5need@ 0046c0bc     server.obj
 0002:0000b0e8       ??_C@_0BF@CJFJOKOP@fake?5revision?5number@ 0046c0e8     server.obj
 0002:0000b100       ??_C@_0CB@FJFDAIAP@no?5permission?5to?5revert?5revisio@ 0046c100     server.obj
 0002:0000b128       ??_C@_0FF@ECGOCJEE@?$AM3map?5revert?5to?5older?5revision?5@ 0046c128     server.obj
 0002:0000b180       ??_C@_0DH@LBDLOLFL@?$FL?$CFs?$FN?5?$CFs?5sent?5map?5?$CFs?0?5rev?5?$CFd?0?5?$CFd@ 0046c180     server.obj
 0002:0000b1b8       ??_C@_04EONOHKEP@load@     0046c1b8     server.obj
 0002:0000b1c0       ??_C@_03GILJFNFC@dat@      0046c1c0     server.obj
 0002:0000b1c4       ??_C@_0BO@MDELMJLP@?$CFs?5?$CI?$CFd?$CJ?5up?$CFsed?5map?5?$CFs?0?5rev?5?$CFd@ 0046c1c4     server.obj
 0002:0000b1e4       ??_C@_0BO@CECMOOHG@write?5failed?5?$CIno?5?8incoming?8?$DP?$CJ@ 0046c1e4     server.obj
 0002:0000b204       ??_C@_0BE@HPANOEPL@?$AM3map?5upload?5failed@ 0046c204     server.obj
 0002:0000b218       ??_C@_0CJ@BJJNMFFF@?$FL?$CFs?$FN?5?$CFs?5sent?5map?5?$CFs?5rev?5?$CFd?0?5rej@ 0046c218     server.obj
 0002:0000b244       ??_C@_0CJ@PECHPKFK@?$CFd?3?$CFs?5GETMAP?5while?5on?5right?5map@ 0046c244     server.obj
 0002:0000b270       ??_C@_0BL@BOFNIBMK@you?8re?5already?5on?5this?5map@ 0046c270     server.obj
 0002:0000b28c       ??_C@_0O@NHNGNFAH@no?5permission@ 0046c28c     server.obj
 0002:0000b29c       ??_C@_0O@BFHFLMAO@map?5not?5found@ 0046c29c     server.obj
 0002:0000b2ac       ??_C@_0BB@FGOGBDN@map?5?8?$CFs?8?5deleted@ 0046c2ac     server.obj
 0002:0000b2c0       ??_C@_0BE@EMOFJHIM@?$FL?$CFs?$FN?5deleted?5map?5?$CFs@ 0046c2c0     server.obj
 0002:0000b2d4       ??_C@_0CA@ILMNBPFM@?$FL?$CFs?$FN?5deleting?5map?5?$CFs?5failed?3?5?$CFs@ 0046c2d4     server.obj
 0002:0000b2f4       ??_C@_0BM@GGPEIGEI@?$AM3can?8t?5delete?5map?5?8?$CFs?8?0?5?$CFs@ 0046c2f4     server.obj
 0002:0000b310       ??_C@_0CB@LJCFJLOA@unable?5to?5get?5next?5map?5in?5mapro@ 0046c310     server.obj
 0002:0000b334       ??_C@_0CA@BMOIGNAC@?$AM3You?5must?5be?5admin?5to?5get?5vita@ 0046c334     server.obj
 0002:0000b354       ??_C@_07HCIHFFCI@riimssv@  0046c354     server.obj
 0002:0000b35c       ??_C@_0CD@LPCKNKMO@?$AM3Invalid?5cn?5to?5retrieve?5vita?5d@ 0046c35c     server.obj
 0002:0000b380       ??_C@_0BA@NLDGCHEE@driAn?3?3writelog@ 0046c380     server.obj
 0002:0000b390       ??_C@_0BK@FGAIABAO@?$FL?$CFs?$FN?5?$CFs?5writes?5to?5log?3?5?$CFs@ 0046c390     server.obj
 0002:0000b3ac       ??_C@_0BN@KDGBJNAO@your?5message?5has?5been?5logged@ 0046c3ac     server.obj
 0002:0000b3cc       ??_C@_0N@GAIGPAFP@servpar?3?3get@ 0046c3cc     server.obj
 0002:0000b3dc       ??_C@_07DHPDHKIF@?$CFs?5?$DN?5?$CFd@ 0046c3dc     server.obj
 0002:0000b3e4       ??_C@_09JGKJLALO@?$CFs?5?$DN?5?$CC?$CFs?$CC@ 0046c3e4     server.obj
 0002:0000b3f0       ??_C@_0BF@LIFHEAFD@servpar?5?$CFs?5not?5found@ 0046c3f0     server.obj
 0002:0000b408       ??_C@_0N@LPPNDAJH@servpar?3?3set@ 0046c408     server.obj
 0002:0000b418       ??_C@_02BNFKLOHE@?5?3@     0046c418     server.obj
 0002:0000b41c       ??_C@_0N@HGMIGPIF@?$CFs?5set?5to?5?$CFs@ 0046c41c     server.obj
 0002:0000b42c       ??_C@_0BJ@ILMOAACM@?$CFs?5cannot?5be?5set?5to?5?$CC?$CFs?$CC@ 0046c42c     server.obj
 0002:0000b448       ??_C@_0P@ELBNMNKJ@servpar?3?3reset@ 0046c448     server.obj
 0002:0000b458       ??_C@_0DB@FHFPGAAC@reset?5all?5server?5parameters?5to?5@ 0046c458     server.obj
 0002:0000b48c       ??_C@_0O@CMJBPFCI@set?3?3teamsize@ 0046c48c     server.obj
 0002:0000b49c       ??_C@_0BK@CPKCNLNI@match?5team?5size?5set?5to?5?$CFd@ 0046c49c     server.obj
 0002:0000b4b8       ??_C@_0BF@FJEEOAHC@?$CFd?5minutes?5remaining@ 0046c4b8     server.obj
 0002:0000b4d0       ??_C@_0CP@GDFHMPGO@Game?5status?3?5?$CFs?5on?5?$CFs?0?5?$CFs?0?5?$CFs?0?5@ 0046c4d0     server.obj
 0002:0000b500       ??_C@_03OLOABHEL@tk?5@     0046c500     server.obj
 0002:0000b504       ??_C@_05JHNEEBDG@flag?5@   0046c504     server.obj
 0002:0000b50c       ??_C@_05NJENAFAB@team?5@   0046c50c     server.obj
 0002:0000b514       ??_C@_0DI@BECOJFKK@cn?5name?5?5?5?5?5?5?5?5?5?5?5?5?5?$CFs?$CFs?5frag?5d@ 0046c514     server.obj
 0002:0000b54c       ??_C@_0L@FLMJEJEO@?$CF2d?5?$CF?916s?5@ 0046c54c     server.obj
 0002:0000b558       ??_C@_05JMHHLMDB@?$CF?94s?5@ 0046c558     server.obj
 0002:0000b560       ??_C@_04JFOPIADO@?$CF4d?5@ 0046c560     server.obj
 0002:0000b568       ??_C@_07JBBOHJHJ@?$CF4d?5?$CF5d@ 0046c568     server.obj
 0002:0000b570       ??_C@_04EJIOOHLH@?5?$CF2d@ 0046c570     server.obj
 0002:0000b578       ??_C@_06CMHGODGB@admin?5@  0046c578     server.obj
 0002:0000b580       ??_C@_06IKLLLDHL@normal@   0046c580     server.obj
 0002:0000b588       ??_C@_0N@MHLCINNI@?$CFs?$CF5d?5?$CFs?5?5?$CFs@ 0046c588     server.obj
 0002:0000b598       ??_C@_03GGOOJDNC@?5?5?9@   0046c598     server.obj
 0002:0000b59c       ??_C@_0CH@FAJGIMDF@?5?5?5?$CF?916s?5?$CFs?$CF4d?5?$CF5d?$CFs?5?5?5?5?9?5disco@ 0046c59c     server.obj
 0002:0000b5c4       ??_C@_0CK@IMNKLHBA@Team?5?$CF4s?3?$CF3d?5players?0?$CF5d?5frags?$CF@ 0046c5c4     server.obj
 0002:0000b5f0       ??_C@_0BC@FMHGLGFP@Uplink?5quality?5?$FL?5@ 0046c5f0     server.obj
 0002:0000b604       ??_C@_05BFHEBJNP@?$CF02X?5@ 0046c604     server.obj
 0002:0000b60c       ??_C@_07MPDOLAKI@?$CFs?$FN?5?$CL?$CFd@ 0046c60c     server.obj
 0002:0000b614       ??_C@_0P@NJJPJABJ@mandatory_auth@ 0046c614     server.obj
 0002:0000b624       ??_C@_0O@NHNADMEJ@game?5finished@ 0046c624     server.obj
 0002:0000b634       ??_C@_0BC@HOECMGHJ@?$CFd?9?$CFm?9?$CFY?5?$CFH?3?$CFM?3?$CFS@ 0046c634     server.obj
 0002:0000b648       ??_C@_0GG@FBKBJGDC@Status?5at?5?$CFs?3?5?$CFd?5remote?5clients@ 0046c648     server.obj
 0002:0000b6b0       ??_C@_02BAABKJLB@?9?9@     0046c6b0     server.obj
 0002:0000b6b4       ??_C@_0BL@OAFPDMPN@?$FL?$CFs?$FN?5client?5connected?5?$CI?$CFs?$CJ@ 0046c6b4     server.obj
 0002:0000b6d0       ??_C@_02LFNMGJAP@en@       0046c6d0     server.obj
 0002:0000b6d4       ??_C@_0L@NEBFLIKO@cleargbans@ 0046c6d4     server.obj
 0002:0000b6e0       ??_C@_0L@GFKKJDPE@addgban?5?$CFs@ 0046c6e0     server.obj
 0002:0000b6ec       ??_C@_05GFCDIDHO@debug@    0046c6ec     server.obj
 0002:0000b6f4       ??_C@_07KBAMPNJK@verbose@  0046c6f4     server.obj
 0002:0000b6fc       ??_C@_04NIDJFNBE@info@     0046c6fc     server.obj
 0002:0000b704       ??_C@_07FPLKDJGL@warning@  0046c704     server.obj
 0002:0000b70c       ??_C@_05KKCIMGE@error@     0046c70c     server.obj
 0002:0000b714       ??_C@_0BF@MELPJPAD@logthreshold_console@ 0046c714     server.obj
 0002:0000b72c       ??_C@_0BE@CCKCJOFH@logthreshold_syslog@ 0046c72c     server.obj
 0002:0000b740       ??_C@_0BC@GBKAKCCH@logthreshold_file@ 0046c740     server.obj
 0002:0000b754       ??_C@_0BH@CLLDOHFL@stat_mainlog_peaklevel@ 0046c754     server.obj
 0002:0000b76c       ??_C@_0BI@HALOOJDJ@stat_theadlog_peaklevel@ 0046c76c     server.obj
 0002:0000b784       ??_C@_05CKLOHKLO@?$CFs?$CD?$CFd@ 0046c784     server.obj
 0002:0000b78c       ??_C@_0BP@NNFBIMPD@WARNING?3?5logging?5not?5started?$CB?6@ 0046c78c     server.obj
 0002:0000b7b0       ??_C@_0EE@BIGINKDB@logging?5local?5AssaultCube?5serve@ 0046c7b0     server.obj
 0002:0000b7f4       ??_C@_0BI@IGOEOFEC@server?5ip?5not?5resolved?$CB@ 0046c7f4     server.obj
 0002:0000b80c       ??_C@_0BN@JBKHAIPE@could?5not?5create?5server?5host@ 0046c80c     server.obj
 0002:0000b82c       ??_C@_0BG@JONAACAN@server?5public?5key?3?5?$CFs@ 0046c82c     server.obj
 0002:0000b844       ??_C@_06EDCEMKKP@?$CFs?4cfg@ 0046c844     server.obj
 0002:0000b84c       ??_C@_0L@DPJOEBMO@?$CFs_bak?4cfg@ 0046c84c     server.obj
 0002:0000b858       ??_C@_0O@DLDKKHLF@?$CFs_update?4cfg@ 0046c858     server.obj
 0002:0000b868       ??_C@_0L@HLKLPOEP@?$CFs_update_@ 0046c868     server.obj
 0002:0000b874       ??_C@_0BN@KDMADCMC@read?5?$CFd?5player?5vitas?5from?5?$CFs@ 0046c874     server.obj
 0002:0000b894       ??_C@_0CK@LJBFPEPN@holding?5up?5to?5?$CFd?5recorded?5demos@ 0046c894     server.obj
 0002:0000b8c0       ??_C@_0CM@GMDDLLAD@all?5recorded?5demos?5will?5be?5writ@ 0046c8c0     server.obj
 0002:0000b8ec       ??_C@_0BN@OIAEGBEC@vote?5permission?5string?3?5?$CC?$CFs?$CC@ 0046c8ec     server.obj
 0002:0000b90c       ??_C@_0BM@OBNBOGNH@map?5permission?5string?3?5?$CC?$CFs?$CC@ 0046c90c     server.obj
 0002:0000b928       ??_C@_0BJ@GEHDALOI@server?5description?3?5?$CC?$CFs?$CC@ 0046c928     server.obj
 0002:0000b944       ??_C@_0CM@OMMDKJJC@custom?5server?5description?3?5?$CC?$CFsC@ 0046c944     server.obj
 0002:0000b970       ??_C@_0DG@OINLBBKM@maxclients?3?5?$CFd?0?5kick?5threshold?3@ 0046c970     server.obj
 0002:0000b9a8       ??_C@_0BI@KBBCAOEI@master?5server?5URL?3?5?$CC?$CFs?$CC@ 0046c9a8     server.obj
 0002:0000b9c0       ??_C@_0BG@MHCIBKLA@server?5password?3?5?$CC?$CFs?$CC@ 0046c9c0     server.obj
 0002:0000b9d8       ??_C@_0BE@HMFGPNNM@anticheat?3?5disabled@ 0046c9d8     server.obj
 0002:0000b9ec       ??_C@_0BG@PNJJLFCO@Cannot?5handle?5SIGINT?$CB@ 0046c9ec     server.obj
 0002:0000ba04       ??_C@_0BH@PMIKMMFF@Cannot?5handle?5SIGTERM?$CB@ 0046ca04     server.obj
 0002:0000ba1c       ??_C@_0DB@CMNGHKAG@dedicated?5server?5started?0?5waiti@ 0046ca1c     server.obj
 0002:0000ba50       ??_C@_0P@OMKJFPJH@Ctrl?9C?5to?5exit@ 0046ca50     server.obj
 0002:0000ba60       ??_C@_0BD@FDPKPJCO@?$CFsreadmaps_log?4txt@ 0046ca60     server.obj
 0002:0000ba74       ??_C@_0BE@EJEIPCIL@?$CFsmisc?1modeinfo?4txt@ 0046ca74     server.obj
 0002:0000ba88       ??_C@_0BM@KMMFFJOE@AssaultCube?5fatal?5error?3?5?$CFs@ 0046ca88     server.obj
 0002:0000baa4       ??_C@_05EMIBFIGM@POSIX@    0046caa4     server.obj
 0002:0000baac       ??_C@_08GIBDDDIA@?9?9wizard@ 0046caac     server.obj
 0002:0000bab8       ??_C@_0CM@KPPBGDFC@WARNING?3?5unknown?5commandline?5ar@ 0046cab8     server.obj
 0002:0000bae4       ??_C@_0CE@BHIAAJAA@Unable?5to?5initialise?5network?5mo@ 0046cae4     server.obj
 0002:0000bb10       ?servermappath_off@@3PBDB  0046cb10     server.obj
 0002:0000bb14       ?shuffleskillthreshold@@3HA 0046cb14     server.obj
 0002:0000bb1c       ?spk@@3PAEA                0046cb1c     server.obj
 0002:0000bb20       ?entscale@@3PAY06EA        0046cb20     server.obj
 0002:0000bba0       ?killmessages@@3PAY0L@PBDA 0046cba0     server.obj
 0002:0000bbf8       ?servermappath_serv@@3PBDB 0046cbf8     server.obj
 0002:0000bbfc       ?servermappath_local@@3PBDB 0046cbfc     server.obj
 0002:0000bc00       ?entwraparound@@3PAY06FA   0046cc00     server.obj
 0002:0000bcfc       ?servermappath_incom@@3PBDB 0046ccfc     server.obj
 0002:0000bd00       ?maprotkeywords@@3PAPBDA   0046cd00     server.obj
 0002:0000bd30       ?entnames@@3PAPBDA         0046cd30     server.obj
 0002:0000bd80       ?vskeywords@@3PAPBDA       0046cd80     server.obj
 0002:0000be54       ?mmfullnames@@3PAPBDA      0046ce54     protocol1.obj
 0002:00026c3c       ?voteerrors@@3PAPBDA       00487c3c     protocol1.obj
 0002:00026f78       ?modefullnames@@3PAPBDA    00487f78     protocol1.obj
 0002:00026fe0       ??_7clientstate@@6B@       00487fe0     server.obj
 0002:00026fec       ??_7cleardemosaction@@6B@  00487fec     server.obj
 0002:00027000       ??_7pauseaction@@6B@       00488000     server.obj
 0002:00027014       ??_7shuffleteamaction@@6B@ 00488014     server.obj
 0002:00027028       ??_7serveripblacklist@@6B@ 00488028     server.obj
 0002:000270ec       ??_7servermaprot@@6B@      004880ec     server.obj
 0002:00027100       ??_7serverconfigfile@@6B@  00488100     server.obj
 0002:00027114       ??_7winservice@@6B@        00488114     server.obj
 0002:00027128       ??_7mastermodeaction@@6B@  00488128     server.obj
 0002:0002713c       ??_7servernickblacklist@@6B@ 0048813c     server.obj
 0002:00027150       ??_7removebansaction@@6B@  00488150     server.obj
 0002:00027164       ??_7kickaction@@6B@        00488164     server.obj
 0002:00027178       ??_7playeraction@@6B@      00488178     server.obj
 0002:0002718c       ??_7giveadminaction@@6B@   0048818c     server.obj
 0002:000271a0       ??_7serverpasswords@@6B@   004881a0     server.obj
 0002:000271b4       ??_7banaction@@6B@         004881b4     server.obj
 0002:000271f0       ??_7mapaction@@6B@         004881f0     server.obj
 0002:00027204       ??_7forceteamaction@@6B@   00488204     server.obj
 0002:00027218       ??_7serverparameter@@6B@   00488218     server.obj
 0002:0002722c       ??_7recorddemoaction@@6B@  0048822c     server.obj
 0002:00027240       ??_7autoteamaction@@6B@    00488240     server.obj
 0002:00027254       ??_7servercontroller@@6B@  00488254     server.obj
 0002:00027268       ??_7serverinfofile@@6B@    00488268     server.obj
 0002:0002727c       ??_7serverforbiddenlist@@6B@ 0048827c     server.obj
 0002:00027290       ??_7playerstate@@6B@       00488290     server.obj
 0002:0002729c       ??_7serverdescaction@@6B@  0048829c     server.obj
 0002:000272b0       ??_7serveripcclist@@6B@    004882b0     server.obj
 0002:000272c4       ??_7demoplayaction@@6B@    004882c4     server.obj
 0002:000272d8       ??_7serveraction@@6B@      004882d8     server.obj
 0002:000272e8       ??_C@_0BE@ELBPMJAO@looking?5up?5?$CFs?3?$CFd?4?4?4@ 004882e8     serverms.obj
 0002:000272fc       ??_C@_0BG@MGDPKDE@could?5not?5open?5socket@ 004882fc     serverms.obj
 0002:00027314       ??_C@_0BC@OBHFAANF@could?5not?5connect@ 00488314     serverms.obj
 0002:00027328       ??_C@_07HHDHJGJJ@failreg@  00488328     serverms.obj
 0002:00027330       ??_C@_0CG@HCBAKCCK@master?5server?5registration?5fail@ 00488330     serverms.obj
 0002:00027358       ??_C@_07PDDGKFLM@succreg@  00488358     serverms.obj
 0002:00027360       ??_C@_0CF@GLNKPO@master?5server?5registration?5succ@ 00488360     serverms.obj
 0002:00027388       ??_C@_06LNKFDEGN@noname@   00488388     serverms.obj
 0002:00027390       ??_C@_05DLGHGLJM@nokey@    00488390     serverms.obj
 0002:00027398       ??_C@_0BF@LAPAJAIC@regserv?5?$CFd?5?$CFs?9?$CFs?5?$CFd?6@ 00488398     serverms.obj
 0002:000273b0       ??_C@_0CE@LHJPBKAF@maxclient?5exceeded?3?5cannot?5regi@ 004883b0     serverms.obj
 0002:000273d4       ??_C@_0BM@IKKPIGFI@server?5ip?5?$CC?$CFs?$CC?5not?5resolved@ 004883d4     serverms.obj
 0002:000273f0       ??_C@_0CE@OEAOIBIG@could?5not?5create?5server?5info?5so@ 004883f0     serverms.obj
 0002:00027414       ??_C@_0CI@HKMLPMGF@could?5not?5create?5LAN?5server?5inf@ 00488414     serverms.obj
 0002:0002743c       ??_C@_0DI@PDIGEDDB@server?5is?5LAN?9only?5?9?5without?5co@ 0048843c     serverms.obj
 0002:00027478       ??_C@_0FK@ODJABIHA@ACTION?5REQUIRED?3?5you?5must?5provi@ 00488478     serverms.obj
 0002:000274d4       ??_C@_0CE@HOGJMMBJ@LAN?9only?5because?5no?5master?5is?5g@ 004884d4     serverms.obj
 0002:000274f8       ??_C@_0CN@GJBHOEMH@LAN?9only?5because?5too?5many?5clien@ 004884f8     serverms.obj
 0002:00027530       ??_C@_0BB@JCEFLFJE@0123456789abcdef@ 00488530     crypto.obj
 0002:00027548       ??_C@_0EB@PIIHFDOJ@Tiger?5?9?5A?5Fast?5New?5Hash?5Functio@ 00488548     crypto.obj
 0002:0002758c       ??_C@_0BE@PNEEEHCK@private?2entropy?4dat@ 0048858c     crypto.obj
 0002:000275a0       ??_C@_0M@EAGKAPPE@AC?9CERT?5v1?5@ 004885a0     crypto.obj
 0002:000275ac       ??_C@_0P@MKOOAIOL@?$CFs?5?$CFd?5?$CFs?5?$CFs?5?$CFd@ 004885ac     crypto.obj
 0002:000275bc       ??_C@_08EPEHIMMI@?$CFs?5?$CFs?5?$CFs@ 004885bc     crypto.obj
 0002:00027850       ??_C@_09PIEMHOIP@WARNING?3?5@ 00488850     log.obj
 0002:0002785c       ??_C@_07JHDPBCI@ERROR?3?5@ 0048885c     log.obj
 0002:00027864       ??_C@_05KOLFGEDA@DEBUG@    00488864     log.obj
 0002:0002786c       ??_C@_07FMFBEBBO@VERBOSE@  0048886c     log.obj
 0002:00027874       ??_C@_04BEADLPGM@INFO@     00488874     log.obj
 0002:0002787c       ??_C@_07KCOHIFOP@WARNING@  0048887c     log.obj
 0002:00027884       ??_C@_05MBDEGLCK@ERROR@    00488884     log.obj
 0002:0002788c       ??_C@_08GLNGGDPJ@DISABLED@ 0048888c     log.obj
 0002:00027898       ??_C@_0BA@BOKPBGHN@AssaultCube?$FL?$CFs?$FN@ 00488898     log.obj
 0002:000278a8       ??_C@_09IPAEKDAI@localhost@ 004888a8     log.obj
 0002:000278b4       ??_C@_0BG@FPNFEOFG@?$CFsserverlog_?$CFs_?$CFs?4txt@ 004888b4     log.obj
 0002:000278cc       ??_C@_0CB@DAIBPKIL@failed?5to?5open?5?$CC?$CFs?$CC?5for?5writing@ 004888cc     log.obj
 0002:000278f0       ??_C@_0CG@MLICDBNE@logging?5started?3?5console?$CI?$CFs?$CJ?0?5f@ 004888f0     log.obj
 0002:00027918       ??_C@_06LAMKMFBO@?0?5?$CC?$CFs?$CC@ 00488918     log.obj
 0002:00027920       ??_C@_0N@PNNCCFAE@?$CJ?0?5syslog?$CI?$CFs@ 00488920     log.obj
 0002:00027930       ??_C@_0BA@GNBMKKBP@?0?5?$CC?$CFs?$CC?0?5local?$CFd@ 00488930     log.obj
 0002:00027940       ??_C@_07DKCFBCHE@ENABLED@  00488940     log.obj
 0002:00027948       ??_C@_0BB@JFJJMLJC@?$CJ?0?5timestamp?$CI?$CFs?$CJ@ 00488948     log.obj
 0002:0002795c       ??_C@_0BA@CLBENMPK@?$CFb?5?$CFd?5?$CFH?3?$CFM?3?$CFS?5@ 0048895c     log.obj
 0002:0002796c       ??_C@_07CEGMOJAH@?$CFs?$CFs?$CFs?6@ 0048896c     log.obj
 0002:00027974       ??_C@_0L@OPLAAGMI@?$DM?$CFd?$DO?$CFs?3?5?$CFs@ 00488974     log.obj
 0002:00027980       ??_C@_0CO@IBIKJLII@main?5log?5ringbuffer?5overflow?0?5?$CF@ 00488980     log.obj
 0002:000279b0       ??_C@_02CFKBDFGI@?1?2@     004889b0     stream.obj
 0002:000279b4       ??_C@_04HDOCAJNK@?$CFs?$CFs@ 004889b4     stream.obj
 0002:000279bc       ??_C@_03LKILIBFM@?4?4?2@   004889bc     stream.obj
 0002:000279c0       ??_C@_01NBENCBCI@?$CK@     004889c0     stream.obj
 0002:000279c4       ??_C@_07HMIPAPAI@?$CFs?2?$CK?4?$CFs@ 004889c4     stream.obj
 0002:000279cc       ??_C@_06ECDJDAMM@zip?3?1?1@ 004889cc     stream.obj
 0002:000279d4       ??_C@_06CJNJFBNP@1?42?411@ 004889d4     stream.obj
 0002:000279e0       ??_7stream@@6B@            004889e0     stream.obj
 0002:00027a24       ??_7gzstream@@6B@          00488a24     stream.obj
 0002:00027a68       ??_7vecstream@@6B@         00488a68     stream.obj
 0002:00027aac       ??_7filestream@@6B@        00488aac     stream.obj
 0002:00027aec       ??_C@_0BA@BLDCNPAH@?$CFY?$CFm?$CFd_?$CFH?4?$CFM?4?$CFS@ 00488aec     tools.obj
 0002:00027afc       ??_C@_06LEAOBEKC@?$CFd?$CF06d@ 00488afc     tools.obj
 0002:00027b04       ??_C@_01GBGANLPD@0@        00488b04     tools.obj
 0002:00027b08       ??_C@_0N@IFJMFGJK@unknown?5type@ 00488b08     tools.obj
 0002:00027b18       ??_C@_0BP@MCOHPFJG@Win32?5Exception?3?50x?$CFx?5?$FL0x?$CFx?$FN?6?6@ 00488b18     tools.obj
 0002:00027b38       ??_C@_0O@BKHKJPEB@?$CFs?5?9?5?$CFs?5?$FL?$CFd?$FN?6@ 00488b38     tools.obj
 0002:00027b48       ??_C@_0O@DOJIKGIE@?$CFu?4?$CFu?4?$CFu?4?$CFu?$CFn@ 00488b48     tools.obj
 0002:00027b58       ??_C@_04EBEAAKOA@?$CFd?$CFn@ 00488b58     tools.obj
 0002:00027b60       ??_C@_0M@PCENNPGA@?$CFd?4?$CFd?4?$CFd?4?$CFd@ 00488b60     tools.obj
 0002:00027b6c       ??_C@_0BI@OFIENKAC@?$CFd?4?$CFd?4?$CFd?4?$CFd?9?$CFd?4?$CFd?4?$CFd?4?$CFd@ 00488b6c     tools.obj
 0002:00027b84       ??_C@_02DPKJAMEF@?$CFd@    00488b84     tools.obj
 0002:00027b88       ??_C@_0M@OGPIPFOF@?$CFw_?$CFh_?$CFn_?$CFG@ 00488b88     tools.obj
 0002:00027b94       ??_C@_04PFAOODAA@?$CFs?3?5@ 00488b94     wizard.obj
 0002:00027b9c       ??_C@_0BO@EOHALGMJ@invalid?5arguments?5specified?$CB?6@ 00488b9c     wizard.obj
 0002:00027bbc       ??_C@_0CM@FIOMKFPD@usage?3?5ac_server?5?$DMoutfile?$DO?5?$DMrel@ 00488bbc     wizard.obj
 0002:00027be8       ??_C@_0CA@KMNBJJLN@The?5AssaultCube?5Server?5Wizard?6?6@ 00488be8     wizard.obj
 0002:00027c08       ??_C@_0HF@JLPAHLGH@Before?5setting?5up?5a?5new?5server?0@ 00488c08     wizard.obj
 0002:00027c80       ??_C@_0BBF@IDGGPNLA@You?5will?5also?5need?5to?5ensure?5th@ 00488c80     wizard.obj
 0002:00027d98       ??_C@_0BCF@LFGDACCA@Now?5to?5specify?5some?5optional?5se@ 00488d98     wizard.obj
 0002:00027ec0       ??_C@_02MLFFLFHH@?9n@      00488ec0     wizard.obj
 0002:00027ec4       ??_C@_0BD@FFNEMFMP@Server?5description@ 00488ec4     wizard.obj
 0002:00027ed8       ??_C@_02NCEOIEDG@?9o@      00488ed8     wizard.obj
 0002:00027edc       ??_C@_0BD@BDGOMDOI@Message?5of?5the?5day@ 00488edc     wizard.obj
 0002:00027ef0       ??_C@_02HOPLMLDK@?9c@      00488ef0     wizard.obj
 0002:00027ef4       ??_C@_0CL@MBNNEOAG@Maximum?5clients?5?$CINo?5more?5than?51@ 00488ef4     wizard.obj
 0002:00027f20       ??_C@_02NHMNAAKA@?9x@      00488f20     wizard.obj
 0002:00027f24       ??_C@_0BH@HJIBNAGD@Administrator?5password@ 00488f24     wizard.obj
 0002:00027f3c       ??_C@_02DIMDPHP@?9f@       00488f3c     wizard.obj
 0002:00027f40       ??_C@_0M@PNKIAJFB@Server?5port@ 00488f40     wizard.obj
 0002:00027f4c       ??_C@_0DE@PHFABAKN@?6Private?5server?5settings?3?6?9?9?9?9?9@ 00488f4c     wizard.obj
 0002:00027f80       ??_C@_0BI@KNMCFCCM@Public?5server?5?$CIYes?1No?$CJ?$DP@ 00488f80     wizard.obj
 0002:00027f98       ??_C@_0M@KIFAMDI@?9mlocalhost@ 00488f98     wizard.obj
 0002:00027fa4       ??_C@_02BPBEIKKI@?9p@      00488fa4     wizard.obj
 0002:00027fa8       ??_C@_0BA@GLAAGEDO@Player?5password@ 00488fa8     wizard.obj
 0002:00027fb8       ??_C@_0BM@HJCKKGGB@?6Additional?5server?5switches@ 00488fb8     wizard.obj
 0002:00027fd4       ??_C@_0BB@JDGIGHNK@win?5service?5name@ 00488fd4     wizard.obj
 0002:00027fe8       ??_C@_0BE@BMCAKGNK@win?5service?5display@ 00488fe8     wizard.obj
 0002:00027ffc       ??_C@_0CH@KPIDEFOK@?6Writing?5your?5configuration?5to?5@ 00488ffc     wizard.obj
 0002:00028024       ??_C@_08OPNBKLNK@Failed?$CB?6@ 00489024     wizard.obj
 0002:00028030       ??_C@_0M@EBGJAHJO@?$CFs?$CFs?6pause?6@ 00489030     wizard.obj
 0002:0002803c       ??_C@_06PGPHGPCF@Done?6?6@ 0048903c     wizard.obj
 0002:00028048       ??_C@_0GM@LBFNACMI@Note?3?5You?5can?5start?5?$CFs?5directly@ 00489048     wizard.obj
 0002:000280b4       ??_C@_0DB@GPKPKCCE@Installing?5the?5AC?5Server?5as?5win@ 004890b4     wizard.obj
 0002:000280e8       ??_C@_0CN@JMJBFLPP@Could?5not?5get?5current?5working?5d@ 004890e8     wizard.obj
 0002:00028118       ??_C@_03NPIKFEPJ@?5?9S@    00489118     wizard.obj
 0002:0002811c       ??_C@_0DA@DLKHEEML@Could?5not?5open?5the?5Service?5Cont@ 0048911c     wizard.obj
 0002:00028150       ??_C@_0EA@BEGAJIDF@A?5windows?5service?5with?5this?5nam@ 00489150     wizard.obj
 0002:00028190       ??_C@_0CO@KBAILLPA@Could?5not?5create?5the?5new?5window@ 00489190     wizard.obj
 0002:000281c0       ??_C@_0EI@CFLDHKLD@Note?3?5You?5can?5now?5manage?5your?5A@ 004891c0     wizard.obj
 0002:00028208       ??_C@_0DA@EAFABIME@Please?5press?5ENTER?5now?5to?5start@ 00489208     wizard.obj
 0002:00028238       ??_C@_0BM@JDHBLOEO@Starting?5the?5AC?5server?5?4?4?4?6@ 00489238     wizard.obj
 0002:00028254       ??_C@_0BD@BFMELDMM@COMLPTCONPRNAUXNUL@ 00489254     protocol1.obj
 0002:00028268       ??_C@_0BB@MAOFLMFN@1374?$EA5$2?$CB?$CK?$CD?$CF80?$HM?$CL@ 00489268     protocol1.obj
 0002:00028280       ??_C@_0BB@CFKEPPCJ@letaassziohzhoit@ 00489280     protocol1.obj
 0002:00028294       ??_C@_05BOOOGDNE@?$FL?$FN?$HL?$HN?2@ 00489294     protocol1.obj
 0002:0002829c       ??_C@_05CJBFFGKB@?$CI?$CJ?$CI?$CJ?1@ 0048929c     protocol1.obj
 0002:000282a4       ??_C@_05OJJIJNFA@?4_?9?$CI?$CJ@ 004892a4     protocol1.obj
 0002:000282ac       ??_C@_04HHBCGPAB@?$CI$?$CJ?$CC@ 004892ac     protocol1.obj
 0002:000282b4       ??_C@_03HGEHODII@_?9?4@    004892b4     protocol1.obj
 0002:000282b8       ??_C@_0BA@KOKJMPCK@?$CC?1?2?$DL?$CI?$CJ?$FL?$FN?5?$AM?7?$AH?6?$AN$@ 004892b8     protocol1.obj
 0002:000282c8       ??_C@_0O@EIJOPNKI@demo?5playback@ 004892c8     protocol1.obj
 0002:000282d8       ??_C@_0BA@DGNOHMDO@team?5deathmatch@ 004892d8     protocol1.obj
 0002:000282e8       ??_C@_08OKMMABNO@coopedit@ 004892e8     protocol1.obj
 0002:000282f4       ??_C@_0L@ILDAINPG@deathmatch@ 004892f4     protocol1.obj
 0002:00028300       ??_C@_08BGBANJHO@survivor@ 00489300     protocol1.obj
 0002:0002830c       ??_C@_0O@KGFHBJIM@team?5survivor@ 0048930c     protocol1.obj
 0002:0002831c       ??_C@_0BB@BOFMIPI@capture?5the?5flag@ 0048931c     protocol1.obj
 0002:00028330       ??_C@_0O@LAJDFKIE@pistol?5frenzy@ 00489330     protocol1.obj
 0002:00028340       ??_C@_0BE@PEAKFHDB@bot?5team?5deathmatch@ 00489340     protocol1.obj
 0002:00028354       ??_C@_0P@GFOJDNLK@bot?5deathmatch@ 00489354     protocol1.obj
 0002:00028364       ??_C@_0BE@EFNFEOIE@last?5swiss?5standing@ 00489364     protocol1.obj
 0002:00028378       ??_C@_0BD@LOBHNIBM@one?5shot?0?5one?5kill@ 00489378     protocol1.obj
 0002:0002838c       ??_C@_0BI@BBEEADKE@team?5one?5shot?0?5one?5kill@ 0048938c     protocol1.obj
 0002:000283a4       ??_C@_0BH@ECIFHEEH@bot?5one?5shot?0?5one?5kill@ 004893a4     protocol1.obj
 0002:000283bc       ??_C@_0O@ICJGJMIF@hunt?5the?5flag@ 004893bc     protocol1.obj
 0002:000283cc       ??_C@_0BD@FOBCBAMO@team?5keep?5the?5flag@ 004893cc     protocol1.obj
 0002:000283e0       ??_C@_0O@ILLLMIAI@keep?5the?5flag@ 004893e0     protocol1.obj
 0002:000283f0       ??_C@_0BD@GFDKICEC@team?5pistol?5frenzy@ 004893f0     protocol1.obj
 0002:00028404       ??_C@_0BJ@IAMACGOB@team?5last?5swiss?5standing@ 00489404     protocol1.obj
 0002:00028420       ??_C@_0BC@NCNJOKAG@bot?5pistol?5frenzy@ 00489420     protocol1.obj
 0002:00028434       ??_C@_0BI@LJJAFEFE@bot?5last?5swiss?5standing@ 00489434     protocol1.obj
 0002:0002844c       ??_C@_0BC@MEBNKJAO@bot?5team?5survivor@ 0048944c     protocol1.obj
 0002:00028460       ??_C@_0BM@BPKEJJOM@bot?5team?5one?5shot?0?5one?5kill@ 00489460     protocol1.obj
 0002:0002847c       ??_C@_0BJ@JMFJPANK@bot?5slow?5team?5deathmatch@ 0048947c     protocol1.obj
 0002:00028498       ??_C@_04DHMHBDDN@DEMO@     00489498     protocol1.obj
 0002:000284a0       ??_C@_03KIJAKMEC@TDM@      004894a0     protocol1.obj
 0002:000284a4       ??_C@_04OILOBHMB@coop@     004894a4     protocol1.obj
 0002:000284ac       ??_C@_02DCPKDCLJ@DM@       004894ac     protocol1.obj
 0002:000284b0       ??_C@_04DJGEECGF@SURV@     004894b0     protocol1.obj
 0002:000284b8       ??_C@_05NJJLFODK@TSURV@    004894b8     protocol1.obj
 0002:000284c0       ??_C@_03JKIMLJNP@CTF@      004894c0     protocol1.obj
 0002:000284c4       ??_C@_02MKCBOANO@PF@       004894c4     protocol1.obj
 0002:000284c8       ??_C@_04GNMFIPGK@BTDM@     004894c8     protocol1.obj
 0002:000284d0       ??_C@_03NNOCKEAB@BDM@      004894d0     protocol1.obj
 0002:000284d4       ??_C@_03PABFFJBI@LSS@      004894d4     protocol1.obj
 0002:000284d8       ??_C@_04FCINDLAF@OSOK@     004894d8     protocol1.obj
 0002:000284e0       ??_C@_05LCHCCHFK@TOSOK@    004894e0     protocol1.obj
 0002:000284e8       ??_C@_05GHPNMGNM@BOSOK@    004894e8     protocol1.obj
 0002:000284f0       ??_C@_03ENINDONO@HTF@      004894f0     protocol1.obj
 0002:000284f4       ??_C@_04HFMNNADK@TKTF@     004894f4     protocol1.obj
 0002:000284fc       ??_C@_03FPDIJBDA@KTF@      004894fc     protocol1.obj
 0002:00028500       ??_C@_03FAELHOCF@TPF@      00489500     protocol1.obj
 0002:00028504       ??_C@_04NKOABIBC@TLSS@     00489504     protocol1.obj
 0002:0002850c       ??_C@_03CFDJHGGG@BPF@      0048950c     protocol1.obj
 0002:00028510       ??_C@_04DFEAHKDA@BLSS@     00489510     protocol1.obj
 0002:00028518       ??_C@_06CGKBEELH@BTSURV@   00489518     protocol1.obj
 0002:00028520       ??_C@_06ENEIDNNH@BTOSOK@   00489520     protocol1.obj
 0002:00028528       ??_C@_05FDFMMIB@BSTDM@     00489528     protocol1.obj
 0002:00028530       ??_C@_0BN@GAJCHLOO@voting?5is?5currently?5disabled@ 00489530     protocol1.obj
 0002:00028550       ??_C@_0CA@NGEKNLAA@there?5is?5already?5a?5vote?5pending@ 00489550     protocol1.obj
 0002:00028570       ??_C@_0O@GMOMDMPB@already?5voted@ 00489570     protocol1.obj
 0002:00028580       ??_C@_0BG@JKFNENLK@can?8t?5vote?5that?5often@ 00489580     protocol1.obj
 0002:00028598       ??_C@_0EP@BPGJFKGG@this?5vote?5is?5not?5allowed?5in?5the@ 00489598     protocol1.obj
 0002:000285e8       ??_C@_0N@MDDPCIJH@invalid?5vote@ 004895e8     protocol1.obj
 0002:000285f8       ??_C@_0BI@MFLCEHGI@server?5denied?5your?5call@ 004895f8     protocol1.obj
 0002:00028610       ??_C@_0CB@BJEHLOFM@the?5next?5map?1mode?5is?5already?5se@ 00489610     protocol1.obj
 0002:00028634       ??_C@_04PMOCAHAA@open@     00489634     protocol1.obj
 0002:0002863c       ??_C@_07NMPLPEPB@private@  0048963c     protocol1.obj
 0002:00028644       ??_C@_03ELOBOJHH@UNK@      00489644     protocol1.obj
 0002:00028648       ??_C@_0BD@KIEIHFAD@terminated?5by?5enet@ 00489648     protocol1.obj
 0002:0002865c       ??_C@_0O@JBDOGIMF@end?5of?5packet@ 0048965c     protocol1.obj
 0002:0002866c       ??_C@_0L@CNDFKLPO@client?5num@ 0048966c     protocol1.obj
 0002:00028678       ??_C@_08LHFLPAFL@tag?5type@ 00489678     protocol1.obj
 0002:00028684       ??_C@_0BF@LENDFKJE@duplicate?5connection@ 00489684     protocol1.obj
 0002:0002869c       ??_C@_08CLAAFLMB@overflow@ 0048969c     protocol1.obj
 0002:000286a8       ??_C@_06NLFCANPD@random@   004896a8     protocol1.obj
 0002:000286b0       ??_C@_06BKEBADKC@voodoo@   004896b0     protocol1.obj
 0002:000286b8       ??_C@_04JNABKDKF@sync@     004896b8     protocol1.obj
 0002:000286c0       ??_C@_0M@NIFGNMIB@auth?5failed@ 004896c0     protocol1.obj
 0002:000286cc       ??_C@_0BD@PJLIIJEL@connection?5refused@ 004896cc     protocol1.obj
 0002:000286e0       ??_C@_0L@IIJHPNMN@due?5to?5ban@ 004896e0     protocol1.obj
 0002:000286ec       ??_C@_0BE@CKIOEIMA@due?5to?5blacklisting@ 004896ec     protocol1.obj
 0002:00028700       ??_C@_0P@KCKFHBGO@wrong?5password@ 00489700     protocol1.obj
 0002:00028710       ??_C@_0M@GNAEPDCL@server?5FULL@ 00489710     protocol1.obj
 0002:0002871c       ??_C@_0BP@KKCNPJDL@server?5mastermode?5is?5?$CCprivate?$CC@ 0048971c     protocol1.obj
 0002:0002873c       ??_C@_0BC@KABDGOLF@server?5overloaded@ 0048973c     protocol1.obj
 0002:00028750       ??_C@_0BE@NEBLCEPP@removed?5from?5server@ 00489750     protocol1.obj
 0002:00028764       ??_C@_0BD@PDJKEEEL@failed?5admin?5login@ 00489764     protocol1.obj
 0002:00028778       ??_C@_0BH@BNEINOOH@inappropriate?5nickname@ 00489778     protocol1.obj
 0002:00028790       ??_C@_0BJ@DFCENKPD@annoyance?5limit?5exceeded@ 00489790     protocol1.obj
 0002:000287ac       ??_C@_04LJOMGEOE@SPAM@     004897ac     protocol1.obj
 0002:000287b4       ??_C@_03CAJNCLOD@DOS@      004897b4     protocol1.obj
 0002:000287b8       ??_C@_0BA@BNMCECPN@ludicrous?5speed@ 004897b8     protocol1.obj
 0002:000287c8       ??_C@_0M@OCBIMOME@fishslapped@ 004897c8     protocol1.obj
 0002:000287d4       ??_C@_03JHHCLFHL@afk@      004897d4     protocol1.obj
 0002:000287d8       ??_C@_06LJOBLMPL@kicked@   004897d8     protocol1.obj
 0002:000287e0       ??_C@_06PGEEPMG@banned@    004897e0     protocol1.obj
 0002:000287e8       ??_C@_0P@LFNNJHHF@kicked?5by?5vote@ 004897e8     protocol1.obj
 0002:000287f8       ??_C@_0P@CPHJIJEC@banned?5by?5vote@ 004897f8     protocol1.obj
 0002:00028808       ??_C@_0BK@MMIECPOG@kicked?5by?5server?5operator@ 00489808     protocol1.obj
 0002:00028824       ??_C@_0BK@PDLKLLPL@banned?5by?5server?5operator@ 00489824     protocol1.obj
 0002:00028840       ??_C@_0BK@NOBHDFJF@auto?5kicked?5?9?5teamkilling@ 00489840     protocol1.obj
 0002:0002885c       ??_C@_0BK@CKDFJIBH@auto?5banned?5?9?5teamkilling@ 0048985c     protocol1.obj
 0002:00028878       ??_C@_0BM@DNGFHAGD@auto?5kicked?5?9?5friendly?5fire@ 00489878     protocol1.obj
 0002:00028894       ??_C@_0BM@JMLHKBNN@auto?5banned?5?9?5friendly?5fire@ 00489894     protocol1.obj
 0002:000288b0       ??_C@_09KOHIOBMN@auto?5kick@ 004898b0     protocol1.obj
 0002:000288bc       ??_C@_08LFFOFPEH@auto?5ban@ 004898bc     protocol1.obj
 0002:000288c8       ??_C@_0BM@JACFPDFL@network?5protocol?5error?5?8?$CFd?8@ 004898c8     protocol1.obj
 0002:000288e4       ??_C@_0BI@MHPLBNAC@connection?5refused?5?8?$CFd?8@ 004898e4     protocol1.obj
 0002:000288fc       ??_C@_0BJ@GGKJMLNI@removed?5from?5server?5?8?$CFd?8@ 004898fc     protocol1.obj
 0002:00028918       ??_C@_07IAHBPOKF@?$CFs?5?8?$CFd?8@ 00489918     protocol1.obj
 0002:00028920       ??_C@_0N@KCJEHFLA@unknown?5?8?$CFd?8@ 00489920     protocol1.obj
 0002:000289c8       __real@00000000            004899c8     server.obj
 0002:000289cc       __real@33800000            004899cc     protocol1.obj
 0002:000289d0       __real@35800000            004899d0     server.obj
 0002:000289d4       __real@3a800000            004899d4     protocol1.obj
 0002:000289d8       __real@3ca3d70a            004899d8     server.obj
 0002:000289dc       __real@3ccccccd            004899dc     server.obj
 0002:000289e0       __real@3d1ff065            004899e0     server.obj
 0002:000289e4       __real@3d800000            004899e4     server.obj
 0002:000289e8       __real@3eae147b            004899e8     server.obj
 0002:000289ec       __real@3f000000            004899ec     tools.obj
 0002:000289f0       __real@3f028f5c            004899f0     server.obj
 0002:000289f4       __real@3f23d70a            004899f4     server.obj
 0002:000289f8       __real@3f800000            004899f8     server.obj
 0002:000289fc       __real@3fa66666            004899fc     server.obj
 0002:00028a00       __real@3fc00000            00489a00     server.obj
 0002:00028a04       __real@40000000            00489a04     server.obj
 0002:00028a08       __real@400ccccd            00489a08     server.obj
 0002:00028a0c       __real@40100000            00489a0c     server.obj
 0002:00028a10       __real@403e000000000000    00489a10     server.obj
 0002:00028a18       __real@40866666            00489a18     server.obj
 0002:00028a1c       __real@41100000            00489a1c     server.obj
 0002:00028a20       __real@41200000            00489a20     server.obj
 0002:00028a24       __real@41800000            00489a24     server.obj
 0002:00028a28       __real@41f00000            00489a28     server.obj
 0002:00028a2c       __real@42700000            00489a2c     server.obj
 0002:00028a30       __real@42b40000            00489a30     protocol1.obj
 0002:00028a34       __real@42c80000            00489a34     server.obj
 0002:00028a38       __real@43b40000            00489a38     protocol1.obj
 0002:00028a3c       __real@be23d70a            00489a3c     server.obj
 0002:00028a40       __real@bf2e147b            00489a40     server.obj
 0002:00028a44       __real@bf800000            00489a44     server.obj
 0002:00028a48       __real@c2b40000            00489a48     protocol1.obj
 0002:00028a4c       __real@d01502f9            00489a4c     server.obj
 0002:00028a50       __xmm@00000000000000000000000000000003 00489a50     tools.obj
 0002:00028a60       __xmm@00000026000000260000002600000026 00489a60     crypto.obj
 0002:00028a70       __xmm@0000003000000024000000180000000c 00489a70     server.obj
 0002:00028a80       __xmm@000000c0000000900000006000000030 00489a80     server.obj
 0002:00028a90       __xmm@000000ff000000ff000000ff000000ff 00489a90     crypto.obj
 0002:00028aa0       __xmm@000001fe000001fe000001fe000001fe 00489aa0     crypto.obj
 0002:00028ab0       __xmm@000004100000030c0000020800000104 00489ab0     server.obj
 0002:00028ac0       __xmm@41f00000000000000000000000000000 00489ac0     server.obj
 0002:00028ad0       __xmm@ffffffffffffffffffffffffffffffff 00489ad0     server.obj
 0002:00028ae8       __load_config_used         00489ae8     LIBCMT:loadcfg.obj
 0002:00028c40       __tls_used                 00489c40     LIBCMT:tlssup.obj
 0002:00028c58       ??_R4type_info@@6B@        00489c58     LIBCMT:std_type_info_static.obj
 0002:00028c6c       ??_R3type_info@@8          00489c6c     LIBCMT:std_type_info_static.obj
 0002:00028c7c       ??_R2type_info@@8          00489c7c     LIBCMT:std_type_info_static.obj
 0002:00028c84       ??_R1A@?0A@EA@type_info@@8 00489c84     LIBCMT:std_type_info_static.obj
 0002:00028ca0       ??_R4exception@std@@6B@    00489ca0     LIBCMT:throw_bad_alloc.obj
 0002:00028cb4       ??_R3exception@std@@8      00489cb4     LIBCMT:throw_bad_alloc.obj
 0002:00028cc4       ??_R2exception@std@@8      00489cc4     LIBCMT:throw_bad_alloc.obj
 0002:00028ccc       ??_R1A@?0A@EA@exception@std@@8 00489ccc     LIBCMT:throw_bad_alloc.obj
 0002:00028ce8       ??_R4bad_array_new_length@std@@6B@ 00489ce8     LIBCMT:throw_bad_alloc.obj
 0002:00028cfc       ??_R3bad_array_new_length@std@@8 00489cfc     LIBCMT:throw_bad_alloc.obj
 0002:00028d0c       ??_R2bad_array_new_length@std@@8 00489d0c     LIBCMT:throw_bad_alloc.obj
 0002:00028d1c       ??_R1A@?0A@EA@bad_array_new_length@std@@8 00489d1c     LIBCMT:throw_bad_alloc.obj
 0002:00028d38       ??_R1A@?0A@EA@bad_alloc@std@@8 00489d38     LIBCMT:throw_bad_alloc.obj
 0002:00028d54       ??_R3bad_alloc@std@@8      00489d54     LIBCMT:throw_bad_alloc.obj
 0002:00028d64       ??_R2bad_alloc@std@@8      00489d64     LIBCMT:throw_bad_alloc.obj
 0002:00028d70       ??_R4bad_alloc@std@@6B@    00489d70     LIBCMT:throw_bad_alloc.obj
 0002:00028d84       ??_R4bad_exception@std@@6B@ 00489d84     libvcruntime:frame.obj
 0002:00028d98       ??_R3bad_exception@std@@8  00489d98     libvcruntime:frame.obj
 0002:00028da8       ??_R2bad_exception@std@@8  00489da8     libvcruntime:frame.obj
 0002:00028db4       ??_R1A@?0A@EA@bad_exception@std@@8 00489db4     libvcruntime:frame.obj
 0002:00028dd0       ??_R3autoteamaction@@8     00489dd0     server.obj
 0002:00028de0       ??_R2demoplayaction@@8     00489de0     server.obj
 0002:00028dec       ??_R2autoteamaction@@8     00489dec     server.obj
 0002:00028dfc       ??_R4pauseaction@@6B@      00489dfc     server.obj
 0002:00028e10       ??_R4playerstate@@6B@      00489e10     server.obj
 0002:00028e24       ??_R1A@?0A@EA@servernickblacklist@@8 00489e24     server.obj
 0002:00028e40       ??_R1A@?0A@EA@mapaction@@8 00489e40     server.obj
 0002:00028e5c       ??_R1A@?0A@EA@serveripcclist@@8 00489e5c     server.obj
 0002:00028e78       ??_R1A@?0A@EA@recorddemoaction@@8 00489e78     server.obj
 0002:00028e94       ??_R4servermaprot@@6B@     00489e94     server.obj
 0002:00028ea8       ??_R2pauseaction@@8        00489ea8     server.obj
 0002:00028eb4       ??_R4mastermodeaction@@6B@ 00489eb4     server.obj
 0002:00028ec8       ??_R2cleardemosaction@@8   00489ec8     server.obj
 0002:00028ed4       ??_R3removebansaction@@8   00489ed4     server.obj
 0002:00028ee4       ??_R4serverforbiddenlist@@6B@ 00489ee4     server.obj
 0002:00028ef8       ??_R4demoplayaction@@6B@   00489ef8     server.obj
 0002:00028f0c       ??_R1A@?0A@EA@servermaprot@@8 00489f0c     server.obj
 0002:00028f28       ??_R3serverinfofile@@8     00489f28     server.obj
 0002:00028f38       ??_R1A@?0A@EA@forceteamaction@@8 00489f38     server.obj
 0002:00028f54       ??_R4clientstate@@6B@      00489f54     server.obj
 0002:00028f68       ??_R2serverforbiddenlist@@8 00489f68     server.obj
 0002:00028f74       ??_R4serverconfigfile@@6B@ 00489f74     server.obj
 0002:00028f88       ??_R3serverdescaction@@8   00489f88     server.obj
 0002:00028f98       ??_R4winservice@@6B@       00489f98     server.obj
 0002:00028fac       ??_R1A@?0A@EA@cleardemosaction@@8 00489fac     server.obj
 0002:00028fc8       ??_R2winservice@@8         00489fc8     server.obj
 0002:00028fd4       ??_R2giveadminaction@@8    00489fd4     server.obj
 0002:00028fe4       ??_R1A@?0A@EA@enableaction@@8 00489fe4     server.obj
 0002:00029000       ??_R2serveripblacklist@@8  0048a000     server.obj
 0002:0002900c       ??_R1A@?0A@EA@kickaction@@8 0048a00c     server.obj
 0002:00029028       ??_R2recorddemoaction@@8   0048a028     server.obj
 0002:00029038       ??_R3pauseaction@@8        0048a038     server.obj
 0002:00029048       ??_R3kickaction@@8         0048a048     server.obj
 0002:00029058       ??_R3enableaction@@8       0048a058     server.obj
 0002:00029068       ??_R1A@?0A@EA@removebansaction@@8 0048a068     server.obj
 0002:00029084       ??_R3forceteamaction@@8    0048a084     server.obj
 0002:00029094       ??_R3serverforbiddenlist@@8 0048a094     server.obj
 0002:000290a4       ??_R2mapaction@@8          0048a0a4     server.obj
 0002:000290b0       ??_R4shuffleteamaction@@6B@ 0048a0b0     server.obj
 0002:000290c4       ??_R2serverpasswords@@8    0048a0c4     server.obj
 0002:000290d0       ??_R1A@?0A@EA@serverforbiddenlist@@8 0048a0d0     server.obj
 0002:000290ec       ??_R3playeraction@@8       0048a0ec     server.obj
 0002:000290fc       ??_R4serverdescaction@@6B@ 0048a0fc     server.obj
 0002:00029110       ??_R2serverparameter@@8    0048a110     server.obj
 0002:0002911c       ??_R3serverconfigfile@@8   0048a11c     server.obj
 0002:0002912c       ??_R1A@?0A@EA@serverdescaction@@8 0048a12c     server.obj
 0002:00029148       ??_R4serveraction@@6B@     0048a148     server.obj
 0002:0002915c       ??_R4serverinfofile@@6B@   0048a15c     server.obj
 0002:00029170       ??_R1A@?0A@EA@demoplayaction@@8 0048a170     server.obj
 0002:0002918c       ??_R3mastermodeaction@@8   0048a18c     server.obj
 0002:0002919c       ??_R3serverpasswords@@8    0048a19c     server.obj
 0002:000291ac       ??_R4servernickblacklist@@6B@ 0048a1ac     server.obj
 0002:000291c0       ??_R1A@?0A@EA@serverconfigfile@@8 0048a1c0     server.obj
 0002:000291dc       ??_R4serverpasswords@@6B@  0048a1dc     server.obj
 0002:000291f0       ??_R4banaction@@6B@        0048a1f0     server.obj
 0002:00029204       ??_R2banaction@@8          0048a204     server.obj
 0002:00029214       ??_R1A@?0A@EA@serveraction@@8 0048a214     server.obj
 0002:00029230       ??_R1A@?0A@EA@giveadminaction@@8 0048a230     server.obj
 0002:0002924c       ??_R3giveadminaction@@8    0048a24c     server.obj
 0002:0002925c       ??_R4removebansaction@@6B@ 0048a25c     server.obj
 0002:00029270       ??_R3servercontroller@@8   0048a270     server.obj
 0002:00029280       ??_R2shuffleteamaction@@8  0048a280     server.obj
 0002:0002928c       ??_R2removebansaction@@8   0048a28c     server.obj
 0002:00029298       ??_R3serveripcclist@@8     0048a298     server.obj
 0002:000292a8       ??_R1A@?0A@EA@shuffleteamaction@@8 0048a2a8     server.obj
 0002:000292c4       ??_R1A@?0A@EA@playerstate@@8 0048a2c4     server.obj
 0002:000292e0       ??_R2forceteamaction@@8    0048a2e0     server.obj
 0002:000292f0       ??_R4playeraction@@6B@     0048a2f0     server.obj
 0002:00029304       ??_R1A@?0A@EA@mastermodeaction@@8 0048a304     server.obj
 0002:00029320       ??_R3recorddemoaction@@8   0048a320     server.obj
 0002:00029330       ??_R3shuffleteamaction@@8  0048a330     server.obj
 0002:00029340       ??_R4kickaction@@6B@       0048a340     server.obj
 0002:00029354       ??_R1A@?0A@EA@serverpasswords@@8 0048a354     server.obj
 0002:00029370       ??_R1A@?0A@EA@autoteamaction@@8 0048a370     server.obj
 0002:0002938c       ??_R1A@?0A@EA@serverinfofile@@8 0048a38c     server.obj
 0002:000293a8       ??_R2mastermodeaction@@8   0048a3a8     server.obj
 0002:000293b4       ??_R1A@?0A@EA@playeraction@@8 0048a3b4     server.obj
 0002:000293d0       ??_R2serveripcclist@@8     0048a3d0     server.obj
 0002:000293dc       ??_R2playerstate@@8        0048a3dc     server.obj
 0002:000293e4       ??_R2servermaprot@@8       0048a3e4     server.obj
 0002:000293f0       ??_R4servercontroller@@6B@ 0048a3f0     server.obj
 0002:00029404       ??_R1A@?0A@EA@banaction@@8 0048a404     server.obj
 0002:00029420       ??_R3demoplayaction@@8     0048a420     server.obj
 0002:00029430       ??_R3banaction@@8          0048a430     server.obj
 0002:00029440       ??_R2serveraction@@8       0048a440     server.obj
 0002:00029448       ??_R4forceteamaction@@6B@  0048a448     server.obj
 0002:0002945c       ??_R2enableaction@@8       0048a45c     server.obj
 0002:00029468       ??_R3servernickblacklist@@8 0048a468     server.obj
 0002:00029478       ??_R4giveadminaction@@6B@  0048a478     server.obj
 0002:0002948c       ??_R4serveripblacklist@@6B@ 0048a48c     server.obj
 0002:000294a0       ??_R1A@?0A@EA@pauseaction@@8 0048a4a0     server.obj
 0002:000294bc       ??_R1A@?0A@EA@winservice@@8 0048a4bc     server.obj
 0002:000294d8       ??_R3cleardemosaction@@8   0048a4d8     server.obj
 0002:000294e8       ??_R3serveraction@@8       0048a4e8     server.obj
 0002:000294f8       ??_R2servercontroller@@8   0048a4f8     server.obj
 0002:00029500       ??_R3mapaction@@8          0048a500     server.obj
 0002:00029510       ??_R2clientstate@@8        0048a510     server.obj
 0002:0002951c       ??_R1A@?0A@EA@servercontroller@@8 0048a51c     server.obj
 0002:00029538       ??_R4autoteamaction@@6B@   0048a538     server.obj
 0002:0002954c       ??_R3serveripblacklist@@8  0048a54c     server.obj
 0002:0002955c       ??_R1A@?0A@EA@serveripblacklist@@8 0048a55c     server.obj
 0002:00029578       ??_R3servermaprot@@8       0048a578     server.obj
 0002:00029588       ??_R3playerstate@@8        0048a588     server.obj
 0002:00029598       ??_R4cleardemosaction@@6B@ 0048a598     server.obj
 0002:000295ac       ??_R3winservice@@8         0048a5ac     server.obj
 0002:000295bc       ??_R2playeraction@@8       0048a5bc     server.obj
 0002:000295c8       ??_R2kickaction@@8         0048a5c8     server.obj
 0002:000295d8       ??_R4serverparameter@@6B@  0048a5d8     server.obj
 0002:000295ec       ??_R1A@?0A@EA@clientstate@@8 0048a5ec     server.obj
 0002:00029608       ??_R2serverinfofile@@8     0048a608     server.obj
 0002:00029614       ??_R4mapaction@@6B@        0048a614     server.obj
 0002:00029628       ??_R2serverdescaction@@8   0048a628     server.obj
 0002:00029634       ??_R4serveripcclist@@6B@   0048a634     server.obj
 0002:00029648       ??_R4recorddemoaction@@6B@ 0048a648     server.obj
 0002:0002965c       ??_R3serverparameter@@8    0048a65c     server.obj
 0002:0002966c       ??_R2servernickblacklist@@8 0048a66c     server.obj
 0002:00029678       ??_R2serverconfigfile@@8   0048a678     server.obj
 0002:00029680       ??_R3clientstate@@8        0048a680     server.obj
 0002:00029690       ??_R1A@?0A@EA@serverparameter@@8 0048a690     server.obj
 0002:000296ac       ??_R2filestream@@8         0048a6ac     stream.obj
 0002:000296b8       ??_R1A@?0A@EA@gzstream@@8  0048a6b8     stream.obj
 0002:000296d4       ??_R2vecstream@@8          0048a6d4     stream.obj
 0002:000296e0       ??_R4filestream@@6B@       0048a6e0     stream.obj
 0002:000296f4       ??_R1A@?0A@EA@vecstream@@8 0048a6f4     stream.obj
 0002:00029710       ??_R1A@?0A@EA@filestream@@8 0048a710     stream.obj
 0002:0002972c       ??_R4stream@@6B@           0048a72c     stream.obj
 0002:00029740       ??_R3filestream@@8         0048a740     stream.obj
 0002:00029750       ??_R3stream@@8             0048a750     stream.obj
 0002:00029760       ??_R3vecstream@@8          0048a760     stream.obj
 0002:00029770       ??_R3gzstream@@8           0048a770     stream.obj
 0002:00029780       ??_R1A@?0A@EA@stream@@8    0048a780     stream.obj
 0002:0002979c       ??_R2gzstream@@8           0048a79c     stream.obj
 0002:000297a8       ??_R4vecstream@@6B@        0048a7a8     stream.obj
 0002:000297bc       ??_R4gzstream@@6B@         0048a7bc     stream.obj
 0002:000297d0       ??_R2stream@@8             0048a7d0     stream.obj
 0002:000297d8       ___volatile_metadata       0048a7d8     <linker-defined>
 0002:00029d5c       ___rtc_iaa                 0048ad5c     LIBCMT:initsect.obj
 0002:00029d60       ___rtc_izz                 0048ad60     LIBCMT:initsect.obj
 0002:00029d64       ___rtc_taa                 0048ad64     LIBCMT:initsect.obj
 0002:00029d68       ___rtc_tzz                 0048ad68     LIBCMT:initsect.obj
 0002:00029d6c       __tls_start                0048ad6c     LIBCMT:tlssup.obj
 0002:00029d70       __Init_thread_epoch        0048ad70     LIBCMT:thread_safe_statics.obj
 0002:00029d74       __tls_end                  0048ad74     LIBCMT:tlssup.obj
 0002:00029db4       __TI2?AVbad_alloc@std@@    0048adb4     LIBCMT:throw_bad_alloc.obj
 0002:00029dc4       __CTA2?AVbad_alloc@std@@   0048adc4     LIBCMT:throw_bad_alloc.obj
 0002:00029dd0       __CT??_R0?AVbad_alloc@std@@@8??0bad_alloc@std@@QAE@ABV01@@Z12 0048add0     LIBCMT:throw_bad_alloc.obj
 0002:00029dec       __CT??_R0?AVexception@std@@@8??0exception@std@@QAE@ABV01@@Z12 0048adec     LIBCMT:throw_bad_alloc.obj
 0002:00029e08       __TI3?AVbad_array_new_length@std@@ 0048ae08     LIBCMT:throw_bad_alloc.obj
 0002:00029e18       __CTA3?AVbad_array_new_length@std@@ 0048ae18     LIBCMT:throw_bad_alloc.obj
 0002:00029e28       __CT??_R0?AVbad_array_new_length@std@@@8??0bad_array_new_length@std@@QAE@ABV01@@Z12 0048ae28     LIBCMT:throw_bad_alloc.obj
 0002:00029f4c       __TI2?AVbad_exception@std@@ 0048af4c     libvcruntime:frame.obj
 0002:00029f5c       __CTA2?AVbad_exception@std@@ 0048af5c     libvcruntime:frame.obj
 0002:00029f68       __CT??_R0?AVbad_exception@std@@@8??0bad_exception@std@@QAE@ABV01@@Z12 0048af68     libvcruntime:frame.obj
 0002:0002a774       __IMPORT_DESCRIPTOR_zlib1  0048b774     zdll:zlib1.dll
 0002:0002a788       __IMPORT_DESCRIPTOR_SDL2   0048b788     SDL2:SDL2.dll
 0002:0002a79c       __IMPORT_DESCRIPTOR_WS2_32 0048b79c     ws2_32:WS2_32.dll
 0002:0002a7b0       __IMPORT_DESCRIPTOR_WINMM  0048b7b0     winmm:WINMM.dll
 0002:0002a7c4       __IMPORT_DESCRIPTOR_dbghelp 0048b7c4     Dbghelp:dbghelp.dll
 0002:0002a7d8       __IMPORT_DESCRIPTOR_KERNEL32 0048b7d8     kernel32:KERNEL32.dll
 0002:0002a7ec       __IMPORT_DESCRIPTOR_ADVAPI32 0048b7ec     advapi32:ADVAPI32.dll
 0002:0002a800       __NULL_IMPORT_DESCRIPTOR   0048b800     zdll:zlib1.dll
 0003:0000000c       __Init_global_epoch        0048d00c     LIBCMT:thread_safe_statics.obj
 0003:00000010       ___scrt_native_dllmain_reason 0048d010     LIBCMT:utility.obj
 0003:00000040       ___security_cookie         0048d040     LIBCMT:gs_cookie.obj
 0003:00000080       ___security_cookie_complement 0048d080     LIBCMT:gs_cookie.obj
 0003:00000088       ___isa_inverted            0048d088     LIBCMT:cpu_disp.obj
 0003:00000090       ___isa_enabled             0048d090     LIBCMT:cpu_disp.obj
 0003:000000a0       ___scrt_default_matherr    0048d0a0     LIBCMT:matherr.obj
 0003:000000c0       __NLG_Destination          0048d0c0     libvcruntime:exsup.obj
 0003:000000d0       __iob                      0048d0d0     libucrt:_file.obj
 0003:00000180       ___abort_behavior          0048d180     libucrt:abort.obj
 0003:0000018c       ___globallocalestatus      0048d18c     libucrt:glstatus.obj
 0003:00000190       ___acrt_initial_locale_data 0048d190     libucrt:nlsdata.obj
 0003:00000248       ___acrt_initial_locale_pointers 0048d248     libucrt:nlsdata.obj
 0003:00000250       ___acrt_wide_c_locale_string 0048d250     libucrt:nlsdata.obj
 0003:00000254       ___mb_cur_max              0048d254     libucrt:nlsdata.obj
 0003:00000260       ___badioinfo               0048d260     libucrt:ioinit.obj
 0003:00000298       __pctype                   0048d298     libucrt:ctype.obj
 0003:0000029c       __pwctype                  0048d29c     libucrt:ctype.obj
 0003:000002a8       __lookuptrailbytes         0048d2a8     libucrt:read.obj
 0003:00000550       ___acrt_initial_multibyte_data 0048d550     libucrt:mbctype.obj
 0003:00000a70       ___acrt_lconv_c            0048da70     libucrt:localeconv.obj
 0003:00000ac0       ___acrt_lconv              0048dac0     libucrt:localeconv.obj
 0003:00000ac4       ___acrt_lconv_static_decimal 0048dac4     libucrt:localeconv.obj
 0003:00000ac8       ___acrt_lconv_static_W_decimal 0048dac8     libucrt:localeconv.obj
 0003:00000ae0       __fltused                  0048dae0     LIBCMT:fltused.obj
 0003:00000af0       ?next_afk_check@@3HA       0048daf0     server.obj
 0003:00000af4       ?sg@@3PAUservergame@@A     0048daf4     server.obj
 0003:00000af8       ?masterport@@3HA           0048daf8     serverms.obj
 0003:00000afc       ?pongsock@@3IA             0048dafc     serverms.obj
 0003:00000b00       ?soundcfg@@3PAUsoundcfgitem@@A 0048db00     server.obj
 0003:00001170       ?powerupstats@@3PAUitemstat@@A 0048e170     server.obj
 0003:000011a0       ?loglevelnames@@3PAPBDA    0048e1a0     server.obj
 0003:000011bc       ?teamnames_s@@3PAPBDA      0048e1bc     server.obj
 0003:000011d8       ?teamnames@@3PAPBDA        0048e1d8     server.obj
 0003:000011f4       ?mastersock@@3IA           0048e1f4     serverms.obj
 0003:000011f8       ?lansock@@3IA              0048e1f8     serverms.obj
 0003:000011fc       ?logsock@@3IA              0048e1fc     log.obj
 0003:00001200       ?guns@@3PAUguninfo@@A      0048e200     server.obj
 0003:00001678       ?endis@@3PAPBDA            0048e678     server.obj
 0003:00001688       ?ammostats@@3PAUitemstat@@A 0048e688     server.obj
 0003:00001738       ?mastername@@3PADA         0048e738     serverms.obj
 0003:0000183c       ?rootcert@@3PAEA           0048e83c     crypto.obj
 0003:0000185c       ?logdest@@3U_ENetAddress@@A 0048e85c     log.obj
 0003:00001870       ?modeacronymnames@@3PAPBDA 0048e870     protocol1.obj
 0003:000018d0       ?vitas@@3U?$hashtable@Uuchar32@@Uvita_s@@@@A 0048e8d0     server.obj
 0003:000018f0       ?forbiddenlist@@3Userverforbiddenlist@@A 0048e8f0     server.obj
 0003:000026a0       ?serverinfomotd@@3Userverinfofile@@A 0048f6a0     server.obj
 0003:000027d0       ?scl@@3Uservercommandline@@A 0048f7d0     server.obj
 0003:00002e80       ?nickblacklist@@3Uservernickblacklist@@A 0048fe80     server.obj
 0003:00002fe0       ?passwords@@3Userverpasswords@@A 0048ffe0     server.obj
 0003:00003110       ?ipblacklist@@3Userveripblacklist@@A 00490110     server.obj
 0003:00003240       ?serverinfoinfo@@3Userverinfofile@@A 00490240     server.obj
 0003:00003370       ?serverparameters@@3Userverparameter@@A 00490370     server.obj
 0003:00003490       ?maprot@@3Uservermaprot@@A 00490490     server.obj
 0003:00003868       ?geoiplist@@3Userveripcclist@@A 00490868     server.obj
 0003:000039a0       ?certblacklist@@3U?$hashtable@$$CBUuchar32@@D@@A 004909a0     crypto.obj
 0003:00003b60       ??_R0?AVbad_alloc@std@@@8  00490b60     LIBCMT:throw_bad_alloc.obj
 0003:00003b7c       ??_R0?AVexception@std@@@8  00490b7c     LIBCMT:throw_bad_alloc.obj
 0003:00003b98       ??_R0?AVbad_array_new_length@std@@@8 00490b98     LIBCMT:throw_bad_alloc.obj
 0003:00003bc0       ??_R0?AVbad_exception@std@@@8 00490bc0     libvcruntime:frame.obj
 0003:00003be0       ??_R0?AVtype_info@@@8      00490be0     LIBCMT:std_type_info_static.obj
 0003:00003bf8       ??_R0?AUrecorddemoaction@@@8 00490bf8     server.obj
 0003:00003c18       ??_R0?AUserverdescaction@@@8 00490c18     server.obj
 0003:00003c38       ??_R0?AVplayerstate@@@8    00490c38     server.obj
 0003:00003c54       ??_R0?AUenableaction@@@8   00490c54     server.obj
 0003:00003c70       ??_R0?AUplayeraction@@@8   00490c70     server.obj
 0003:00003c8c       ??_R0?AUservermaprot@@@8   00490c8c     server.obj
 0003:00003ca8       ??_R0?AUforceteamaction@@@8 00490ca8     server.obj
 0003:00003cc8       ??_R0?AUdemoplayaction@@@8 00490cc8     server.obj
 0003:00003ce8       ??_R0?AUkickaction@@@8     00490ce8     server.obj
 0003:00003d04       ??_R0?AUserveripcclist@@@8 00490d04     server.obj
 0003:00003d24       ??_R0?AUserverconfigfile@@@8 00490d24     server.obj
 0003:00003d44       ??_R0?AUserveraction@@@8   00490d44     server.obj
 0003:00003d60       ??_R0?AUserverpasswords@@@8 00490d60     server.obj
 0003:00003d80       ??_R0?AUserverinfofile@@@8 00490d80     server.obj
 0003:00003da0       ??_R0?AUpauseaction@@@8    00490da0     server.obj
 0003:00003dbc       ??_R0?AUserverforbiddenlist@@@8 00490dbc     server.obj
 0003:00003de0       ??_R0?AUservercontroller@@@8 00490de0     server.obj
 0003:00003e00       ??_R0?AUservernickblacklist@@@8 00490e00     server.obj
 0003:00003e24       ??_R0?AUclientstate@@@8    00490e24     server.obj
 0003:00003e40       ??_R0?AUcleardemosaction@@@8 00490e40     server.obj
 0003:00003e60       ??_R0?AUserverparameter@@@8 00490e60     server.obj
 0003:00003e80       ??_R0?AUbanaction@@@8      00490e80     server.obj
 0003:00003e98       ??_R0?AUmastermodeaction@@@8 00490e98     server.obj
 0003:00003eb8       ??_R0?AUshuffleteamaction@@@8 00490eb8     server.obj
 0003:00003ed8       ??_R0?AUremovebansaction@@@8 00490ed8     server.obj
 0003:00003ef8       ??_R0?AUserveripblacklist@@@8 00490ef8     server.obj
 0003:00003f18       ??_R0?AUgiveadminaction@@@8 00490f18     server.obj
 0003:00003f38       ??_R0?AUmapaction@@@8      00490f38     server.obj
 0003:00003f50       ??_R0?AUautoteamaction@@@8 00490f50     server.obj
 0003:00003f70       ??_R0?AUwinservice@@@8     00490f70     server.obj
 0003:00003f8c       ??_R0?AUfilestream@@@8     00490f8c     stream.obj
 0003:00003fa8       ??_R0?AUgzstream@@@8       00490fa8     stream.obj
 0003:00003fc0       ??_R0?AUvecstream@@@8      00490fc0     stream.obj
 0003:00003fd8       ??_R0?AUstream@@@8         00490fd8     stream.obj
 0003:000047c4       ___scrt_current_native_startup_state 004917c4     LIBCMT:utility.obj
 0003:000047c8       ___scrt_native_startup_lock 004917c8     LIBCMT:utility.obj
 0003:000047e8       __tls_index                004917e8     LIBCMT:tlssup.obj
 0003:000047ec       ___avx10_version           004917ec     LIBCMT:cpu_disp.obj
 0003:000047f0       ___isa_available           004917f0     LIBCMT:cpu_disp.obj
 0003:000047f4       ___favor                   004917f4     LIBCMT:cpu_disp.obj
 0003:000047f8       ___scrt_debugger_hook_flag 004917f8     LIBCMT:utility_desktop.obj
 0003:00004800       ?__type_info_root_node@@3U__type_info_node@@A 00491800     LIBCMT:tncleanup.obj
 0003:00004808       ?__WinRTOutOfMemoryExceptionCallback@@3P6GPAXXZA 00491808     libvcruntime:ehhelpers.obj
 0003:0000480c       ___pPurecall               0049180c     libvcruntime:purevirt_data.obj
 0003:00004854       ?pArgList@UnDecorator@@0PAVReplicator@@A 00491854     libvcruntime:undname.obj
 0003:00004858       ?pZNameList@UnDecorator@@0PAVReplicator@@A 00491858     libvcruntime:undname.obj
 0003:0000485c       ?pTemplateArgList@UnDecorator@@0PAVReplicator@@A 0049185c     libvcruntime:undname.obj
 0003:00004860       ?gName@UnDecorator@@0PBDB  00491860     libvcruntime:undname.obj
 0003:00004864       ?name@UnDecorator@@0PBDB   00491864     libvcruntime:undname.obj
 0003:00004868       ?disableFlags@UnDecorator@@0KA 00491868     libvcruntime:undname.obj
 0003:0000486c       ?fExplicitTemplateParams@UnDecorator@@0_NA 0049186c     libvcruntime:undname.obj
 0003:0000486d       ?fGetTemplateArgumentList@UnDecorator@@0_NA 0049186d     libvcruntime:undname.obj
 0003:00004870       ?m_pGetParameter@UnDecorator@@0P6APADJ@ZA 00491870     libvcruntime:undname.obj
 0003:00004874       ?m_CHPENameOffset@UnDecorator@@0KA 00491874     libvcruntime:undname.obj
 0003:00004878       ?m_recursionLevel@UnDecorator@@0KA 00491878     libvcruntime:undname.obj
 0003:000048bc       __nstream                  004918bc     libucrt:_file.obj
 0003:000048c0       ___piob                    004918c0     libucrt:_file.obj
 0003:000048c4       __cflush                   004918c4     libucrt:_file.obj
 0003:000049e8       __environ_table            004919e8     libucrt:environment_initialization.obj
 0003:000049ec       __wenviron_table           004919ec     libucrt:environment_initialization.obj
 0003:000049f0       ___dcrt_initial_wide_environment 004919f0     libucrt:environment_initialization.obj
 0003:000049f4       ___dcrt_initial_narrow_environment 004919f4     libucrt:environment_initialization.obj
 0003:000049f8       ___acrt_atexit_table       004919f8     libucrt:onexit.obj
 0003:00004a04       ___acrt_at_quick_exit_table 00491a04     libucrt:onexit.obj
 0003:00004a18       __pgmptr                   00491a18     libucrt:argv_data.obj
 0003:00004a1c       ___argc                    00491a1c     libucrt:argv_data.obj
 0003:00004a20       ___argv                    00491a20     libucrt:argv_data.obj
 0003:00004a24       ___wargv                   00491a24     libucrt:argv_data.obj
 0003:00004a28       __acmdln                   00491a28     libucrt:argv_data.obj
 0003:00004a2c       __wcmdln                   00491a2c     libucrt:argv_data.obj
 0003:00004a30       ___acrt_locale_changed_data 00491a30     libucrt:wsetlocale.obj
 0003:00004a38       __commode                  00491a38     libucrt:ncommode.obj
 0003:00004c88       ___acrt_current_locale_data 00491c88     libucrt:nlsdata.obj
 0003:00004c90       ___pioinfo                 00491c90     libucrt:ioinit.obj
 0003:00004e90       __nhandle                  00491e90     libucrt:ioinit.obj
 0003:00004e94       ___acrt_stdout_buffer      00491e94     libucrt:_sftbuf.obj
 0003:00004e98       ___acrt_stderr_buffer      00491e98     libucrt:_sftbuf.obj
 0003:00004ea8       ?_timezone@@3V?$dual_state_global@J@__crt_state_management@@A 00491ea8     libucrt:timeset.obj
 0003:00004eac       ?_daylight@@3V?$dual_state_global@H@__crt_state_management@@A 00491eac     libucrt:timeset.obj
 0003:00004eb0       ?_dstbias@@3V?$dual_state_global@J@__crt_state_management@@A 00491eb0     libucrt:timeset.obj
 0003:00004f74       __mbctype                  00491f74     libucrt:mbctype.obj
 0003:00004f78       __mbcasemap                00491f78     libucrt:mbctype.obj
 0003:00004f7c       ___acrt_current_multibyte_data 00491f7c     libucrt:mbctype.obj
 0003:00004f88       ___acrt_heap               00491f88     libucrt:heap_handle.obj
 0003:00004f8c       __fmode                    00491f8c     libucrt:txtmode.obj
 0003:00004f90       ___acrt_lconv_static_null  00491f90     libucrt:localeconv.obj
 0003:00004f94       ___acrt_lconv_static_W_null 00491f94     libucrt:localeconv.obj
 0003:00004fa8       __umaskval                 00491fa8     libucrt:umask.obj
 0003:00004fac       ___fastflag                00491fac     libucrt:fp_flags.obj
 0003:00004fc0       ?servclock@@3HA            00491fc0     server.obj
 0003:00004fc4       ?last_demo_timestampformat@@3PADA 00491fc4     server.obj
 0003:00004fdc       ?last_dumpparameters@@3HA  00491fdc     server.obj
 0003:00004fe0       ?demoplayback@@3PAUstream@@A 00491fe0     server.obj
 0003:00004fe4       ?map_queued@@3_NA          00491fe4     server.obj
 0003:00004fe5       ?triggerpollrestart@@3_NA  00491fe5     server.obj
 0003:00004fe6       ?recheckallserverconfigs@@3_NC 00491fe6     server.obj
 0003:00004fe7       ?servinfoauth_done@@3_NC   00491fe7     server.obj
 0003:00004fe8       ?isdedicated@@3_NA         00491fe8     server.obj
 0003:00004fe9       ?startnewservermapsepoch@@3_NC 00491fe9     server.obj
 0003:00004fea       ?usemaster@@3_NA           00491fea     serverms.obj
 0003:00004ff0       ?vitafilename_update_backup@@3PADA 00491ff0     server.obj
 0003:000050f4       ?nextplayback@@3HA         004920f4     server.obj
 0003:000050f8       ?last_logthreshold_syslog@@3HA 004920f8     server.obj
 0003:000050fc       ?laststatus@@3HA           004920fc     server.obj
 0003:00005100       ?passtries@@3HA            00492100     server.obj
 0003:00005104       ?servpars@@3PAU?$hashtable@PBDUservpar@@@@A 00492104     server.obj
 0003:00005108       ?last_dumpsuggestions@@3HA 00492108     server.obj
 0003:0000510c       ?last_stat_mainlog_peaklevel@@3HA 0049210c     server.obj
 0003:00005110       ?passguy@@3IA              00492110     server.obj
 0003:00005114       ?modeinfologfilename@@3PBDB 00492114     server.obj
 0003:00005118       ?cn2boot@@3HA              00492118     server.obj
 0003:0000511c       ?last_logthreshold_file@@3HA 0049211c     server.obj
 0003:00005120       ?vitastosave@@3PAU?$vector@Uvitakey_s@@@@A 00492120     server.obj
 0003:00005124       ?incoming_size@@3JA        00492124     server.obj
 0003:00005128       ?last_gamepenalty_cutoff@@3HA 00492128     server.obj
 0003:00005130       ?last_demo_filenameformat@@3PADA 00492130     server.obj
 0003:00005170       ?svc@callbacks@winservice@@2PAU2@A 00492170     server.obj
 0003:00005174       ?readmaplog@@3PAUstream@@A 00492174     server.obj
 0003:00005178       ?servmillis@@3HA           00492178     server.obj
 0003:0000517c       ?last_stat_theadlog_peaklevel@@3HA 0049217c     server.obj
 0003:00005180       ?vitafilename_update@@3PADA 00492180     server.obj
 0003:00005288       ?vitafilename_update_backup_base@@3PADA 00492288     server.obj
 0003:0000538c       ?demorecord@@3PAUdemo_s@@A 0049238c     server.obj
 0003:00005390       ?serverhost@@3PAU_ENetHost@@A 00492390     server.obj
 0003:00005394       ?servermapdropbox@@3PCUservermap@@C 00492394     server.obj
 0003:00005398       ?last_mandatory_auth@@3HA  00492398     server.obj
 0003:000053a0       ?last_use_hx_modeinfo@@3PADA 004923a0     server.obj
 0003:00005440       ?last_mappenalty_cutoff@@3HA 00492440     server.obj
 0003:00005444       ?use_hx_modeinfo_mask@@3HA 00492444     server.obj
 0003:00005448       ?last_demo_max_number@@3HA 00492448     server.obj
 0003:0000544c       ?last_vitamaxage@@3HA      0049244c     server.obj
 0003:00005450       ?totalclients@@3HA         00492450     server.obj
 0003:00005454       ?last_demo_save@@3HA       00492454     server.obj
 0003:00005458       ?last_demo_debug@@3HA      00492458     server.obj
 0003:00005460       ?vitafilename_backup@@3PADA 00492460     server.obj
 0003:00005568       ?last_demo_path@@3PADA     00492568     server.obj
 0003:000055a8       ?last_logthreshold_console@@3HA 004925a8     server.obj
 0003:000055ac       ?vitaupdatebuflen@@3HA     004925ac     server.obj
 0003:000055b0       ?servinfoauth_dropbox@@3PCUservinfoauth@@C 004925b0     server.obj
 0003:000055b4       ?last_auth_verify_ip@@3HA  004925b4     server.obj
 0003:000055b8       ?vitaupdatebuf@@3PADA      004925b8     server.obj
 0003:000055c0       ?vitafilename@@3PADA       004925c0     server.obj
 0003:000056c8       ?servpubkey@@3PADA         004926c8     server.obj
 0003:000057cc       ?readmapsthread_sem@@3PAUsl_semaphore@@A 004927cc     server.obj
 0003:000057d0       ?svcctrl@@3PAUservercontroller@@A 004927d0     server.obj
 0003:000057d4       ?servownip@@3IA            004927d4     server.obj
 0003:000057d8       ?last_modepenalty_weight@@3HA 004927d8     server.obj
 0003:000057e0       ?demo_filenameformat@@3PADA 004927e0     server.obj
 0003:00005820       ?use_hx_modeinfo@@3PADA    00492820     server.obj
 0003:000058c0       ?demo_path@@3PADA          004928c0     server.obj
 0003:00005900       ?ssk@@3PAEA                00492900     server.obj
 0003:00005940       ?readserverconfigsthread_sem@@3PAUsl_semaphore@@A 00492940     server.obj
 0003:00005944       ?last_gamepenalty_random@@3HA 00492944     server.obj
 0003:00005948       ?last_mappenalty_weight@@3HA 00492948     server.obj
 0003:00005950       ?demo_timestampformat@@3PADA 00492950     server.obj
 0003:00005968       ?last_dumpmaprot@@3HA      00492968     server.obj
 0003:0000596c       ?passtime@@3HA             0049296c     server.obj
 0003:00005970       ?masterinpos@@3HA          00492970     serverms.obj
 0003:00005974       ?masteroutpos@@3HA         00492974     serverms.obj
 0003:00005978       ?lastupdatemaster@@3HA     00492978     serverms.obj
 0003:0000597c       ?masteraddress@@3U_ENetAddress@@A 0049297c     serverms.obj
 0003:00005984       ?serveraddress@@3U_ENetAddress@@A 00492984     serverms.obj
 0003:00005990       ?sboxes@tiger@@3PA_KA      00492990     crypto.obj
 0003:00007990       ?findfilelocation@@3HA     00494990     stream.obj
 0003:00007998       ?homedir@@3PADA            00494998     stream.obj
 0003:00007aa0       ?_timestringbuffer@@3PADA  00494aa0     tools.obj
 0003:00007ba4       ?logthreshold_file@@3HA    00494ba4     server.obj
 0003:00007ba8       ?logthreshold_console@@3HA 00494ba8     server.obj
 0003:00007bac       ?gbans@@3U?$vector@Ugbaninfo@@@@A 00494bac     server.obj
 0003:00007bb8       ?demo_max_number@@3HA      00494bb8     server.obj
 0003:00007bbc       ?shuffle@@3U?$vector@H@@A  00494bbc     server.obj
 0003:00007bc8       ?demo_save@@3HA            00494bc8     server.obj
 0003:00007bcc       ?servermaps@@3U?$vector@PAUservermap@@@@A 00494bcc     server.obj
 0003:00007bd8       ?cursgame@@3Uservergame@@A 00494bd8     server.obj
 0003:00007f9c       ?stat_theadlog_peaklevel@@3HA 00494f9c     server.obj
 0003:00007fa0       ?dumpmaprot@@3HA           00494fa0     server.obj
 0003:00007fa4       ?sdistrib@@3U?$vector@Utwoint@@@@A 00494fa4     server.obj
 0003:00007fb0       ?gamepenalty_random@@3HA   00494fb0     server.obj
 0003:00007fb4       ?stat_mainlog_peaklevel@@3HA 00494fb4     server.obj
 0003:00007fb8       ?auth_verify_ip@@3HA       00494fb8     server.obj
 0003:00007fc0       ?demoringbuf_store@@3U?$ringbuf@PAU?$ringbuf@E$0EAAAA@@@$0BI@@@A 00494fc0     server.obj
 0003:00008028       ?sem_demoworkerthread@@3Usl_semaphore@@A 00495028     server.obj
 0003:00008030       ?dumpsuggestions@@3HA      00495030     server.obj
 0003:00008034       ?mapfilenames@@3U?$vector@Umapfilename@@@@A 00495034     server.obj
 0003:00008040       ?logthreshold_syslog@@3HA  00495040     server.obj
 0003:00008044       ?gamepenalty_cutoff@@3HA   00495044     server.obj
 0003:00008048       ?servinfoauth_deferred@@3Usl_semaphore@@A 00495048     server.obj
 0003:00008050       ?mappenalty_weight@@3HA    00495050     server.obj
 0003:00008054       ?demo_debug@@3HA           00495054     server.obj
 0003:00008058       ?clients@@3U?$vector@PAUclient@@@@A 00495058     server.obj
 0003:00008064       ?bans@@3U?$vector@Uban@@@@A 00495064     server.obj
 0003:00008070       ?gamesuggestions@@3U?$vector@PAUservermap@@@@A 00495070     server.obj
 0003:0000807c       ?modepenalty_weight@@3HA   0049507c     server.obj
 0003:00008080       ?mandatory_auth@@3HA       00495080     server.obj
 0003:00008084       ?dumpparameters@@3HA       00495084     server.obj
 0003:00008088       ?vitamaxage@@3HA           00495088     server.obj
 0003:0000808c       ?mappenalty_cutoff@@3HA    0049508c     server.obj
 0003:00008090       ?demos@@3PAUdemo_s@@A      00495090     server.obj
 0003:0000d370       ?serverconfigs@@3U?$vector@PAUserverconfigfile@@@@A 0049a370     server.obj
 0003:0000d380       ?demobuf_store@@3U?$ringbuf@PAU?$vector@E@@$0BI@@@A 0049a380     server.obj
 0003:0000d3e8       ?savedscores@@3U?$vector@Usavedscore@@@@A 0049a3e8     server.obj
 0003:0000d3f4       ?worldstates@@3U?$vector@PAUworldstate@@@@A 0049a3f4     server.obj
 0003:0000d400       ?servinfoauths@@3U?$ringbuf@PAUservinfoauth@@$0BA@@@A 0049a400     server.obj
 0003:0000d448       ?masterout@@3U?$vector@D@@A 0049a448     serverms.obj
 0003:0000d454       ?masterin@@3U?$vector@D@@A 0049a454     serverms.obj
 0003:0000d460       ?certs@@3U?$vector@PAUcert@@@@A 0049a460     crypto.obj
 0003:0000e518       ?packagedirs@@3U?$vector@PAD@@A 0049b518     stream.obj
 0003:0000fc10       ?_OptionsStorage@?1??__local_stdio_printf_options@@9@4_KA 0049cc10     server.obj
 0003:0000fc44       ?overreadval@?1??get@?$databuf@E@@QAEABEXZ@4EA 0049cc44     server.obj
 0003:0000fc4c       ?staticbuffer@?1??load@servermap@@QAEXXZ@4PAEA 0049cc4c     server.obj
 0003:00010478       ?_OptionsStorage@?1??__local_stdio_scanf_options@@9@4_KA 0049d478     server.obj
 0003:00011e10       ?dummy@?1??addevent@client@@QAEAATgameevent@@XZ@4T3@A 0049ee10     server.obj
 0003:0001401c       ___dyn_tls_dtor_callback   004a101c     <common>
 0003:00014020       ___dyn_tls_init_callback   004a1020     <common>
 0003:00014024       ___scrt_ucrt_dll_is_in_use 004a1024     <common>
 0003:00014028       __pmatherr                 004a1028     <common>
 0003:0001402c       ___use_sse2_mathfcns       004a102c     <common>

 entry point at        0001:00010d8e

 Static symbols

 0000:fff4d000       .debug$S                   00400000     SDL2:SDL2.dll
 0000:fff4d000       .debug$S                   00400000     SDL2:SDL2.dll
 0000:fff4d000       .debug$S                   00400000     SDL2:SDL2.dll
 0000:fff4d000       .debug$S                   00400000     SDL2:SDL2.dll
 0000:fff4d000       .debug$S                   00400000     SDL2:SDL2.dll
 0000:fff4d000       .debug$S                   00400000     SDL2:SDL2.dll
 0000:fff4d000       .debug$S                   00400000     SDL2:SDL2.dll
 0000:fff4d000       .debug$S                   00400000     SDL2:SDL2.dll
 0000:fff4d000       .debug$S                   00400000     SDL2:SDL2.dll
 0000:fff4d000       .debug$S                   00400000     SDL2:SDL2.dll
 0000:fff4d000       .debug$S                   00400000     SDL2:SDL2.dll
 0000:fff4d000       .debug$S                   00400000     winmm:WINMM.dll
 0000:fff4d000       .debug$S                   00400000     winmm:WINMM.dll
 0000:fff4d000       .debug$S                   00400000     winmm:WINMM.dll
 0000:fff4d000       .debug$S                   00400000     ws2_32:WS2_32.dll
 0000:fff4d000       .debug$S                   00400000     ws2_32:WS2_32.dll
 0000:fff4d000       .debug$S                   00400000     ws2_32:WS2_32.dll
 0000:fff4d000       .debug$S                   00400000     ws2_32:WS2_32.dll
 0000:fff4d000       .debug$S                   00400000     ws2_32:WS2_32.dll
 0000:fff4d000       .debug$S                   00400000     ws2_32:WS2_32.dll
 0000:fff4d000       .debug$S                   00400000     ws2_32:WS2_32.dll
 0000:fff4d000       .debug$S                   00400000     ws2_32:WS2_32.dll
 0000:fff4d000       .debug$S                   00400000     ws2_32:WS2_32.dll
 0000:fff4d000       .debug$S                   00400000     ws2_32:WS2_32.dll
 0000:fff4d000       .debug$S                   00400000     ws2_32:WS2_32.dll
 0000:fff4d000       .debug$S                   00400000     ws2_32:WS2_32.dll
 0000:fff4d000       .debug$S                   00400000     ws2_32:WS2_32.dll
 0000:fff4d000       .debug$S                   00400000     ws2_32:WS2_32.dll
 0000:fff4d000       .debug$S                   00400000     ws2_32:WS2_32.dll
 0000:fff4d000       .debug$S                   00400000     ws2_32:WS2_32.dll
 0000:fff4d000       .debug$S                   00400000     ws2_32:WS2_32.dll
 0000:fff4d000       .debug$S                   00400000     ws2_32:WS2_32.dll
 0000:fff4d000       .debug$S                   00400000     ws2_32:WS2_32.dll
 0000:fff4d000       .debug$S                   00400000     ws2_32:WS2_32.dll
 0000:fff4d000       .debug$S                   00400000     ws2_32:WS2_32.dll
 0000:fff4d000       .debug$S                   00400000     ws2_32:WS2_32.dll
 0000:fff4d000       .debug$S                   00400000     ws2_32:WS2_32.dll
 0000:fff4d000       .debug$S                   00400000     ws2_32:WS2_32.dll
 0000:fff4d000       .debug$S                   00400000     zdll:zlib1.dll
 0000:fff4d000       .debug$S                   00400000     zdll:zlib1.dll
 0000:fff4d000       .debug$S                   00400000     zdll:zlib1.dll
 0000:fff4d000       .debug$S                   00400000     zdll:zlib1.dll
 0000:fff4d000       .debug$S                   00400000     zdll:zlib1.dll
 0000:fff4d000       .debug$S                   00400000     zdll:zlib1.dll
 0000:fff4d000       .debug$S                   00400000     zdll:zlib1.dll
 0000:fff4d000       .debug$S                   00400000     zdll:zlib1.dll
 0000:fff4d000       .debug$S                   00400000     zdll:zlib1.dll
 0000:fff4d000       .debug$S                   00400000     zdll:zlib1.dll
 0000:fff4d000       .debug$S                   00400000     Dbghelp:dbghelp.dll
 0000:fff4d000       .debug$S                   00400000     Dbghelp:dbghelp.dll
 0000:fff4d000       .debug$S                   00400000     Dbghelp:dbghelp.dll
 0000:fff4d000       .debug$S                   00400000     Dbghelp:dbghelp.dll
 0000:fff4d000       .debug$S                   00400000     Dbghelp:dbghelp.dll
 0000:fff4d000       .debug$S                   00400000     Dbghelp:dbghelp.dll
 0000:fff4d000       .debug$S                   00400000     advapi32:ADVAPI32.dll
 0000:fff4d000       .debug$S                   00400000     advapi32:ADVAPI32.dll
 0000:fff4d000       .debug$S                   00400000     advapi32:ADVAPI32.dll
 0000:fff4d000       .debug$S                   00400000     advapi32:ADVAPI32.dll
 0000:fff4d000       .debug$S                   00400000     advapi32:ADVAPI32.dll
 0000:fff4d000       .debug$S                   00400000     advapi32:ADVAPI32.dll
 0000:fff4d000       .debug$S                   00400000     advapi32:ADVAPI32.dll
 0000:fff4d000       .debug$S                   00400000     advapi32:ADVAPI32.dll
 0000:fff4d000       .debug$S                   00400000     advapi32:ADVAPI32.dll
 0000:fff4d000       .debug$S                   00400000     advapi32:ADVAPI32.dll
 0000:fff4d000       .debug$S                   00400000     kernel32:KERNEL32.dll
 0000:fff4d000       .debug$S                   00400000     kernel32:KERNEL32.dll
 0000:fff4d000       .debug$S                   00400000     kernel32:KERNEL32.dll
 0000:fff4d000       .debug$S                   00400000     kernel32:KERNEL32.dll
 0000:fff4d000       .debug$S                   00400000     kernel32:KERNEL32.dll
 0000:fff4d000       .debug$S                   00400000     kernel32:KERNEL32.dll
 0000:fff4d000       .debug$S                   00400000     kernel32:KERNEL32.dll
 0000:fff4d000       .debug$S                   00400000     kernel32:KERNEL32.dll
 0000:fff4d000       .debug$S                   00400000     kernel32:KERNEL32.dll
 0000:fff4d000       .debug$S                   00400000     kernel32:KERNEL32.dll
 0000:fff4d000       .debug$S                   00400000     kernel32:KERNEL32.dll
 0000:fff4d000       .debug$S                   00400000     kernel32:KERNEL32.dll
 0000:fff4d000       .debug$S                   00400000     kernel32:KERNEL32.dll
 0000:fff4d000       .debug$S                   00400000     kernel32:KERNEL32.dll
 0000:fff4d000       .debug$S                   00400000     kernel32:KERNEL32.dll
 0000:fff4d000       .debug$S                   00400000     kernel32:KERNEL32.dll
 0000:fff4d000       .debug$S                   00400000     kernel32:KERNEL32.dll
 0000:fff4d000       .debug$S                   00400000     kernel32:KERNEL32.dll
 0000:fff4d000       .debug$S                   00400000     kernel32:KERNEL32.dll
 0000:fff4d000       .debug$S                   00400000     kernel32:KERNEL32.dll
 0000:fff4d000       .debug$S                   00400000     kernel32:KERNEL32.dll
 0000:fff4d000       .debug$S                   00400000     kernel32:KERNEL32.dll
 0000:fff4d000       .debug$S                   00400000     kernel32:KERNEL32.dll
 0000:fff4d000       .debug$S                   00400000     kernel32:KERNEL32.dll
 0000:fff4d000       .debug$S                   00400000     kernel32:KERNEL32.dll
 0000:fff4d000       .debug$S                   00400000     kernel32:KERNEL32.dll
 0000:fff4d000       .debug$S                   00400000     kernel32:KERNEL32.dll
 0000:fff4d000       .debug$S                   00400000     kernel32:KERNEL32.dll
 0000:fff4d000       .debug$S                   00400000     kernel32:KERNEL32.dll
 0000:fff4d000       .debug$S                   00400000     kernel32:KERNEL32.dll
 0000:fff4d000       .debug$S                   00400000     kernel32:KERNEL32.dll
 0000:fff4d000       .debug$S                   00400000     kernel32:KERNEL32.dll
 0000:fff4d000       .debug$S                   00400000     kernel32:KERNEL32.dll
 0000:fff4d000       .debug$S                   00400000     kernel32:KERNEL32.dll
 0000:fff4d000       .debug$S                   00400000     kernel32:KERNEL32.dll
 0000:fff4d000       .debug$S                   00400000     kernel32:KERNEL32.dll
 0000:fff4d000       .debug$S                   00400000     kernel32:KERNEL32.dll
 0000:fff4d000       .debug$S                   00400000     kernel32:KERNEL32.dll
 0000:fff4d000       .debug$S                   00400000     kernel32:KERNEL32.dll
 0000:fff4d000       .debug$S                   00400000     kernel32:KERNEL32.dll
 0000:fff4d000       .debug$S                   00400000     kernel32:KERNEL32.dll
 0000:fff4d000       .debug$S                   00400000     kernel32:KERNEL32.dll
 0000:fff4d000       .debug$S                   00400000     kernel32:KERNEL32.dll
 0000:fff4d000       .debug$S                   00400000     kernel32:KERNEL32.dll
 0000:fff4d000       .debug$S                   00400000     kernel32:KERNEL32.dll
 0000:fff4d000       .debug$S                   00400000     kernel32:KERNEL32.dll
 0000:fff4d000       .debug$S                   00400000     kernel32:KERNEL32.dll
 0000:fff4d000       .debug$S                   00400000     kernel32:KERNEL32.dll
 0000:fff4d000       .debug$S                   00400000     kernel32:KERNEL32.dll
 0000:fff4d000       .debug$S                   00400000     kernel32:KERNEL32.dll
 0000:fff4d000       .debug$S                   00400000     kernel32:KERNEL32.dll
 0000:fff4d000       .debug$S                   00400000     kernel32:KERNEL32.dll
 0000:fff4d000       .debug$S                   00400000     kernel32:KERNEL32.dll
 0000:fff4d000       .debug$S                   00400000     kernel32:KERNEL32.dll
 0000:fff4d000       .debug$S                   00400000     kernel32:KERNEL32.dll
 0000:fff4d000       .debug$S                   00400000     kernel32:KERNEL32.dll
 0000:fff4d000       .debug$S                   00400000     kernel32:KERNEL32.dll
 0000:fff4d000       .debug$S                   00400000     kernel32:KERNEL32.dll
 0000:fff4d000       .debug$S                   00400000     kernel32:KERNEL32.dll
 0000:fff4d000       .debug$S                   00400000     kernel32:KERNEL32.dll
 0000:fff4d000       .debug$S                   00400000     kernel32:KERNEL32.dll
 0000:fff4d000       .debug$S                   00400000     kernel32:KERNEL32.dll
 0000:fff4d000       .debug$S                   00400000     kernel32:KERNEL32.dll
 0000:fff4d000       .debug$S                   00400000     kernel32:KERNEL32.dll
 0000:fff4d000       .debug$S                   00400000     kernel32:KERNEL32.dll
 0000:fff4d000       .debug$S                   00400000     kernel32:KERNEL32.dll
 0000:fff4d000       .debug$S                   00400000     kernel32:KERNEL32.dll
 0000:fff4d000       .debug$S                   00400000     kernel32:KERNEL32.dll
 0000:fff4d000       .debug$S                   00400000     kernel32:KERNEL32.dll
 0000:fff4d000       .debug$S                   00400000     kernel32:KERNEL32.dll
 0000:fff4d000       .debug$S                   00400000     kernel32:KERNEL32.dll
 0000:fff4d000       .debug$S                   00400000     kernel32:KERNEL32.dll
 0000:fff4d000       .debug$S                   00400000     kernel32:KERNEL32.dll
 0000:fff4d000       .debug$S                   00400000     kernel32:KERNEL32.dll
 0000:fff4d000       .debug$S                   00400000     kernel32:KERNEL32.dll
 0000:fff4d000       .debug$S                   00400000     kernel32:KERNEL32.dll
 0000:fff4d000       .debug$S                   00400000     kernel32:KERNEL32.dll
 0000:fff4d000       .debug$S                   00400000     kernel32:KERNEL32.dll
 0000:fff4d000       .debug$S                   00400000     kernel32:KERNEL32.dll
 0000:fff4d000       .debug$S                   00400000     kernel32:KERNEL32.dll
 0000:fff4d000       .debug$S                   00400000     kernel32:KERNEL32.dll
 0000:fff4d000       .debug$S                   00400000     kernel32:KERNEL32.dll
 0000:fff4d000       .debug$S                   00400000     kernel32:KERNEL32.dll
 0000:fff4d000       .debug$S                   00400000     kernel32:KERNEL32.dll
 0000:fff4d000       .debug$S                   00400000     kernel32:KERNEL32.dll
 0000:fff4d000       .debug$S                   00400000     kernel32:KERNEL32.dll
 0000:fff4d000       .debug$S                   00400000     kernel32:KERNEL32.dll
 0000:fff4d000       .debug$S                   00400000     kernel32:KERNEL32.dll
 0000:fff4d000       .debug$S                   00400000     kernel32:KERNEL32.dll
 0000:fff4d000       .debug$S                   00400000     kernel32:KERNEL32.dll
 0000:fff4d000       .debug$S                   00400000     kernel32:KERNEL32.dll
 0000:fff4d000       .debug$S                   00400000     kernel32:KERNEL32.dll
 0000:fff4d000       .debug$S                   00400000     kernel32:KERNEL32.dll
 0000:fff4d000       .debug$S                   00400000     kernel32:KERNEL32.dll
 0000:fff4d000       .debug$S                   00400000     kernel32:KERNEL32.dll
 0000:fff4d000       .debug$S                   00400000     kernel32:KERNEL32.dll
 0000:fff4d000       .debug$S                   00400000     kernel32:KERNEL32.dll
 0000:fff4d000       .debug$S                   00400000     kernel32:KERNEL32.dll
 0000:fff4d000       .debug$S                   00400000     kernel32:KERNEL32.dll
 0000:fff4d000       .debug$S                   00400000     kernel32:KERNEL32.dll
 0000:fff4d000       .debug$S                   00400000     kernel32:KERNEL32.dll
 0000:fff4d000       .debug$S                   00400000     kernel32:KERNEL32.dll
 0000:fff4d000       .debug$S                   00400000     kernel32:KERNEL32.dll
 0000:fff4d000       .debug$S                   00400000     kernel32:KERNEL32.dll
 0000:fff4d000       .debug$S                   00400000     kernel32:KERNEL32.dll
 0000:fff4d000       .debug$S                   00400000     kernel32:KERNEL32.dll
 0000:fff4d000       .debug$S                   00400000     kernel32:KERNEL32.dll
 0000:fff4d000       .debug$S                   00400000     kernel32:KERNEL32.dll
 0000:fff4d000       .debug$S                   00400000     kernel32:KERNEL32.dll
 0001:00000960       _enet_peer_remove_incoming_commands.isra.0 00401960 f   enet:peer.o
 0001:00002070       _enet_protocol_remove_sent_reliable_command 00403070 f   enet:protocol.o
 0001:00002210       _enet_protocol_dispatch_incoming_commands 00403210 f   enet:protocol.o
 0001:00002330       _enet_protocol_notify_disconnect 00403330 f   enet:protocol.o
 0001:000023c0       _enet_protocol_send_outgoing_commands 004033c0 f   enet:protocol.o
 0001:00005750       ??__Emapfilenames@@YAXXZ   00406750 f   server.obj
 0001:00005760       ??__Eserverconfigs@@YAXXZ  00406760 f   server.obj
 0001:00005770       ??__E__sdummy_use_hx_modeinfo@@YAXXZ 00406770 f   server.obj
 0001:000057a0       ??__Evitas@@YAXXZ          004067a0 f   server.obj
 0001:000057d0       ??__Ecursgame@@YAXXZ       004067d0 f   server.obj
 0001:000057e0       ??__Eservermaps@@YAXXZ     004067e0 f   server.obj
 0001:000057f0       ??__Egamesuggestions@@YAXXZ 004067f0 f   server.obj
 0001:00005800       ??__Eserverparameters@@YAXXZ 00406800 f   server.obj
 0001:00005850       ??__Escl@@YAXXZ            00406850 f   server.obj
 0001:00005860       ??__Emaprot@@YAXXZ         00406860 f   server.obj
 0001:000058f0       ??__Eipblacklist@@YAXXZ    004068f0 f   server.obj
 0001:00005960       ??__Egeoiplist@@YAXXZ      00406960 f   server.obj
 0001:000059d0       ??__Enickblacklist@@YAXXZ  004069d0 f   server.obj
 0001:00005ac0       ??__Eforbiddenlist@@YAXXZ  00406ac0 f   server.obj
 0001:00005b10       ??__Epasswords@@YAXXZ      00406b10 f   server.obj
 0001:00005b70       ??__Eserverinfoinfo@@YAXXZ 00406b70 f   server.obj
 0001:00005be0       ??__Eserverinfomotd@@YAXXZ 00406be0 f   server.obj
 0001:00005c50       ??__Eclients@@YAXXZ        00406c50 f   server.obj
 0001:00005c60       ??__Eworldstates@@YAXXZ    00406c60 f   server.obj
 0001:00005c70       ??__Esavedscores@@YAXXZ    00406c70 f   server.obj
 0001:00005c80       ??__Ebans@@YAXXZ           00406c80 f   server.obj
 0001:00005c90       ??__Edumpmaprot@@YAXXZ     00406c90 f   server.obj
 0001:00005d60       ??__Edumpparameters@@YAXXZ 00406d60 f   server.obj
 0001:00005e30       ??__Evitamaxage@@YAXXZ     00406e30 f   server.obj
 0001:00005ee0       ??__Egamepenalty_cutoff@@YAXXZ 00406ee0 f   server.obj
 0001:00005f90       ??__Egamepenalty_random@@YAXXZ 00406f90 f   server.obj
 0001:00006040       ??__Emappenalty_cutoff@@YAXXZ 00407040 f   server.obj
 0001:000060f0       ??__Emappenalty_weight@@YAXXZ 004070f0 f   server.obj
 0001:000061a0       ??__Emodepenalty_weight@@YAXXZ 004071a0 f   server.obj
 0001:00006250       ??__Edumpsuggestions@@YAXXZ 00407250 f   server.obj
 0001:00006320       ??__Edemo_max_number@@YAXXZ 00407320 f   server.obj
 0001:000063d0       ??__Edemo_save@@YAXXZ      004073d0 f   server.obj
 0001:000064a0       ??__E__sdummy_demo_path@@YAXXZ 004074a0 f   server.obj
 0001:000064d0       ??__E__sdummy_demo_filenameformat@@YAXXZ 004074d0 f   server.obj
 0001:00006500       ??__E__sdummy_demo_timestampformat@@YAXXZ 00407500 f   server.obj
 0001:00006530       ??__Edemo_debug@@YAXXZ     00407530 f   server.obj
 0001:00006600       ??__Edemos@@YAXXZ          00407600 f   server.obj
 0001:000066b0       ??__Esem_demoworkerthread@@YAXXZ 004076b0 f   server.obj
 0001:000066e0       ??__Esdistrib@@YAXXZ       004076e0 f   server.obj
 0001:000066f0       ??__Eshuffle@@YAXXZ        004076f0 f   server.obj
 0001:00006700       ??__Egbans@@YAXXZ          00407700 f   server.obj
 0001:00006710       ??__Eservinfoauth_deferred@@YAXXZ 00407710 f   server.obj
 0001:00006740       ??__Eauth_verify_ip@@YAXXZ 00407740 f   server.obj
 0001:00006810       ??__Emandatory_auth@@YAXXZ 00407810 f   server.obj
 0001:000068e0       ??__Elogthreshold_console@@YAXXZ 004078e0 f   server.obj
 0001:000069b0       ??__Elogthreshold_syslog@@YAXXZ 004079b0 f   server.obj
 0001:00006a80       ??__Elogthreshold_file@@YAXXZ 00407a80 f   server.obj
 0001:00006b50       ??__Estat_mainlog_peaklevel@@YAXXZ 00407b50 f   server.obj
 0001:00006c00       ??__Estat_theadlog_peaklevel@@YAXXZ 00407c00 f   server.obj
 0001:00006cb0       ??__Emasterout@@YAXXZ      00407cb0 f   serverms.obj
 0001:00006cc0       ??__Emasterin@@YAXXZ       00407cc0 f   serverms.obj
 0001:00006cd0       ??__Ecerts@@YAXXZ          00407cd0 f   crypto.obj
 0001:00006ce0       ??__Ecertblacklist@@YAXXZ  00407ce0 f   crypto.obj
 0001:00006d10       ??__Ethreadlogsem@@YAXXZ   00407d10 f   log.obj
 0001:00006d40       ??__Ethreadlogfullsem@@YAXXZ 00407d40 f   log.obj
 0001:00006d70       ??__Emainlogsem@@YAXXZ     00407d70 f   log.obj
 0001:00006da0       ??__Epackagedirs@@YAXXZ    00407da0 f   stream.obj
 0001:00006db0       ??__Eoldthreads@@YAXXZ     00407db0 f   tools.obj
 0001:00006dc0       ??__Esem_oldthreads@@YAXXZ 00407dc0 f   tools.obj
 0001:00006df0       ??__Emainthreadid@@YAXXZ   00407df0 f   tools.obj
 0001:00006e00       ??__Egzbuf@@YAXXZ          00407e00 f   protocol1.obj
 0001:00007248       $LN33                      00408248     server.obj
 0001:00007e58       $LN136                     00408e58     server.obj
 0001:00007ef0       $LN135                     00408ef0     server.obj
 0001:0000d550       _initialize_environment    0040e550 f i libucrt:initialization.obj
 0001:0000d550       _initialize_global_state_isolation 0040e550 f i libucrt:initialization.obj
 0001:0000d550       _report_memory_leaks       0040e550 f i libucrt:initialization.obj
 0001:0000d550       _uninitialize_c            0040e550 f i libucrt:initialization.obj
 0001:0000d550       _uninitialize_global_state_isolation 0040e550 f i libucrt:initialization.obj
 0001:0000f590       _no_op_initialize          00410590 f i libucrt:wsetlocale.obj
 0001:000108bc       ?find_pe_section@@YAPAU_IMAGE_SECTION_HEADER@@QAEI@Z 004118bc f   LIBCMT:utility.obj
 0001:00010b47       ?pre_c_initialization@@YAHXZ 00411b47 f   LIBCMT:exe_main.obj
 0001:00010bf2       ?post_pgo_initialization@@YAHXZ 00411bf2 f   LIBCMT:exe_main.obj
 0001:00010bfa       ?pre_cpp_initialization@@YAXXZ 00411bfa f   LIBCMT:exe_main.obj
 0001:00010c0c       ?__scrt_common_main_seh@@YAHXZ 00411c0c f   LIBCMT:exe_main.obj
 0001:0001130b       ?is_managed_app@@YA_NXZ    0041230b f   libucrt:exit.obj
 0001:000113c0       $$000000                   004123c0     LIBCMT:sehprolg4.obj
 0001:00011405       ___get_entropy             00412405 f   LIBCMT:gs_support.obj
 0001:00011560       _ValidateLocalCookies      00412560 f   libvcruntime:chandler4.obj
 0001:00011730       $$000000                   00412730     libvcruntime:strstr.obj
 0001:00011773       strstr_sse_safeloop        00412773     libvcruntime:strstr.obj
 0001:0001179a       strstr_sse_search          0041279a     libvcruntime:strstr.obj
 0001:0001179a       strstr_sse_unsafe          0041279a     libvcruntime:strstr.obj
 0001:0001179e       strstr_sse_srchloop        0041279e     libvcruntime:strstr.obj
 0001:000117d4       strstr_sse_srchchar        004127d4     libvcruntime:strstr.obj
 0001:000117eb       strstr_sse_cmploop         004127eb     libvcruntime:strstr.obj
 0001:00011826       strstr_sse_cmpchars        00412826     libvcruntime:strstr.obj
 0001:0001182d       strstr_sse_cmpunsafe       0041282d     libvcruntime:strstr.obj
 0001:00011844       strstr_sse_match           00412844     libvcruntime:strstr.obj
 0001:00011849       strstr_sse_not_found       00412849     libvcruntime:strstr.obj
 0001:0001184b       strstr_sse_exit            0041284b     libvcruntime:strstr.obj
 0001:0001184f       strstr_sttni               0041284f     libvcruntime:strstr.obj
 0001:0001186b       strstr_sttni_setchars      0041286b     libvcruntime:strstr.obj
 0001:00011870       strstr_sttni_setloopchar   00412870     libvcruntime:strstr.obj
 0001:00011876       strstr_sttni_setloopnochar 00412876     libvcruntime:strstr.obj
 0001:0001188a       strstr_sttni_srchnext      0041288a     libvcruntime:strstr.obj
 0001:0001188d       strstr_sttni_srch          0041288d     libvcruntime:strstr.obj
 0001:00011891       strstr_sttni_srchloop      00412891     libvcruntime:strstr.obj
 0001:000118b0       strstr_sttni_srchxmm       004128b0     libvcruntime:strstr.obj
 0001:000118c3       strstr_sttni_srchcheck     004128c3     libvcruntime:strstr.obj
 0001:000118c7       strstr_sttni_cmploop       004128c7     libvcruntime:strstr.obj
 0001:000118ff       strstr_sttni_cmpchar       004128ff     libvcruntime:strstr.obj
 0001:0001191a       strstr_no_sse              0041291a     libvcruntime:strstr.obj
 0001:0001192d       findnext                   0041292d     libvcruntime:strstr.obj
 0001:00011940       loop_start                 00412940     libvcruntime:strstr.obj
 0001:00011945       in_loop                    00412945     libvcruntime:strstr.obj
 0001:0001194d       not_found                  0041294d     libvcruntime:strstr.obj
 0001:00011953       first_char_found           00412953     libvcruntime:strstr.obj
 0001:0001195c       two_first_chars_equal      0041295c     libvcruntime:strstr.obj
 0001:0001195f       compare_loop               0041295f     libvcruntime:strstr.obj
 0001:00011982       strchr_call                00412982     libvcruntime:strstr.obj
 0001:0001198e       match                      0041298e     libvcruntime:strstr.obj
 0001:00011995       empty_str2                 00412995     libvcruntime:strstr.obj
 0001:000119a0       $$000000                   004129a0     libvcruntime:strchr.obj
 0001:000119d3       strchr_sse_loop            004129d3     libvcruntime:strchr.obj
 0001:000119f7       strchr_sse_break           004129f7     libvcruntime:strchr.obj
 0001:00011a08       strchr_no_sse2             00412a08     libvcruntime:strchr.obj
 0001:00011a20       str_misaligned             00412a20     libvcruntime:strchr.obj
 0001:00011a35       main_loop_start            00412a35     libvcruntime:strchr.obj
 0001:00011a40       main_loop                  00412a40     libvcruntime:strchr.obj
 0001:00011a7c       retnull                    00412a7c     libvcruntime:strchr.obj
 0001:00011a7e       retnull_bx                 00412a7e     libvcruntime:strchr.obj
 0001:00011a82       found_bx                   00412a82     libvcruntime:strchr.obj
 0001:00011a87       chr_is_found               00412a87     libvcruntime:strchr.obj
 0001:00011aaf       byte_3                     00412aaf     libvcruntime:strchr.obj
 0001:00011ab6       byte_2                     00412ab6     libvcruntime:strchr.obj
 0001:00011abd       byte_1                     00412abd     libvcruntime:strchr.obj
 0001:00011ac4       byte_0                     00412ac4     libvcruntime:strchr.obj
 0001:00011ad0       $$000000                   00412ad0     libvcruntime:strrchr.obj
 0001:00011b0d       strrchr_sse_loop           00412b0d     libvcruntime:strrchr.obj
 0001:00011b3d       strrchr_sse_break          00412b3d     libvcruntime:strrchr.obj
 0001:00011b5d       strrchr_sttni              00412b5d     libvcruntime:strrchr.obj
 0001:00011b6f       strrchr_sttni_chars        00412b6f     libvcruntime:strrchr.obj
 0001:00011b84       strrchr_sttni_aligned      00412b84     libvcruntime:strrchr.obj
 0001:00011b88       strrchr_sttni_xmm          00412b88     libvcruntime:strrchr.obj
 0001:00011b9b       exit                       00412b9b     libvcruntime:strrchr.obj
 0001:00011b9e       strrchr_zero               00412b9e     libvcruntime:strrchr.obj
 0001:00011bc3       strchr_zero_loop           00412bc3     libvcruntime:strrchr.obj
 0001:00011bd7       strchr_zero_result         00412bd7     libvcruntime:strrchr.obj
 0001:00011bde       strrchr_no_sse             00412bde     libvcruntime:strrchr.obj
 0001:00011c01       returndi                   00412c01     libvcruntime:strrchr.obj
 0001:00011c03       toend                      00412c03     libvcruntime:strrchr.obj
 0001:00011c10       $$000000                   00412c10     libvcruntime:memset.obj
 0001:00011c55       XMMMov                     00412c55     libvcruntime:memset.obj
 0001:00011c90       LargeRangeBytes            00412c90     libvcruntime:memset.obj
 0001:00011ccd       XmmMovSmall                00412ccd     libvcruntime:memset.obj
 0001:00011ce0       XmmSmallLoop               00412ce0     libvcruntime:memset.obj
 0001:00011ce5       MidRangeBytes              00412ce5     libvcruntime:memset.obj
 0001:00011d01       XMMTrailingBytes           00412d01     libvcruntime:memset.obj
 0001:00011d15       SmallMov                   00412d15     libvcruntime:memset.obj
 0001:00011d1d       ByteLoop                   00412d1d     libvcruntime:memset.obj
 0001:00011d2b       DwordTest                  00412d2b     libvcruntime:memset.obj
 0001:00011d3b       QwordTest                  00412d3b     libvcruntime:memset.obj
 0001:00011d50       QwordLoop                  00412d50     libvcruntime:memset.obj
 0001:00011d63       toend                      00412d63     libvcruntime:memset.obj
 0001:00011d70       $$000000                   00412d70     libvcruntime:memcpy.obj
 0001:00011d70       $$000000                   00412d70     libvcruntime:memmove.obj
 0001:00011d90       CopyUp                     00412d90     libvcruntime:memcpy.obj
 0001:00011d90       CopyUp                     00412d90     libvcruntime:memmove.obj
 0001:00011db4       CopyUpLargeMov             00412db4     libvcruntime:memcpy.obj
 0001:00011db4       CopyUpLargeMov             00412db4     libvcruntime:memmove.obj
 0001:00011dc7       CopyUpSSE2Check            00412dc7     libvcruntime:memcpy.obj
 0001:00011dc7       CopyUpSSE2Check            00412dc7     libvcruntime:memmove.obj
 0001:00011de0       AtomChk                    00412de0     libvcruntime:memcpy.obj
 0001:00011de0       AtomChk                    00412de0     libvcruntime:memmove.obj
 0001:00011e06       PalignHead4                00412e06     libvcruntime:memcpy.obj
 0001:00011e06       PalignHead4                00412e06     libvcruntime:memmove.obj
 0001:00011e19       PalignHead8                00412e19     libvcruntime:memcpy.obj
 0001:00011e19       PalignHead8                00412e19     libvcruntime:memmove.obj
 0001:00011e30       PalignLoop                 00412e30     libvcruntime:memcpy.obj
 0001:00011e30       PalignLoop                 00412e30     libvcruntime:memmove.obj
 0001:00011e42       MovPalign12                00412e42     libvcruntime:memcpy.obj
 0001:00011e42       MovPalign12                00412e42     libvcruntime:memmove.obj
 0001:00011e4c       PalignLoop12               00412e4c     libvcruntime:memcpy.obj
 0001:00011e4c       PalignLoop12               00412e4c     libvcruntime:memmove.obj
 0001:00011e9d       MovPalign8                 00412e9d     libvcruntime:memcpy.obj
 0001:00011e9d       MovPalign8                 00412e9d     libvcruntime:memmove.obj
 0001:00011ea8       PalignLoop8                00412ea8     libvcruntime:memcpy.obj
 0001:00011ea8       PalignLoop8                00412ea8     libvcruntime:memmove.obj
 0001:00011ef6       MovPalign4                 00412ef6     libvcruntime:memcpy.obj
 0001:00011ef6       MovPalign4                 00412ef6     libvcruntime:memmove.obj
 0001:00011f00       PalignLoop4                00412f00     libvcruntime:memcpy.obj
 0001:00011f00       PalignLoop4                00412f00     libvcruntime:memmove.obj
 0001:00011f4c       PalignTail                 00412f4c     libvcruntime:memcpy.obj
 0001:00011f4c       PalignTail                 00412f4c     libvcruntime:memmove.obj
 0001:00011f64       PalignTail4                00412f64     libvcruntime:memcpy.obj
 0001:00011f64       PalignTail4                00412f64     libvcruntime:memmove.obj
 0001:00011f77       PalignTail8                00412f77     libvcruntime:memcpy.obj
 0001:00011f77       PalignTail8                00412f77     libvcruntime:memmove.obj
 0001:00011f8e       PalignTailLE3              00412f8e     libvcruntime:memcpy.obj
 0001:00011f8e       PalignTailLE3              00412f8e     libvcruntime:memmove.obj
 0001:00011f97       Dword_align                00412f97     libvcruntime:memcpy.obj
 0001:00011f97       Dword_align                00412f97     libvcruntime:memmove.obj
 0001:00011f9f       Dword_up_align_loop        00412f9f     libvcruntime:memcpy.obj
 0001:00011f9f       Dword_up_align_loop        00412f9f     libvcruntime:memmove.obj
 0001:00011fb2       Dword_align_Ok             00412fb2     libvcruntime:memcpy.obj
 0001:00011fb2       Dword_align_Ok             00412fb2     libvcruntime:memmove.obj
 0001:00011fcc       ByteCopyUp                 00412fcc     libvcruntime:memcpy.obj
 0001:00011fcc       ByteCopyUp                 00412fcc     libvcruntime:memmove.obj
 0001:00011fd4       TrailingUpVec              00412fd4     libvcruntime:memcpy.obj
 0001:00011fd4       TrailingUpVec              00412fd4     libvcruntime:memmove.obj
 0001:00011fe4       TrailingUp0                00412fe4     libvcruntime:memcpy.obj
 0001:00011fe4       TrailingUp0                00412fe4     libvcruntime:memmove.obj
 0001:00011fec       TrailingUp1                00412fec     libvcruntime:memcpy.obj
 0001:00011fec       TrailingUp1                00412fec     libvcruntime:memmove.obj
 0001:00011ff8       TrailingUp2                00412ff8     libvcruntime:memcpy.obj
 0001:00011ff8       TrailingUp2                00412ff8     libvcruntime:memmove.obj
 0001:0001200c       TrailingUp3                0041300c     libvcruntime:memcpy.obj
 0001:0001200c       TrailingUp3                0041300c     libvcruntime:memmove.obj
 0001:00012024       CopyDown                   00413024     libvcruntime:memcpy.obj
 0001:00012024       CopyDown                   00413024     libvcruntime:memmove.obj
 0001:00012049       CopyDownNotAligned         00413049     libvcruntime:memcpy.obj
 0001:00012049       CopyDownNotAligned         00413049     libvcruntime:memmove.obj
 0001:00012050       CopyDownAlignLoop          00413050     libvcruntime:memcpy.obj
 0001:00012050       CopyDownAlignLoop          00413050     libvcruntime:memmove.obj
 0001:0001205d       CopyDownAligned            0041305d     libvcruntime:memcpy.obj
 0001:0001205d       CopyDownAligned            0041305d     libvcruntime:memmove.obj
 0001:00012080       TrailingDownVec            00413080     libvcruntime:memcpy.obj
 0001:00012080       TrailingDownVec            00413080     libvcruntime:memmove.obj
 0001:00012090       TrailingDown0              00413090     libvcruntime:memcpy.obj
 0001:00012090       TrailingDown0              00413090     libvcruntime:memmove.obj
 0001:00012098       TrailingDown1              00413098     libvcruntime:memcpy.obj
 0001:00012098       TrailingDown1              00413098     libvcruntime:memmove.obj
 0001:000120a8       TrailingDown2              004130a8     libvcruntime:memcpy.obj
 0001:000120a8       TrailingDown2              004130a8     libvcruntime:memmove.obj
 0001:000120bc       TrailingDown3              004130bc     libvcruntime:memcpy.obj
 0001:000120bc       TrailingDown3              004130bc     libvcruntime:memmove.obj
 0001:000120d5       XmmMovLargeAlignTest       004130d5     libvcruntime:memcpy.obj
 0001:000120d5       XmmMovLargeAlignTest       004130d5     libvcruntime:memmove.obj
 0001:000120dd       XmmMovAlignLoop            004130dd     libvcruntime:memcpy.obj
 0001:000120dd       XmmMovAlignLoop            004130dd     libvcruntime:memmove.obj
 0001:000120ec       XmmMovLargeLoop            004130ec     libvcruntime:memcpy.obj
 0001:000120ec       XmmMovLargeLoop            004130ec     libvcruntime:memmove.obj
 0001:0001215c       XmmMovSmallTest            0041315c     libvcruntime:memcpy.obj
 0001:0001215c       XmmMovSmallTest            0041315c     libvcruntime:memmove.obj
 0001:00012161       XmmMovSmallLoop            00413161     libvcruntime:memcpy.obj
 0001:00012161       XmmMovSmallLoop            00413161     libvcruntime:memmove.obj
 0001:00012184       CopyDownSmall              00413184     libvcruntime:memcpy.obj
 0001:00012184       CopyDownSmall              00413184     libvcruntime:memmove.obj
 0001:0001218c       CopyDownDwordLoop          0041318c     libvcruntime:memcpy.obj
 0001:0001218c       CopyDownDwordLoop          0041318c     libvcruntime:memmove.obj
 0001:000121a1       CopyDownByteTest           004131a1     libvcruntime:memcpy.obj
 0001:000121a1       CopyDownByteTest           004131a1     libvcruntime:memmove.obj
 0001:000121a5       CopyDownByteLoop           004131a5     libvcruntime:memcpy.obj
 0001:000121a5       CopyDownByteLoop           004131a5     libvcruntime:memmove.obj
 0001:000121b4       CopyDownReturn             004131b4     libvcruntime:memcpy.obj
 0001:000121b4       CopyDownReturn             004131b4     libvcruntime:memmove.obj
 0001:000121c0       XmmCopy                    004131c0     libvcruntime:memcpy.obj
 0001:000121c0       XmmCopy                    004131c0     libvcruntime:memmove.obj
 0001:000121cd       XmmCopyAligned             004131cd     libvcruntime:memcpy.obj
 0001:000121cd       XmmCopyAligned             004131cd     libvcruntime:memmove.obj
 0001:000121e0       XmmCopyLargeLoop           004131e0     libvcruntime:memcpy.obj
 0001:000121e0       XmmCopyLargeLoop           004131e0     libvcruntime:memmove.obj
 0001:0001223d       XmmCopySmallTest           0041323d     libvcruntime:memcpy.obj
 0001:0001223d       XmmCopySmallTest           0041323d     libvcruntime:memmove.obj
 0001:00012250       XmmCopySmallLoop           00413250     libvcruntime:memcpy.obj
 0001:00012250       XmmCopySmallLoop           00413250     libvcruntime:memmove.obj
 0001:0001226b       CopyUpDwordMov             0041326b     libvcruntime:memcpy.obj
 0001:0001226b       CopyUpDwordMov             0041326b     libvcruntime:memmove.obj
 0001:00012270       CopyUpDwordTest            00413270     libvcruntime:memcpy.obj
 0001:00012270       CopyUpDwordTest            00413270     libvcruntime:memmove.obj
 0001:00012277       CopyUpDwordLoop            00413277     libvcruntime:memcpy.obj
 0001:00012277       CopyUpDwordLoop            00413277     libvcruntime:memmove.obj
 0001:00012286       CopyUpByteTest             00413286     libvcruntime:memcpy.obj
 0001:00012286       CopyUpByteTest             00413286     libvcruntime:memmove.obj
 0001:0001228d       CopyUpByteLoop             0041328d     libvcruntime:memcpy.obj
 0001:0001228d       CopyUpByteLoop             0041328d     libvcruntime:memmove.obj
 0001:000122a0       CopyUpReturn               004132a0     libvcruntime:memcpy.obj
 0001:000122a0       CopyUpReturn               004132a0     libvcruntime:memmove.obj
 0001:000122b0       XmmCopyUnaligned           004132b0     libvcruntime:memcpy.obj
 0001:000122b0       XmmCopyUnaligned           004132b0     libvcruntime:memmove.obj
 0001:000122c3       XmmAlignByte               004132c3     libvcruntime:memcpy.obj
 0001:000122c3       XmmAlignByte               004132c3     libvcruntime:memmove.obj
 0001:000122cc       XmmAlignDwordTest          004132cc     libvcruntime:memcpy.obj
 0001:000122cc       XmmAlignDwordTest          004132cc     libvcruntime:memmove.obj
 0001:000122d1       XmmAlignDwordLoop          004132d1     libvcruntime:memcpy.obj
 0001:000122d1       XmmAlignDwordLoop          004132d1     libvcruntime:memmove.obj
 0001:000122de       XmmAlignAdjustCnt          004132de     libvcruntime:memcpy.obj
 0001:000122de       XmmAlignAdjustCnt          004132de     libvcruntime:memmove.obj
 0001:000124b6       ?_FilterSetCurrentException@@YAKPAU_EXCEPTION_POINTERS@@E@Z 004134b6 f   libvcruntime:ehhelpers.obj
 0001:00012610       $$000000                   00413610     libvcruntime:exsup4.obj
 0001:00012642       _lu_top                    00413642     libvcruntime:exsup4.obj
 0001:000126a1       _lu_done                   004136a1     libvcruntime:exsup4.obj
 0001:000126b0       $$000000                   004136b0     libvcruntime:exsup4.obj
 0001:000126b0       __unwind_handler4          004136b0 f   libvcruntime:exsup4.obj
 0001:00012700       $$000000                   00413700     libvcruntime:exsup4.obj
 0001:00012720       $$000000                   00413720     libvcruntime:exsup4.obj
 0001:00012740       $$000000                   00413740     libvcruntime:exsup4.obj
 0001:00012755       ReturnPoint                00413755     libvcruntime:exsup4.obj
 0001:00012760       $$000000                   00413760     libvcruntime:exsup4.obj
 0001:00012920       $$000000                   00413920     libvcruntime:exsup.obj
 0001:00012930       $$000000                   00413930     libvcruntime:exsup.obj
 0001:0001293b       __NLG_Go                   0041393b     libvcruntime:exsup.obj
 0001:00012950       $$000000                   00413950     libvcruntime:exsup.obj
 0001:00012953       ?try_get_function@@YAPAXW4function_id@?A0x14174aea@@QBDQBW4module_id@2@2@Z 00413953 f   libvcruntime:winapi_downlevel.obj
 0001:000129f3       ?try_load_library_from_system_directory@@YAPAUHINSTANCE__@@QB_W@Z 004139f3 f   libvcruntime:winapi_downlevel.obj
 0001:00012f26       ??$BuildCatchObjectHelperInternal@V__FrameHandler3@@@@YAHPAUEHExceptionRecord@@PAXPBU_s_HandlerType@@PBU_s_CatchableType@@@Z 00413f26 f   libvcruntime:frame.obj
 0001:00013064       ??$BuildCatchObjectInternal@V__FrameHandler3@@@@YAXPAUEHExceptionRecord@@PAXPBU_s_HandlerType@@PBU_s_CatchableType@@@Z 00414064 f   libvcruntime:frame.obj
 0001:000130fd       ??$CatchIt@V__FrameHandler3@@@@YAXPAUEHExceptionRecord@@PAUEHRegistrationNode@@PAU_CONTEXT@@PAXPBU_s_FuncInfo@@PBU_s_HandlerType@@PBU_s_CatchableType@@PBU_s_TryBlockMapEntry@@H1EE@Z 004140fd f   libvcruntime:frame.obj
 0001:0001317d       ??$FindHandler@V__FrameHandler3@@@@YAXPAUEHExceptionRecord@@PAUEHRegistrationNode@@PAU_CONTEXT@@PAXPBU_s_FuncInfo@@EH1@Z 0041417d f   libvcruntime:frame.obj
 0001:00013522       ??$FindHandlerForForeignException@V__FrameHandler3@@@@YAXPAUEHExceptionRecord@@PAUEHRegistrationNode@@PAU_CONTEXT@@PAXPBU_s_FuncInfo@@HH1@Z 00414522 f   libvcruntime:frame.obj
 0001:00013843       ?CallCatchBlock@@YAPAXPAUEHExceptionRecord@@PAUEHRegistrationNode@@PAU_CONTEXT@@PBU_s_FuncInfo@@PAXHK@Z 00414843 f   libvcruntime:frame.obj
 0001:00013a12       ?CallUnexpected@@YAXPBU_s_ESTypeList@@@Z 00414a12 f   libvcruntime:frame.obj
 0001:00013a32       __catch$?CallUnexpected@@YAXPBU_s_ESTypeList@@@Z$0 00414a32 f   libvcruntime:frame.obj
 0001:00013a51       ?ExFilterRethrow@@YAHPAU_EXCEPTION_POINTERS@@@Z 00414a51 f   libvcruntime:frame.obj
 0001:00013b9b       ?IsInExceptionSpec@@YAEPAUEHExceptionRecord@@PBU_s_ESTypeList@@@Z 00414b9b f   libvcruntime:frame.obj
 0001:00013c70       $$000000                   00414c70     libvcruntime:lowhelpr.obj
 0001:00013caf       _NLG_Continue              00414caf     libvcruntime:lowhelpr.obj
 0001:00013d10       ??$?RV<lambda_03b1d95aef87969028cfba75ccab2455>@@AAV<lambda_6e4b09c48022b2350581041d5f6b0c4c>@@V<lambda_22bdf7517842c4b3e53723af5aa32b9e>@@@?$__crt_seh_guarded_call@X@@QAEX$$QAV<lambda_03b1d95aef87969028cfba75ccab2455>@@AAV<lambda_6e4b09c48022b2350581041d5f6b0c4c>@@$$QAV<lambda_22bdf7517842c4b3e53723af5aa32b9e>@@@Z 00414d10 f   libucrt:exit.obj
 0001:00013d97       ??R<lambda_6e4b09c48022b2350581041d5f6b0c4c>@@QBE@XZ 00414d97 f   libucrt:exit.obj
 0001:00013e7f       ?common_exit@@YAXHW4_crt_exit_cleanup_mode@@W4_crt_exit_return_mode@@@Z 00414e7f f   libucrt:exit.obj
 0001:00013f16       ?exit_or_terminate_process@@YAXI@Z 00414f16 f   libucrt:exit.obj
 0001:00013f47       ?should_call_terminate_process@@YA_NXZ 00414f47 f   libucrt:exit.obj
 0001:00013f60       ?try_cor_exit_process@@YAXI@Z 00414f60 f   libucrt:exit.obj
 0001:00014061       ??$?RV<lambda_f5952838e36297a1e2e9d6c748429792>@@AAV<lambda_2116bde18c9e5f34230805ea4a4660ed>@@V<lambda_3c7107de1cc98bf330a3031f42c322a3>@@@?$__crt_seh_guarded_call@PAD@@QAEPAD$$QAV<lambda_f5952838e36297a1e2e9d6c748429792>@@AAV<lambda_2116bde18c9e5f34230805ea4a4660ed>@@$$QAV<lambda_3c7107de1cc98bf330a3031f42c322a3>@@@Z 00415061 f   libucrt:setlocale.obj
 0001:000140bc       ??R<lambda_2116bde18c9e5f34230805ea4a4660ed>@@QBEPADXZ 004150bc f   libucrt:setlocale.obj
 0001:0001421b       _call_wsetlocale           0041521b f   libucrt:setlocale.obj
 0001:000149d2       ??$common_fsopen@D@@YAPAU_iobuf@@QBD0H@Z 004159d2 f   libucrt:fopen.obj
 0001:00014c70       ?_fclose_internal@@YAHQAU_iobuf@@AAV__crt_cached_ptd_host@@@Z 00415c70 f   libucrt:fclose.obj
 0001:00014d07       ?_fclose_nolock_internal@@YAHQAU_iobuf@@AAV__crt_cached_ptd_host@@@Z 00415d07 f   libucrt:fclose.obj
 0001:00015020       $$000000                   00416020     libucrt:strcspn.obj
 0001:00015066       ??$?RV<lambda_9fd0146d8887c94a05b904783845dbe3>@@AAV<lambda_6adc7e3a23ba0bcf2ed85f63d6332a84>@@V<lambda_263a6ae15fc668da2ea63694c172d2eb>@@@?$__crt_seh_guarded_call@H@@QAEH$$QAV<lambda_9fd0146d8887c94a05b904783845dbe3>@@AAV<lambda_6adc7e3a23ba0bcf2ed85f63d6332a84>@@$$QAV<lambda_263a6ae15fc668da2ea63694c172d2eb>@@@Z 00416066 f   libucrt:puts.obj
 0001:000150c1       ??R<lambda_6adc7e3a23ba0bcf2ed85f63d6332a84>@@QBEHXZ 004160c1 f   libucrt:puts.obj
 0001:00015132       ?_puts_internal@@YAHQBDAAV__crt_cached_ptd_host@@@Z 00416132 f   libucrt:puts.obj
 0001:00015272       ??$?RV<lambda_62491a2101a2aba6cc4a769149c84f1f>@@AAV<lambda_826c27fce7726908515bbc79a5266961>@@V<lambda_4e64bbd54b50a7b070e3ea8d795375b6>@@@?$__crt_seh_guarded_call@H@@QAEH$$QAV<lambda_62491a2101a2aba6cc4a769149c84f1f>@@AAV<lambda_826c27fce7726908515bbc79a5266961>@@$$QAV<lambda_4e64bbd54b50a7b070e3ea8d795375b6>@@@Z 00416272 f   libucrt:output.obj
 0001:000152cd       ??$common_vsprintf@Vstandard_base@__crt_stdio_output@@D@@YAH_KQADIQBDAAV__crt_cached_ptd_host@@1@Z 004162cd f   libucrt:output.obj
 0001:00015fe3       ??R<lambda_826c27fce7726908515bbc79a5266961>@@QBEHXZ 00416fe3 f   libucrt:output.obj
 0001:0001647e       $LN121                     0041747e     libucrt:output.obj
 0001:00016752       $LN130                     00417752     libucrt:output.obj
 0001:000170f9       $LN18                      004180f9     libucrt:output.obj
 0001:0001710d       $LN17                      0041810d     libucrt:output.obj
 0001:00017de0       $$000000                   00418de0     libucrt:strncpy.obj
 0001:00017f10       $$000000                   00418f10     libucrt:strncmp.obj
 0001:00017f88       ??$?RV<lambda_76055cf4b68c1f980da8b7496a3ae623>@@AAV<lambda_26974eb511f701c600fccfa2a97a8e1b>@@V<lambda_0062726809bb3c529c0733aa37379daf>@@@?$__crt_seh_guarded_call@I@@QAEI$$QAV<lambda_76055cf4b68c1f980da8b7496a3ae623>@@AAV<lambda_26974eb511f701c600fccfa2a97a8e1b>@@$$QAV<lambda_0062726809bb3c529c0733aa37379daf>@@@Z 00418f88 f   libucrt:fwrite.obj
 0001:00017fe3       ??R<lambda_26974eb511f701c600fccfa2a97a8e1b>@@QBEIXZ 00418fe3 f   libucrt:fwrite.obj
 0001:00019310       $$000000                   0041a310     libucrt:strspn.obj
 0001:000193e9       ??$common_vsscanf@D@@YAH_KQBDI1QAU__crt_locale_pointers@@QAD@Z 0041a3e9 f   libucrt:input.obj
 0001:00019e34       $LN32                      0041ae34     libucrt:input.obj
 0001:00019f58       $LN30                      0041af58     libucrt:input.obj
 0001:0001d2f0       $LN16                      0041e2f0     libucrt:input.obj
 0001:0001d2fc       $LN15                      0041e2fc     libucrt:input.obj
 0001:0001d405       $LN15                      0041e405     libucrt:input.obj
 0001:0001db8e       $LN17                      0041eb8e     libucrt:input.obj
 0001:0001dba2       $LN16                      0041eba2     libucrt:input.obj
 0001:0001dd72       _memcpy_s                  0041ed72 f   libucrt:getcwd.obj
 0001:0001dd72       _memcpy_s                  0041ed72 f   libucrt:cfout.obj
 0001:0001dd72       _memcpy_s                  0041ed72 f   libucrt:mbctype.obj
 0001:0001dd72       _memcpy_s                  0041ed72 f   libucrt:fread.obj
 0001:0001dd72       _memcpy_s                  0041ed72 f   libucrt:input.obj
 0001:0001ddf3       ??$?RV<lambda_cbab9ec6f41b0180b23cc171c22676b0>@@AAV<lambda_44731a7d0e6d81c3e6aa82d741081786>@@V<lambda_4b292cb8dd18144e164572427af410ab>@@@?$__crt_seh_guarded_call@P6AXH@Z@@QAEP6AXH@Z$$QAV<lambda_cbab9ec6f41b0180b23cc171c22676b0>@@AAV<lambda_44731a7d0e6d81c3e6aa82d741081786>@@$$QAV<lambda_4b292cb8dd18144e164572427af410ab>@@@Z 0041edf3 f   libucrt:signal.obj
 0001:0001de5b       ?ctrlevent_capture@@YGHK@Z 0041ee5b f   libucrt:signal.obj
 0001:0001df09       ?get_global_action_nolock@@YAPAP6AXH@ZH@Z 0041ef09 f   libucrt:signal.obj
 0001:0001df4b       ?siglookup@@YAPAU__crt_signal_action_t@@HQAU1@@Z 0041ef4b f   libucrt:signal.obj
 0001:0001df73       ?signal_failed@@YAP6AXH@ZH@Z 0041ef73 f   libucrt:signal.obj
 0001:0001e3a0       ??$common_ftell@J@@YAJV__crt_stdio_stream@@AAV__crt_cached_ptd_host@@@Z 0041f3a0 f   libucrt:ftell.obj
 0001:0001e420       ??$common_ftell_nolock@J@@YAJV__crt_stdio_stream@@AAV__crt_cached_ptd_host@@@Z 0041f420 f   libucrt:ftell.obj
 0001:0001e452       ??$common_ftell_nolock@_J@@YA_JV__crt_stdio_stream@@AAV__crt_cached_ptd_host@@@Z 0041f452 f   libucrt:ftell.obj
 0001:0001e5f3       ?common_ftell_read_mode_nolock@@YA_JV__crt_stdio_stream@@_J1AAV__crt_cached_ptd_host@@@Z 0041f5f3 f   libucrt:ftell.obj
 0001:0001e7be       ?common_ftell_translated_utf8_nolock@@YA_JV__crt_stdio_stream@@_JAAV__crt_cached_ptd_host@@@Z 0041f7be f   libucrt:ftell.obj
 0001:0001e969       ?count_newline_bytes@@YA_JQBD0W4__crt_lowio_text_mode@@@Z 0041f969 f   libucrt:ftell.obj
 0001:0001e9f5       ?_fputc_internal@@YAHHQAU_iobuf@@AAV__crt_cached_ptd_host@@@Z 0041f9f5 f   libucrt:fputc.obj
 0001:0001eb90       $$000000                   0041fb90     libucrt:strpbrk.obj
 0001:0001ebd0       ??$?RV<lambda_2866be3712abc81a800a822484c830d8>@@AAV<lambda_39ca0ed439415581b5b15c265174cece>@@V<lambda_2b24c74d71094a6cd0cb82e44167d71b>@@@?$__crt_seh_guarded_call@X@@QAEX$$QAV<lambda_2866be3712abc81a800a822484c830d8>@@AAV<lambda_39ca0ed439415581b5b15c265174cece>@@$$QAV<lambda_2b24c74d71094a6cd0cb82e44167d71b>@@@Z 0041fbd0 f   libucrt:fflush.obj
 0001:0001ec5c       ??$?RV<lambda_2cc53f568c5a2bb6f192f930a45d44ea>@@AAV<lambda_ab61a845afdef5b7c387490eaf3616ee>@@V<lambda_c2ffc0b7726aa6be21d5f0026187e748>@@@?$__crt_seh_guarded_call@X@@QAEX$$QAV<lambda_2cc53f568c5a2bb6f192f930a45d44ea>@@AAV<lambda_ab61a845afdef5b7c387490eaf3616ee>@@$$QAV<lambda_c2ffc0b7726aa6be21d5f0026187e748>@@@Z 0041fc5c f   libucrt:fflush.obj
 0001:0001ed08       ??$?RV<lambda_6d20deecaf4856105ebacbad442d1079>@@AAV<lambda_9a32fed5bf61b6b509b2d3f6003082a1>@@V<lambda_63ea2239ed67c638ddbae41947fdf875>@@@?$__crt_seh_guarded_call@H@@QAEH$$QAV<lambda_6d20deecaf4856105ebacbad442d1079>@@AAV<lambda_9a32fed5bf61b6b509b2d3f6003082a1>@@$$QAV<lambda_63ea2239ed67c638ddbae41947fdf875>@@@Z 0041fd08 f   libucrt:fflush.obj
 0001:0001ed68       ?common_flush_all@@YAH_N@Z 0041fd68 f   libucrt:fflush.obj
 0001:0001edb5       ?common_flush_all_should_try_to_flush_stream@@YA_NV__crt_stdio_stream@@QAH@Z 0041fdb5 f   libucrt:fflush.obj
 0001:0001ede6       ?is_stream_flushable_or_commitable@@YA_NJ@Z 0041fde6 f   libucrt:fflush.obj
 0001:0001efad       ?common_fseek@@YAHV__crt_stdio_stream@@_JHAAV__crt_cached_ptd_host@@@Z 0041ffad f   libucrt:fseek.obj
 0001:0001f057       ?common_fseek_binary_mode_read_only_fast_track_nolock@@YA_NV__crt_stdio_stream@@_JH@Z 00420057 f   libucrt:fseek.obj
 0001:0001f130       ?common_fseek_nolock@@YAHV__crt_stdio_stream@@_JHAAV__crt_cached_ptd_host@@@Z 00420130 f   libucrt:fseek.obj
 0001:0001f3b6       ??$common_fgets@D@@YAPADQADHV__crt_stdio_stream@@@Z 004203b6 f   libucrt:fgets.obj
 0001:0001f541       ??$?RV<lambda_54fa853c3b765c2b4b1410f472469e5b>@@AAV<lambda_4a956f1bc1068419e4c4ed83e6976b3a>@@V<lambda_10bbaeaae921572e76cb803f49107517>@@@?$__crt_seh_guarded_call@H@@QAEH$$QAV<lambda_54fa853c3b765c2b4b1410f472469e5b>@@AAV<lambda_4a956f1bc1068419e4c4ed83e6976b3a>@@$$QAV<lambda_10bbaeaae921572e76cb803f49107517>@@@Z 00420541 f   libucrt:fputs.obj
 0001:0001f59c       ??R<lambda_4a956f1bc1068419e4c4ed83e6976b3a>@@QBEHXZ 0042059c f   libucrt:fputs.obj
 0001:0001f5f4       ?_fputs_internal@@YAHQBDQAU_iobuf@@AAV__crt_cached_ptd_host@@@Z 004205f4 f   libucrt:fputs.obj
 0001:0001f9f3       ??$thread_start@P6GIPAX@Z$00@@YGKQAX@Z 004209f3 f   libucrt:thread.obj
 0001:0001fa71       ??1?$__crt_unique_heap_ptr@U__acrt_thread_parameter@@Uthread_parameter_free_policy@?A0x4e93fcdd@@@@QAE@XZ 00420a71 f   libucrt:thread.obj
 0001:0001faa8       ?common_end_thread@@YAXI@Z 00420aa8 f   libucrt:thread.obj
 0001:0001faff       ?create_thread_parameter@@YAPAU__acrt_thread_parameter@@QAX0@Z 00420aff f   libucrt:thread.obj
 0001:0001feb5       ??$common_gmtime_s@_J@@YAHQAUtm@@QB_J@Z 00420eb5 f   libucrt:gmtime.obj
 0001:0001ffff       ?compute_year@@YAHAA_JAA_N@Z 00420fff f   libucrt:gmtime.obj
 0001:00020128       ??$common_localtime_s@_J@@YAHQAUtm@@QB_J@Z 00421128 f   libucrt:localtime.obj
 0001:000203e0       ??$common_system@D@@YAHQBD@Z 004213e0 f   libucrt:system.obj
 0001:00020877       ??$common_getdcwd@D@@YAPADHPADHHQBDH@Z 00421877 f   libucrt:getcwd.obj
 0001:00020a67       ?is_valid_drive@@YAHI@Z    00421a67 f   libucrt:getcwd.obj
 0001:00020b02       ?_perror_internal@@YAXQBDAAV__crt_cached_ptd_host@@@Z 00421b02 f   libucrt:perror.obj
 0001:00020e7a       ??$common_configure_argv@D@@YAHW4_crt_argv_mode@@@Z 00421e7a f   libucrt:argv_parsing.obj
 0001:00020fb7       ??$parse_command_line@D@@YAXPADPAPAD0PAI2@Z 00421fb7 f   libucrt:argv_parsing.obj
 0001:00021185       ??$common_get_or_create_environment_nolock@D@@YAPAPADXZ 00422185 f   libucrt:environment_initialization.obj
 0001:000211b1       ??$common_get_or_create_environment_nolock@_W@@YAPAPA_WXZ 004221b1 f   libucrt:environment_initialization.obj
 0001:000211dd       ??$common_initialize_environment_nolock@D@@YAHXZ 004221dd f   libucrt:environment_initialization.obj
 0001:00021237       ??$common_initialize_environment_nolock@_W@@YAHXZ 00422237 f   libucrt:environment_initialization.obj
 0001:0002128c       ??$create_environment@D@@YAQAPADQAD@Z 0042228c f   libucrt:environment_initialization.obj
 0001:0002136e       ??$create_environment@_W@@YAQAPA_WQA_W@Z 0042236e f   libucrt:environment_initialization.obj
 0001:0002148c       ??$free_environment@D@@YAXQAPAD@Z 0042248c f   libucrt:environment_initialization.obj
 0001:0002148c       ??$free_environment@_W@@YAXQAPA_W@Z 0042248c f   libucrt:environment_initialization.obj
 0001:000214bb       ??$initialize_environment_by_cloning_nolock@D@@YAHXZ 004224bb f   libucrt:environment_initialization.obj
 0001:0002153e       ??$initialize_environment_by_cloning_nolock@_W@@YAHXZ 0042253e f   libucrt:environment_initialization.obj
 0001:000215bf       ??$uninitialize_environment_internal@D@@YAXAAPAPAD@Z 004225bf f   libucrt:environment_initialization.obj
 0001:000215da       ??$uninitialize_environment_internal@_W@@YAXAAPAPA_W@Z 004225da f   libucrt:environment_initialization.obj
 0001:00021669       ??$?RV<lambda_69a2805e680e0e292e8ba93315fe43a8>@@AAV<lambda_f03950bc5685219e0bcd2087efbe011e>@@V<lambda_03fcd07e894ec930e3f35da366ca99d6>@@@?$__crt_seh_guarded_call@H@@QAEH$$QAV<lambda_69a2805e680e0e292e8ba93315fe43a8>@@AAV<lambda_f03950bc5685219e0bcd2087efbe011e>@@$$QAV<lambda_03fcd07e894ec930e3f35da366ca99d6>@@@Z 00422669 f   libucrt:onexit.obj
 0001:000216c4       ??$?RV<lambda_8e746cf0007f6ed984d6f78af1fec997>@@AAV<lambda_22ebabd17bc4fa466a2aca6d8deb888d>@@V<lambda_18ed0c0b38a6dc0daf1e7ac6d6adf05e>@@@?$__crt_seh_guarded_call@H@@QAEH$$QAV<lambda_8e746cf0007f6ed984d6f78af1fec997>@@AAV<lambda_22ebabd17bc4fa466a2aca6d8deb888d>@@$$QAV<lambda_18ed0c0b38a6dc0daf1e7ac6d6adf05e>@@@Z 004226c4 f   libucrt:onexit.obj
 0001:0002171f       ??R<lambda_22ebabd17bc4fa466a2aca6d8deb888d>@@QBE@XZ 0042271f f   libucrt:onexit.obj
 0001:00021821       ??R<lambda_f03950bc5685219e0bcd2087efbe011e>@@QBE@XZ 00422821 f   libucrt:onexit.obj
 0001:000219ab       _initialize_global_variables 004229ab f   libucrt:initialization.obj
 0001:000219b8       _initialize_c              004229b8 f   libucrt:initialization.obj
 0001:000219d2       _uninitialize_environment  004229d2 f   libucrt:initialization.obj
 0001:000219da       _initialize_pointers       004229da f   libucrt:initialization.obj
 0001:00021a08       _uninitialize_vcruntime    00422a08 f   libucrt:initialization.obj
 0001:00021a11       _uninitialize_allocated_memory 00422a11 f   libucrt:initialization.obj
 0001:00021a28       _uninitialize_allocated_io_buffers 00422a28 f   libucrt:initialization.obj
 0001:00021a78       ??R<lambda_af42a3ee9806e9a7305d451646e05244>@@QBE@AAPAU__crt_multibyte_data@@@Z 00422a78 f   libucrt:initialization.obj
 0001:00021d2b       ??$?RV<lambda_4fdada1b837b2abbf20876fac97688ad>@@AAV<lambda_b57350f2640456a0859d250846f69caf>@@V<lambda_eed5e4f92b5b7d55fa22c48c484aaa54>@@@?$__crt_seh_guarded_call@X@@QAEX$$QAV<lambda_4fdada1b837b2abbf20876fac97688ad>@@AAV<lambda_b57350f2640456a0859d250846f69caf>@@$$QAV<lambda_eed5e4f92b5b7d55fa22c48c484aaa54>@@@Z 00422d2b f   libucrt:wsetlocale.obj
 0001:00021d78       ??$?RV<lambda_ac03c5d59bd18b09cb88b28331f6bfed>@@AAV<lambda_2a444430fde8c29194d880d93eed5e8f>@@AAV<lambda_02db5278e8aef8b5e4976579d73f5304>@@@?$__crt_seh_guarded_call@X@@QAEX$$QAV<lambda_ac03c5d59bd18b09cb88b28331f6bfed>@@AAV<lambda_2a444430fde8c29194d880d93eed5e8f>@@AAV<lambda_02db5278e8aef8b5e4976579d73f5304>@@@Z 00422d78 f   libucrt:wsetlocale.obj
 0001:00021dbd       ??$?RV<lambda_e5124f882df8998aaf41531e079ba474>@@AAV<lambda_3e16ef9562a7dcce91392c22ab16ea36>@@V<lambda_e25ca0880e6ef98be67edffd8c599615>@@@?$__crt_seh_guarded_call@X@@QAEX$$QAV<lambda_e5124f882df8998aaf41531e079ba474>@@AAV<lambda_3e16ef9562a7dcce91392c22ab16ea36>@@$$QAV<lambda_e25ca0880e6ef98be67edffd8c599615>@@@Z 00422dbd f   libucrt:wsetlocale.obj
 0001:00021ea5       ??R<lambda_2a444430fde8c29194d880d93eed5e8f>@@QBE@XZ 00422ea5 f   libucrt:wsetlocale.obj
 0001:00021f0f       ??R<lambda_b57350f2640456a0859d250846f69caf>@@QBE@XZ 00422f0f f   libucrt:wsetlocale.obj
 0001:00022327       __copytlocinfo_nolock      00423327 f   libucrt:wsetlocale.obj
 0001:00022356       __expandlocale             00423356 f   libucrt:wsetlocale.obj
 0001:000227e0       __wsetlocale_get_all       004237e0 f   libucrt:wsetlocale.obj
 0001:0002297b       __wsetlocale_nolock        0042397b f   libucrt:wsetlocale.obj
 0001:00022c6b       __wsetlocale_set_cat       00423c6b f   libucrt:wsetlocale.obj
 0001:0002302b       _get_default_code_page     0042402b f   libucrt:wsetlocale.obj
 0001:0002305a       _parse_bcp47               0042405a f   libucrt:wsetlocale.obj
 0001:00023234       _parse_bcp47_code_page     00424234 f   libucrt:wsetlocale.obj
 0001:00023273       _parse_bcp47_language      00424273 f   libucrt:wsetlocale.obj
 0001:000232e5       _parse_bcp47_region        004242e5 f   libucrt:wsetlocale.obj
 0001:000233a3       _parse_bcp47_script        004243a3 f   libucrt:wsetlocale.obj
 0001:00023413       _string_is_alpha           00424413 f   libucrt:wsetlocale.obj
 0001:00023a3c       ?_mbstowcs_internal@@YAHPAIPA_WIPBDIAAV__crt_cached_ptd_host@@@Z 00424a3c f   libucrt:mbstowcs.obj
 0001:00023b18       ?_mbstowcs_l_helper@@YAIPA_WPBDIAAV__crt_cached_ptd_host@@@Z 00424b18 f   libucrt:mbstowcs.obj
 0001:00023d1c       ?_wcstombs_internal@@YAHPAIPADIPB_WIAAV__crt_cached_ptd_host@@@Z 00424d1c f   libucrt:wcstombs.obj
 0001:00023df1       ?_wcstombs_l_helper@@YAIPADPB_WIAAV__crt_cached_ptd_host@@@Z 00424df1 f   libucrt:wcstombs.obj
 0001:000240d6       ??$?RV<lambda_15ade71b0218206bbe3333a0c9b79046>@@AAV<lambda_da44e0f8b0f19ba52fefafb335991732>@@V<lambda_207f2d024fc103971653565357d6cd41>@@@?$__crt_seh_guarded_call@X@@QAEX$$QAV<lambda_15ade71b0218206bbe3333a0c9b79046>@@AAV<lambda_da44e0f8b0f19ba52fefafb335991732>@@$$QAV<lambda_207f2d024fc103971653565357d6cd41>@@@Z 004250d6 f   libucrt:per_thread_data.obj
 0001:00024128       ??$?RV<lambda_38edbb1296d33220d7e4dd0ed76b244a>@@AAV<lambda_5ce1d447e08cb34b2473517608e21441>@@V<lambda_fb385d3da700c9147fc39e65dd577a8c>@@@?$__crt_seh_guarded_call@X@@QAEX$$QAV<lambda_38edbb1296d33220d7e4dd0ed76b244a>@@AAV<lambda_5ce1d447e08cb34b2473517608e21441>@@$$QAV<lambda_fb385d3da700c9147fc39e65dd577a8c>@@@Z 00425128 f   libucrt:per_thread_data.obj
 0001:00024193       ??$?RV<lambda_6affb1475c98b40b75cdec977db92e3c>@@AAV<lambda_b8d4b9c228a6ecc3f80208dbb4b4a104>@@V<lambda_608742c3c92a14382c1684fc64f96c88>@@@?$__crt_seh_guarded_call@X@@QAEX$$QAV<lambda_6affb1475c98b40b75cdec977db92e3c>@@AAV<lambda_b8d4b9c228a6ecc3f80208dbb4b4a104>@@$$QAV<lambda_608742c3c92a14382c1684fc64f96c88>@@@Z 00425193 f   libucrt:per_thread_data.obj
 0001:000241e8       ??$?RV<lambda_a7e850c220f1c8d1e6efeecdedd162c6>@@AAV<lambda_46720907175c18b6c9d2717bc0d2d362>@@V<lambda_9048902d66e8d99359bc9897bbb930a8>@@@?$__crt_seh_guarded_call@X@@QAEX$$QAV<lambda_a7e850c220f1c8d1e6efeecdedd162c6>@@AAV<lambda_46720907175c18b6c9d2717bc0d2d362>@@$$QAV<lambda_9048902d66e8d99359bc9897bbb930a8>@@@Z 004251e8 f   libucrt:per_thread_data.obj
 0001:00024242       ?construct_ptd@@YAXQAU__acrt_ptd@@QAPAU__crt_locale_data@@@Z 00425242 f   libucrt:per_thread_data.obj
 0001:000242db       ?destroy_fls@@YGXPAX@Z     004252db f   libucrt:per_thread_data.obj
 0001:000242fc       ?destroy_ptd@@YAXQAU__acrt_ptd@@@Z 004252fc f   libucrt:per_thread_data.obj
 0001:000243c9       ?replace_current_thread_locale_nolock@@YAXQAU__acrt_ptd@@QAU__crt_locale_data@@@Z 004253c9 f   libucrt:per_thread_data.obj
 0001:000246ff       ?<lambda_invoker_stdcall>@<lambda_29d3c280b90b41c2ae070ffca879996a>@@CG@PA_W@Z 004256ff f   libucrt:winapi_thunks.obj
 0001:0002470c       ??$?RV<lambda_6b4b7855443974f2b4b77000ea21c99c>@@AAV<lambda_8f7d3b162ab39427f4fa9995c67a7986>@@V<lambda_cc9a5ba8a5d8428b9634eab82665e5dc>@@@?$__crt_seh_guarded_call@H@@QAEH$$QAV<lambda_6b4b7855443974f2b4b77000ea21c99c>@@AAV<lambda_8f7d3b162ab39427f4fa9995c67a7986>@@$$QAV<lambda_cc9a5ba8a5d8428b9634eab82665e5dc>@@@Z 0042570c f   libucrt:winapi_thunks.obj
 0001:00024788       ??R<lambda_29d3c280b90b41c2ae070ffca879996a>@@QBE@PA_W@Z 00425788 f   libucrt:winapi_thunks.obj
 0001:000247bb       ?try_get_AreFileApisANSI@@YAP6GHXZXZ 004257bb f   libucrt:winapi_thunks.obj
 0001:000247d5       ?try_get_CompareStringEx@@YAP6GHPB_WK0H0HPAU_nlsversioninfo@@PAXJ@ZXZ 004257d5 f   libucrt:winapi_thunks.obj
 0001:000247ef       ?try_get_EnumSystemLocalesEx@@YAP6GHP6GHPA_WKJ@ZKJPAX@ZXZ 004257ef f   libucrt:winapi_thunks.obj
 0001:00024809       ?try_get_GetDateFormatEx@@YAP6GHPB_WKPBU_SYSTEMTIME@@0PA_WH0@ZXZ 00425809 f   libucrt:winapi_thunks.obj
 0001:00024823       ?try_get_GetLocaleInfoEx@@YAP6GHPB_WKPA_WH@ZXZ 00425823 f   libucrt:winapi_thunks.obj
 0001:0002483d       ?try_get_GetTimeFormatEx@@YAP6GHPB_WKPBU_SYSTEMTIME@@0PA_WH@ZXZ 0042583d f   libucrt:winapi_thunks.obj
 0001:00024857       ?try_get_GetUserDefaultLocaleName@@YAP6GHPA_WH@ZXZ 00425857 f   libucrt:winapi_thunks.obj
 0001:00024871       ?try_get_IsValidLocaleName@@YAP6GHPB_W@ZXZ 00425871 f   libucrt:winapi_thunks.obj
 0001:0002488b       ?try_get_LCIDToLocaleName@@YAP6GHKPA_WHK@ZXZ 0042588b f   libucrt:winapi_thunks.obj
 0001:000248a5       ?try_get_LCMapStringEx@@YAP6GHPB_WK0HPA_WHPAU_nlsversioninfo@@PAXJ@ZXZ 004258a5 f   libucrt:winapi_thunks.obj
 0001:000248bf       ?try_get_LocaleNameToLCID@@YAP6GKPB_WK@ZXZ 004258bf f   libucrt:winapi_thunks.obj
 0001:000248d9       ?try_get_first_available_module@@YAPAUHINSTANCE__@@QBW4module_id@?A0x391cf84c@@0@Z 004258d9 f   libucrt:winapi_thunks.obj
 0001:000249a4       ?try_get_function@@YAPAXW4function_id@?A0x391cf84c@@QBDQBW4module_id@2@2@Z 004259a4 f   libucrt:winapi_thunks.obj
 0001:0002520b       ?__acrt_LCMapStringA_stat@@YAHPAU__crt_locale_pointers@@PB_WKPBDHPADHHH@Z 0042620b f   libucrt:lcmapstringa.obj
 0001:00025507       ?find_or_allocate_unused_stream_nolock@@YA?AV__crt_stdio_stream@@XZ 00426507 f   libucrt:stream.obj
 0001:000257f3       ??$common_openfile@D@@YAPAU_iobuf@@QBD0HV__crt_stdio_stream@@@Z 004267f3 f   libucrt:openfile.obj
 0001:00025a80       ?initialize_inherited_file_handles_nolock@@YAXXZ 00426a80 f   libucrt:ioinit.obj
 0001:00025b36       ?initialize_stdio_handles_nolock@@YAXXZ 00426b36 f   libucrt:ioinit.obj
 0001:00025c99       ??$?RV<lambda_d422a76eb4c3bf3ad751449ab71a6ea4>@@AAV<lambda_c9ba49e555ba839a7b07aa3fbecb7617>@@V<lambda_9476263c8ee91a25d21c55370bdb50de>@@@?$__crt_seh_guarded_call@H@@QAEH$$QAV<lambda_d422a76eb4c3bf3ad751449ab71a6ea4>@@AAV<lambda_c9ba49e555ba839a7b07aa3fbecb7617>@@$$QAV<lambda_9476263c8ee91a25d21c55370bdb50de>@@@Z 00426c99 f   libucrt:close.obj
 0001:00025e9d       ?filter_mbtowcs_flags@@YAKIK@Z 00426e9d f   libucrt:multibytetowidechar.obj
 0001:000263e2       ?fe_to_nearest@@YA_NQBN_KF@Z 004273e2 f   libucrt:cvt.obj
 0001:00026485       ?fp_format_a@@YAHQBNPADIQADIH_NIW4__acrt_rounding_mode@@AAV__crt_cached_ptd_host@@@Z 00427485 f   libucrt:cvt.obj
 0001:000267b2       ?fp_format_e@@YAHQBNQADI1IH_NIW4__acrt_rounding_mode@@AAV__crt_cached_ptd_host@@@Z 004277b2 f   libucrt:cvt.obj
 0001:00026856       ?fp_format_e_internal@@YAHQADIH_NIQAU_strflt@@1AAV__crt_cached_ptd_host@@@Z 00427856 f   libucrt:cvt.obj
 0001:000269a9       ?fp_format_f@@YAHQBNQADI1IHW4__acrt_rounding_mode@@AAV__crt_cached_ptd_host@@@Z 004279a9 f   libucrt:cvt.obj
 0001:00026a3f       ?fp_format_f_internal@@YAHQADIHQAU_strflt@@_NAAV__crt_cached_ptd_host@@@Z 00427a3f f   libucrt:cvt.obj
 0001:00026b2d       ?fp_format_g@@YAHQBNQADI1IH_NIW4__acrt_rounding_mode@@AAV__crt_cached_ptd_host@@@Z 00427b2d f   libucrt:cvt.obj
 0001:00026bfc       ?fp_format_nan_or_infinity@@YAHW4__acrt_fp_class@@_NPADI1@Z 00427bfc f   libucrt:cvt.obj
 0001:00026c91       ?shift_bytes@@YAXQADI0H@Z  00427c91 f   libucrt:cvt.obj
 0001:00026cc5       ?should_round_up@@YA_NQBN_KFW4__acrt_rounding_mode@@@Z 00427cc5 f   libucrt:cvt.obj
 0001:000271c3       ?write_double_translated_ansi_nolock@@YA?AUwrite_result@?A0x17268360@@HQBDIAAV__crt_cached_ptd_host@@@Z 004281c3 f   libucrt:write.obj
 0001:0002758a       ?write_double_translated_unicode_nolock@@YA?AUwrite_result@?A0x17268360@@QBDI@Z 0042858a f   libucrt:write.obj
 0001:000275f2       ?write_requires_double_translation_nolock@@YA_NHAAV__crt_cached_ptd_host@@@Z 004285f2 f   libucrt:write.obj
 0001:0002766f       ?write_text_ansi_nolock@@YA?AUwrite_result@?A0x17268360@@HQBDI@Z 0042866f f   libucrt:write.obj
 0001:0002774a       ?write_text_utf16le_nolock@@YA?AUwrite_result@?A0x17268360@@HQBDI@Z 0042874a f   libucrt:write.obj
 0001:00027833       ?write_text_utf8_nolock@@YA?AUwrite_result@?A0x17268360@@HQBDI@Z 00428833 f   libucrt:write.obj
 0001:00027cc9       ??$common_flush_and_write_nolock@D@@YAHHV__crt_stdio_stream@@AAV__crt_cached_ptd_host@@@Z 00428cc9 f   libucrt:_flsbuf.obj
 0001:00027dbf       ??$write_buffer_nolock@D@@YA_NDV__crt_stdio_stream@@AAV__crt_cached_ptd_host@@@Z 00428dbf f   libucrt:_flsbuf.obj
 0001:00027e91       ?stream_is_at_end_of_file_nolock@@YA_NV__crt_stdio_stream@@@Z 00428e91 f   libucrt:_flsbuf.obj
 0001:000289b8       ??$common_lseek@_J@@YA_JH_JHAAV__crt_cached_ptd_host@@@Z 004299b8 f   libucrt:lseek.obj
 0001:00028add       ??$common_lseek_nolock@_J@@YA_JH_JHAAV__crt_cached_ptd_host@@@Z 00429add f   libucrt:lseek.obj
 0001:00028c1c       ??$translate_text_mode_nolock@D@@YAHHQADI@Z 00429c1c f   libucrt:read.obj
 0001:00028d69       ??$translate_text_mode_nolock@_W@@YAHHQA_WI@Z 00429d69 f   libucrt:read.obj
 0001:00028f23       ?translate_ansi_or_utf8_nolock@@YAHHQADIQA_WI@Z 00429f23 f   libucrt:read.obj
 0001:0002907a       ?translate_utf16_from_console_nolock@@YAHHQA_WI@Z 0042a07a f   libucrt:read.obj
 0001:0002959c       ??$?RV<lambda_9e9de3de5fa147e2223d7db92bc10aa6>@@AAV<lambda_38ce7e780aa69e748d6df282ebc68efe>@@V<lambda_8ca6da459f0f6780f1cff60fdc3d00e5>@@@?$__crt_seh_guarded_call@H@@QAEH$$QAV<lambda_9e9de3de5fa147e2223d7db92bc10aa6>@@AAV<lambda_38ce7e780aa69e748d6df282ebc68efe>@@$$QAV<lambda_8ca6da459f0f6780f1cff60fdc3d00e5>@@@Z 0042a59c f   libucrt:commit.obj
 0001:000296bb       ??$common_refill_and_read_nolock@D@@YAHV__crt_stdio_stream@@@Z 0042a6bb f   libucrt:_filbuf.obj
 0001:00029882       ?filter_wcstomb_flags@@YAKIK@Z 0042a882 f   libucrt:widechartomultibyte.obj
 0001:0002997e       ?compute_iso_week@@YAHHHH@Z 0042a97e f   libucrt:wcsftime.obj
 0001:000299c7       ?compute_iso_week_internal@@YAHHHH@Z 0042a9c7 f   libucrt:wcsftime.obj
 0001:00029a5c       ?compute_iso_year@@YAHHHH@Z 0042aa5c f   libucrt:wcsftime.obj
 0001:00029a87       ?expand_time@@YA_NPAU__crt_locale_pointers@@_WPBUtm@@PAPA_WPAIPBU__crt_lc_time_data@@_N@Z 0042aa87 f   libucrt:wcsftime.obj
 0001:0002a43b       $LN191                     0042b43b     libucrt:wcsftime.obj
 0001:0002a45b       ?store_number@@YAXHHQAPA_WQAI_W@Z 0042b45b f   libucrt:wcsftime.obj
 0001:0002a4ef       ?store_number_without_lead_zeroes@@YAXHQAPA_WQAI@Z 0042b4ef f   libucrt:wcsftime.obj
 0001:0002a569       ?store_string@@YAXPB_WQAPA_WQAI@Z 0042b569 f   libucrt:wcsftime.obj
 0001:0002a59c       ?store_winword@@YA_NQAU__crt_locale_pointers@@HQBUtm@@QAPA_WQAIQBU__crt_lc_time_data@@@Z 0042b59c f   libucrt:wcsftime.obj
 0001:0002ac10       ?_isindst_nolock@@YAHQAUtm@@@Z 0042bc10 f   libucrt:tzset.obj
 0001:0002ae2a       ?cvtdate@@YAXW4transition_type@?A0x7639d0b4@@W4date_type@2@HHHHHHHHH@Z 0042be2a f   libucrt:tzset.obj
 0001:0002af6d       ?get_tz_environment_variable@@YAPA_WAAY0BAA@_W@Z 0042bf6d f   libucrt:tzset.obj
 0001:0002afe4       ?tzset_env_copy_to_tzname@@YAXQB_WQA_WQADI@Z 0042bfe4 f   libucrt:tzset.obj
 0001:0002b02b       ?tzset_from_environment_nolock@@YAXPA_W@Z 0042c02b f   libucrt:tzset.obj
 0001:0002b2bd       ?tzset_from_system_nolock@@YAXXZ 0042c2bd f   libucrt:tzset.obj
 0001:0002b417       ?tzset_nolock@@YAXXZ       0042c417 f   libucrt:tzset.obj
 0001:0002b48d       ?tzset_os_copy_to_tzname@@YAXQB_WQA_WQADI@Z 0042c48d f   libucrt:tzset.obj
 0001:0002b580       ??$common_dupenv_s@D@@YAHQAPADQAIQBDH2H@Z 0042c580 f   libucrt:getenv.obj
 0001:0002b5e5       ??$common_dupenv_s_nolock@D@@YAHQAPADQAIQBDH2H@Z 0042c5e5 f   libucrt:getenv.obj
 0001:0002b688       ??$common_getenv_nolock@D@@YAPADQBD@Z 0042c688 f   libucrt:getenv.obj
 0001:0002b6f5       ??$common_getenv_nolock@_W@@YAPA_WQB_W@Z 0042c6f5 f   libucrt:getenv.obj
 0001:0002b779       ??$common_getenv_s@_W@@YAHQAIQA_WIQB_W@Z 0042c779 f   libucrt:getenv.obj
 0001:0002b7d8       ??$common_getenv_s_nolock@_W@@YAHQAIQA_WIQB_W@Z 0042c7d8 f   libucrt:getenv.obj
 0001:0002b8af       ??$?RV<lambda_1f7e3ac85ca3635646511ad93ac0febe>@@AAV<lambda_555255fdfb9471e5fa7bfca50021c162>@@V<lambda_24f51f8b0c33fe186c624e6675644b7a>@@@?$__crt_seh_guarded_call@_N@@QAE_N$$QAV<lambda_1f7e3ac85ca3635646511ad93ac0febe>@@AAV<lambda_555255fdfb9471e5fa7bfca50021c162>@@$$QAV<lambda_24f51f8b0c33fe186c624e6675644b7a>@@@Z 0042c8af f   libucrt:spawnv.obj
 0001:0002b90a       ??$common_spawnv@D@@YAHHQBDQBQBD1@Z 0042c90a f   libucrt:spawnv.obj
 0001:0002bafd       ??$execute_command@D@@YAHHQBDQBQBD1@Z 0042cafd f   libucrt:spawnv.obj
 0001:0002bd09       ??R<lambda_555255fdfb9471e5fa7bfca50021c162>@@QBE_NXZ 0042cd09 f   libucrt:spawnv.obj
 0001:0002be3f       ?accumulate_inheritable_handles@@YA_NQAPAEQAI_N@Z 0042ce3f f   libucrt:spawnv.obj
 0001:0002be83       ??$common_spawnvp@D@@YAHHQBDQBQBD1@Z 0042ce83 f   libucrt:spawnvp.obj
 0001:0002c2b4       ?get_drive_number_from_path@@YAHQB_W@Z 0042d2b4 f   libucrt:drive.obj
 0001:0002c7c3       ?<lambda_invoker_cdecl>@<lambda_838c7f62c73c983481e27c09e84b0b5d>@@CAHPBX0@Z 0042d7c3 f   libucrt:argv_wildcards.obj
 0001:0002c8a1       ??$common_expand_argv_wildcards@D@@YAHQAPADQAPAPAD@Z 0042d8a1 f   libucrt:argv_wildcards.obj
 0001:0002ca1e       ??$copy_and_add_argument_to_buffer@D@@YAHQBD0IAAV?$argument_list@D@?A0x5f5c8891@@@Z 0042da1e f   libucrt:argv_wildcards.obj
 0001:0002cacf       ??$expand_argument_wildcards@D@@YAHQAD0AAV?$argument_list@D@?A0x5f5c8891@@@Z 0042dacf f   libucrt:argv_wildcards.obj
 0001:0002cd54       ??1?$argument_list@D@?A0x5f5c8891@@QAE@XZ 0042dd54 f   libucrt:argv_wildcards.obj
 0001:0002cdb5       ?expand_if_necessary@?$argument_list@D@?A0x5f5c8891@@AAEHXZ 0042ddb5 f   libucrt:argv_wildcards.obj
 0001:0002cee8       ??$?RV<lambda_ceb1ee4838e85a9d631eb091e2fbe199>@@AAV<lambda_ae742caa10f662c28703da3d2ea5e57e>@@V<lambda_cd08b5d6af4937fe54fc07d0c9bf6b37>@@@?$__crt_seh_guarded_call@X@@QAEX$$QAV<lambda_ceb1ee4838e85a9d631eb091e2fbe199>@@AAV<lambda_ae742caa10f662c28703da3d2ea5e57e>@@$$QAV<lambda_cd08b5d6af4937fe54fc07d0c9bf6b37>@@@Z 0042dee8 f   libucrt:mbctype.obj
 0001:0002cf35       ??R<lambda_ae742caa10f662c28703da3d2ea5e57e>@@QBE@XZ 0042df35 f   libucrt:mbctype.obj
 0001:0002cfb8       ?CPtoLocaleName@@YAPB_WH@Z 0042dfb8 f   libucrt:mbctype.obj
 0001:0002cff6       ?getSystemCP@@YAHH@Z       0042dff6 f   libucrt:mbctype.obj
 0001:0002d067       ?setSBCS@@YAXPAU__crt_multibyte_data@@@Z 0042e067 f   libucrt:mbctype.obj
 0001:0002d0ca       ?setSBUpLow@@YAXPAU__crt_multibyte_data@@@Z 0042e0ca f   libucrt:mbctype.obj
 0001:0002d26f       ?setmbcp_internal@@YAHH_NQAU__acrt_ptd@@QAPAU__crt_multibyte_data@@@Z 0042e26f f   libucrt:mbctype.obj
 0001:0002d3c4       ?update_thread_multibyte_data_internal@@YAPAU__crt_multibyte_data@@QAU__acrt_ptd@@QAPAU1@@Z 0042e3c4 f   libucrt:mbctype.obj
 0001:0002d6c4       ?x_ismbbtype_l@@YAHPAU__crt_locale_pointers@@IHH@Z 0042e6c4 f   libucrt:ismbbyte.obj
 0001:0002d790       ?find_end_of_double_null_terminated_sequence@@YAPB_WQB_W@Z 0042e790 f   libucrt:get_environment_from_os.obj
 0001:0002d8b5       ??$common_set_variable_in_environment_nolock@D@@YAHQADH@Z 0042e8b5 f   libucrt:setenv.obj
 0001:0002db15       ??$common_set_variable_in_environment_nolock@_W@@YAHQA_WH@Z 0042eb15 f   libucrt:setenv.obj
 0001:0002dda0       ??$copy_environment@D@@YAPAPADQAPAD@Z 0042eda0 f   libucrt:setenv.obj
 0001:0002de50       ??$copy_environment@_W@@YAPAPA_WQAPA_W@Z 0042ee50 f   libucrt:setenv.obj
 0001:0002df0e       ??$ensure_current_environment_is_not_initial_environment_nolock@D@@YAXXZ 0042ef0e f   libucrt:setenv.obj
 0001:0002df28       ??$ensure_current_environment_is_not_initial_environment_nolock@_W@@YAXXZ 0042ef28 f   libucrt:setenv.obj
 0001:0002df42       ??$find_in_environment_nolock@D@@YAHQBDI@Z 0042ef42 f   libucrt:setenv.obj
 0001:0002df97       ??$find_in_environment_nolock@_W@@YAHQB_WI@Z 0042ef97 f   libucrt:setenv.obj
 0001:0002e195       ??$common_tcsncpy_s@_W@@YAHQA_WIQB_WI@Z 0042f195 f   libucrt:wcsncpy_s.obj
 0001:0002edeb       ?free_crt_array_internal@@YAXQAPBXI@Z 0042fdeb f   libucrt:inittime.obj
 0001:0002ee10       ?initialize_lc_time@@YA_NQAU__crt_lc_time_data@@QAU__crt_locale_data@@@Z 0042fe10 f   libucrt:inittime.obj
 0001:0002f1eb       ??$common_tcsncat_s@_W@@YAHQA_WIQB_WI@Z 004301eb f   libucrt:wcsncat_s.obj
 0001:0002f820       _GetLocaleNameFromDefault  00430820 f   libucrt:get_qualified_locale.obj
 0001:0002f8a7       _GetLocaleNameFromLangCountry 004308a7 f   libucrt:get_qualified_locale.obj
 0001:0002f940       _GetLocaleNameFromLanguage 00430940 f   libucrt:get_qualified_locale.obj
 0001:0002f999       _GetPrimaryLen             00430999 f   libucrt:get_qualified_locale.obj
 0001:0002f9cd       _LangCountryEnumProcEx@12  004309cd f   libucrt:get_qualified_locale.obj
 0001:0002fcae       _LanguageEnumProcEx@12     00430cae f   libucrt:get_qualified_locale.obj
 0001:0002fd6d       _ProcessCodePage           00430d6d f   libucrt:get_qualified_locale.obj
 0001:0002fe5d       _TestDefaultCountry        00430e5d f   libucrt:get_qualified_locale.obj
 0001:0002feaa       _TranslateName             00430eaa f   libucrt:get_qualified_locale.obj
 0001:0003011c       _CountryEnumProc@4         0043111c f   libucrt:getqloc_downlevel.obj
 0001:000301c3       _GetLcidFromCountry        004311c3 f   libucrt:getqloc_downlevel.obj
 0001:0003020e       _GetLcidFromLangCountry    0043120e f   libucrt:getqloc_downlevel.obj
 0001:000302a9       _GetLcidFromLanguage       004312a9 f   libucrt:getqloc_downlevel.obj
 0001:00030308       _GetPrimaryLen             00431308 f   libucrt:getqloc_downlevel.obj
 0001:00030334       _LangCountryEnumProc@4     00431334 f   libucrt:getqloc_downlevel.obj
 0001:00030587       _LanguageEnumProc@4        00431587 f   libucrt:getqloc_downlevel.obj
 0001:0003065c       _LcidFromHexString         0043165c f   libucrt:getqloc_downlevel.obj
 0001:000306b0       _ProcessCodePage           004316b0 f   libucrt:getqloc_downlevel.obj
 0001:00030791       _TestDefaultCountry        00431791 f   libucrt:getqloc_downlevel.obj
 0001:000307b6       _TestDefaultLanguage       004317b6 f   libucrt:getqloc_downlevel.obj
 0001:0003082b       _TranslateName             0043182b f   libucrt:getqloc_downlevel.obj
 0001:00030a7c       ___hw_cw_sse2              00431a7c f   libucrt:ieee87.obj
 0001:00030f02       __hw_cw                    00431f02 f   libucrt:ieee87.obj
 0001:00030fa0       ??R<lambda_e96123212306c92459f955e8e4eac55d>@@QBEIPBD@Z 00431fa0 f   libucrt:mbrtowc.obj
 0001:00031226       ?GetTableIndexFromLocaleName@@YAHPB_W@Z 00432226 f   libucrt:lcidtoname_downlevel.obj
 0001:00031646       ??$common_sopen_dispatch@D@@YAHQBDHHHQAHH@Z 00432646 f   libucrt:open.obj
 0001:00031721       ?configure_text_mode@@YAHHUfile_options@?A0xa9d50aae@@HAAW4__crt_lowio_text_mode@@@Z 00432721 f   libucrt:open.obj
 0001:00031977       ?create_file@@YAPAXQB_WQAU_SECURITY_ATTRIBUTES@@Ufile_options@?A0xa9d50aae@@@Z 00432977 f   libucrt:open.obj
 0001:0003199c       ?decode_open_create_flags@@YAKH@Z 0043299c f   libucrt:open.obj
 0001:00031a0c       ?decode_options@@YA?AUfile_options@?A0xa9d50aae@@HHH@Z 00432a0c f   libucrt:open.obj
 0001:00031b86       ?truncate_ctrl_z_if_present@@YAHH@Z 00432b86 f   libucrt:open.obj
 0001:0003203e       ?check_trailing@@YA_NPBDW4__acrt_has_trailing_digits@@@Z 0043303e f   libucrt:_fptostr.obj
 0001:00032061       ?should_round_up@@YA_NQBD0HW4__acrt_has_trailing_digits@@W4__acrt_rounding_mode@@@Z 00433061 f   libucrt:_fptostr.obj
 0001:00033928       ?to_abstract_control@@YA?AW4__acrt_fenv_abstract_control@@W4__acrt_fenv_machine_sse_control@@@Z 00434928 f   libucrt:_fenvutils.obj
 0001:000339d8       ?to_abstract_control@@YA?AW4__acrt_fenv_abstract_control@@W4__acrt_fenv_machine_x87_control@@@Z 004349d8 f   libucrt:_fenvutils.obj
 0001:00033a85       ?to_machine_sse_control@@YA?AW4__acrt_fenv_machine_sse_control@@W4__acrt_fenv_abstract_control@@@Z 00434a85 f   libucrt:_fenvutils.obj
 0001:00033b3b       ?to_machine_x87_control@@YA?AW4__acrt_fenv_machine_x87_control@@W4__acrt_fenv_abstract_control@@@Z 00434b3b f   libucrt:_fenvutils.obj
 0001:00034273       ??$common_pack_argv_and_envp@D@@YAHQBQBD0QAPAD1@Z 00435273 f   libucrt:cenvarg.obj
 0001:000342ec       ??$construct_command_line@D@@YAHQBQBDQAPAD@Z 004352ec f   libucrt:cenvarg.obj
 0001:000343c6       ??$construct_environment_block@D@@YAHQBQBDQAPAD@Z 004353c6 f   libucrt:cenvarg.obj
 0001:00034786       ??$common_getpath@D@@YAPADQBDQADI@Z 00435786 f   libucrt:getpath.obj
 0001:00034839       ??$common_tcsncpy_s@D@@YAHQADIQBDI@Z 00435839 f   libucrt:strncpy_s.obj
 0001:0003499f       ?initialize_multibyte@@YAHXZ 0043599f f   libucrt:multibyte_initializer.obj
 0001:00034adf       ?InternalGetLocaleInfoA@@YAHQAU__crt_locale_pointers@@QB_WKQADH@Z 00435adf f   libucrt:getlocaleinfoa.obj
 0001:00034d6e       ??$common_xtox@K_W@@YAHKQA_WII_N@Z 00435d6e f   libucrt:xtoa.obj
 0001:00034e2a       ??$common_xtox_s@K_W@@YAHKQA_WII_N@Z 00435e2a f   libucrt:xtoa.obj
 0001:00035200       $$000000                   00436200     libucrt:_strnicm.obj
 0001:00035540       $$000000                   00436540     libucrt:log10_impl.obj
 0001:00035650       $$000000                   00436650     libucrt:ceil_pentium4.obj
 0001:000357a3       ?__dcrt_lowio_initialize_console_output@@YAXXZ 004367a3 f   libucrt:initcon.obj
 0001:000358b2       ?InternalCompareStringA@@YAHPAU__crt_locale_pointers@@PB_WKPBDH2HH@Z 004368b2 f   libucrt:comparestringa.obj
 0001:00035bf0       $$000000                   00436bf0     libucrt:log10_pentium4.obj
 0001:00035e80       $$000000                   00436e80     libucrt:87tran.obj
 0001:00036090       $$000000                   00437090     libucrt:87disp.obj
 0001:000362f0       $$000000                   004372f0     libucrt:common.obj
 0001:00036480       $$000000                   00437480     libucrt:genexcep.obj
 0001:00036cb0       $$000000                   00437cb0     LIBCMT:ulldiv.obj
 0001:00036cd2       L1                         00437cd2     LIBCMT:ulldiv.obj
 0001:00036ce0       L3                         00437ce0     LIBCMT:ulldiv.obj
 0001:00036d0e       L4                         00437d0e     LIBCMT:ulldiv.obj
 0001:00036d0f       L5                         00437d0f     LIBCMT:ulldiv.obj
 0001:00036d13       L2                         00437d13     LIBCMT:ulldiv.obj
 0001:00036d20       $$000000                   00437d20     LIBCMT:ullrem.obj
 0001:00036d41       L1                         00437d41     LIBCMT:ullrem.obj
 0001:00036d4f       L3                         00437d4f     LIBCMT:ullrem.obj
 0001:00036d7a       L4                         00437d7a     LIBCMT:ullrem.obj
 0001:00036d82       L5                         00437d82     LIBCMT:ullrem.obj
 0001:00036d91       L2                         00437d91     LIBCMT:ullrem.obj
 0001:00036da0       $$000000                   00437da0     LIBCMT:llmul.obj
 0001:00036db9       hard                       00437db9     LIBCMT:llmul.obj
 0001:00036de0       $$000000                   00437de0     LIBCMT:lldiv.obj
 0001:00036e01       L1                         00437e01     LIBCMT:lldiv.obj
 0001:00036e1d       L2                         00437e1d     LIBCMT:lldiv.obj
 0001:00036e39       L3                         00437e39     LIBCMT:lldiv.obj
 0001:00036e47       L5                         00437e47     LIBCMT:lldiv.obj
 0001:00036e75       L6                         00437e75     LIBCMT:lldiv.obj
 0001:00036e76       L7                         00437e76     LIBCMT:lldiv.obj
 0001:00036e7a       L4                         00437e7a     LIBCMT:lldiv.obj
 0001:00036e84       L8                         00437e84     LIBCMT:lldiv.obj
 0001:00036e90       $$000000                   00437e90     LIBCMT:llrem.obj
 0001:00036eb0       L1                         00437eb0     LIBCMT:llrem.obj
 0001:00036ecb       L2                         00437ecb     LIBCMT:llrem.obj
 0001:00036eea       L3                         00437eea     LIBCMT:llrem.obj
 0001:00036ef8       L5                         00437ef8     LIBCMT:llrem.obj
 0001:00036f23       L6                         00437f23     LIBCMT:llrem.obj
 0001:00036f2b       L7                         00437f2b     LIBCMT:llrem.obj
 0001:00036f36       L4                         00437f36     LIBCMT:llrem.obj
 0001:00036f3d       L8                         00437f3d     LIBCMT:llrem.obj
 0001:00036f50       $$000000                   00437f50     LIBCMT:llshl.obj
 0001:00036f60       MORE32                     00437f60     LIBCMT:llshl.obj
 0001:00036f6a       RETZERO                    00437f6a     LIBCMT:llshl.obj
 0001:00036f70       $$000000                   00437f70     LIBCMT:ullshr.obj
 0001:00036f80       MORE32                     00437f80     LIBCMT:ullshr.obj
 0001:00036f8a       RETZERO                    00437f8a     LIBCMT:ullshr.obj
 0001:00036f90       $$000000                   00437f90     LIBCMT:chkstk.obj
 0001:00036fa4       cs10                       00437fa4     LIBCMT:chkstk.obj
 0001:00036fb2       cs20                       00437fb2     LIBCMT:chkstk.obj
 0001:00036fc0       $$000000                   00437fc0     LIBCMT:alloca16.obj
 0001:00036fd6       alloca_8                   00437fd6     LIBCMT:alloca16.obj
 0001:00036ff0       $$000000                   00437ff0     LIBCMT:ftol2.obj
 0001:00037000       $$000000                   00438000     LIBCMT:ftol2.obj
 0001:00037011       L3B                        00438011     LIBCMT:ftol2.obj
 0001:00037054       L3F                        00438054     LIBCMT:ftol2.obj
 0001:0003705c       L40                        0043805c     LIBCMT:ftol2.obj
 0001:0003706f       L41                        0043806f     LIBCMT:ftol2.obj
 0001:00038684       $LN1250                    00439684     libvcruntime:memcmp.obj
 0001:00038820       ??$min@H@@YAHHH@Z          00439820 f   server.obj
 0001:00038830       ??$max@H@@YAHHH@Z          00439830 f   server.obj
 0001:00040da8       $LN2610                    00441da8     server.obj
 0001:00040e4c       $LN2609                    00441e4c     server.obj
 0001:00040eb0       $LN2620                    00441eb0     server.obj
 0001:0004263c       $LN84                      0044363c     server.obj
 0001:00042658       $LN83                      00443658     server.obj
 0001:00045624       $LN62                      00446624     server.obj
 0001:00045dbc       $LN212                     00446dbc     server.obj
 0001:000467a0       $LN302                     004477a0     server.obj
 0001:00046bc8       $LN84                      00447bc8     server.obj
 0001:00046be4       $LN85                      00447be4     server.obj
 0001:00046c70       $LN18                      00447c70     server.obj
 0001:00048014       $LN186                     00449014     server.obj
 0001:00048030       $LN187                     00449030     server.obj
 0001:00048050       $LN188                     00449050     server.obj
 0001:00048f60       ?cleardemos@@YAXH@Z        00449f60 f   server.obj
 0001:0004b260       $LN286                     0044c260     server.obj
 0001:0004b288       $LN285                     0044c288     server.obj
 0001:0004d074       $LN316                     0044e074     server.obj
 0001:0004de4c       $LN32                      0044ee4c     server.obj
 0001:0004de70       $LN31                      0044ee70     server.obj
 0001:0004f5d0       ?team_string@@YAPBDH_N@Z   004505d0 f   server.obj
 0001:0004f5f0       ?magsize@@YAHH@Z           004505f0 f   server.obj
 0001:0004f600       ?attackdelay@@YAHH@Z       00450600 f   server.obj
 0001:0004f610       ?reloadtime@@YAHH@Z        00450610 f   server.obj
 0001:0004f620       ?htcmp@@YA_NABUuchar32@@0@Z 00450620 f   server.obj
 0001:0004f640       ?hthash@@YAIABUuchar32@@@Z 00450640 f   server.obj
 0001:0004f650       ?htcmp@@YA_NPBD0@Z         00450650 f   server.obj
 0001:0004f680       ?hthash@@YAIPBD@Z          00450680 f   server.obj
 0001:0004f6b0       _time                      004506b0 f   server.obj
 0001:0004fbf0       ??$max@I@@YAIII@Z          00450bf0 f   serverms.obj
 0001:0004fc00       ??$min@H@@YAHHH@Z          00450c00 f   serverms.obj
 0001:0004fc10       ?updatemasterserver@@YAXHHH@Z 00450c10 f   serverms.obj
 0001:00050d38       $LN336                     00451d38     serverms.obj
 0001:00050f70       ??$min@H@@YAHHH@Z          00451f70 f   crypto.obj
 0001:00050f80       ?hashchunktoa@@YAPBD_K@Z   00451f80 f   crypto.obj
 0001:000522f0       ?setneutral@@YAXPAUge25519@@@Z 004532f0 f   crypto.obj
 0001:000523f0       ?choose_t@@YAXPAUge25519_aff@@_KC@Z 004533f0 f   crypto.obj
 0001:00052590       ?negative@@YAEC@Z          00453590 f   crypto.obj
 0001:000525a0       ?equal@@YAECC@Z            004535a0 f   crypto.obj
 0001:000525b0       ?cmov_aff@@YAXPAUge25519_aff@@PBU1@E@Z 004535b0 f   crypto.obj
 0001:000525e0       ?dbl_p1p1@@YAXPAUge25519_p1p1@@PBUge25519_p2@@@Z 004535e0 f   crypto.obj
 0001:00052710       ?add_p1p1@@YAXPAUge25519_p1p1@@PBUge25519@@1@Z 00453710 f   crypto.obj
 0001:00052880       ?ge25519_mixadd2@@YAXPAUge25519@@PBUge25519_aff@@@Z 00453880 f   crypto.obj
 0001:00052a40       ?p1p1_to_p3@@YAXPAUge25519@@PBUge25519_p1p1@@@Z 00453a40 f   crypto.obj
 0001:00052aa0       ?p1p1_to_p2_@@YAXPAUge25519@@PBUge25519_p1p1@@@Z 00453aa0 f   crypto.obj
 0001:00053c00       ?barrett_reduce@@YAXPAUsc25519@@QBI@Z 00454c00 f   crypto.obj
 0001:00053e00       ?reduce_add_sub@@YAXPAUsc25519@@@Z 00454e00 f   crypto.obj
 0001:00053f50       ?lt@@YAIII@Z               00454f50 f   crypto.obj
 0001:00055240       ?reduce_mul@@YAXPAUfe25519@@@Z 00456240 f   crypto.obj
 0001:00055290       ?reduce_add_sub@@YAXPAUfe25519@@@Z 00456290 f   crypto.obj
 0001:000552e0       ?times38@@YAII@Z           004562e0 f   crypto.obj
 0001:000552f0       ?times19@@YAII@Z           004562f0 f   crypto.obj
 0001:00055300       ?ge@@YAIII@Z               00456300 f   crypto.obj
 0001:00055310       ?equal@@YAIII@Z            00456310 f   crypto.obj
 0001:000553c0       ?mix_block@@YAXPAEPBEH@Z   004563c0 f   crypto.obj
 0001:00055410       ?xor_block@@YAXPAEPBEH@Z   00456410 f   crypto.obj
 0001:00057450       _time                      00458450 f   crypto.obj
 0001:000580f0       ??$min@H@@YAHHH@Z          004590f0 f   log.obj
 0001:00058100       _time                      00459100 f   log.obj
 0001:00058dd0       ??$min@J@@YAJJJ@Z          00459dd0 f   stream.obj
 0001:00058de0       ??$min@H@@YAHHH@Z          00459de0 f   stream.obj
 0001:00058df0       ??$max@H@@YAHHH@Z          00459df0 f   stream.obj
 0001:00059970       ??$min@H@@YAHHH@Z          0045a970 f   tools.obj
 0001:00059980       ??$max@H@@YAHHH@Z          0045a980 f   tools.obj
 0001:00059990       ?sl_thread_indir@@YAHPAX@Z 0045a990 f   tools.obj
 0001:00059a30       _time                      0045aa30 f   tools.obj
 0001:00059a40       _localtime                 0045aa40 f   tools.obj
 0001:00059a50       _gmtime                    0045aa50 f   tools.obj
 0001:0005a32c       $LN271                     0045b32c     tools.obj
 0001:0005a358       $LN270                     0045b358     tools.obj
 0001:0005b8e0       ?readarg@@YAXAAU?$vector@D@@PBD1@Z 0045c8e0 f   wizard.obj
 0001:0005ba80       ?readarg@@YAXPBDPADH@Z     0045ca80 f   wizard.obj
 0001:0005bad0       ?addarg@@YAXAAU?$vector@D@@PBD1@Z 0045cad0 f   wizard.obj
 0001:0005bbd0       ?addarg@@YAXAAU?$vector@D@@PBD@Z 0045cbd0 f   wizard.obj
 0001:0005c9c0       ??$max@M@@YAMMM@Z          0045d9c0 f   protocol1.obj
 0001:0005c9d0       ??$min@M@@YAMMM@Z          0045d9d0 f   protocol1.obj
 0001:0005c9e0       ??$putip4_@Upacketbuf@@@@YAXAAUpacketbuf@@I@Z 0045d9e0 f   protocol1.obj
 0001:0005ca40       ??$sendstring_@U?$vector@E@@@@YAXPBDAAU?$vector@E@@@Z 0045da40 f   protocol1.obj
 0001:0005ca70       ??$sendstring_@Upacketbuf@@@@YAXPBDAAUpacketbuf@@@Z 0045da70 f   protocol1.obj
 0001:0005caf0       ??$sendstring_@U?$databuf@E@@@@YAXPBDAAU?$databuf@E@@@Z 0045daf0 f   protocol1.obj
 0001:0005cb20       ??$putuint_@U?$vector@E@@@@YAXAAU?$vector@E@@H@Z 0045db20 f   protocol1.obj
 0001:0005cc80       ??$putuint_@Upacketbuf@@@@YAXAAUpacketbuf@@H@Z 0045dc80 f   protocol1.obj
 0001:0005cd60       ??$putaint_@Upacketbuf@@@@YAXAAUpacketbuf@@H@Z 0045dd60 f   protocol1.obj
 0001:0005ce40       ??$putint_@U?$vector@E@@@@YAXAAU?$vector@E@@H@Z 0045de40 f   protocol1.obj
 0001:0005cf60       ??$putint_@Upacketbuf@@@@YAXAAUpacketbuf@@H@Z 0045df60 f   protocol1.obj
 0001:0005d030       ??$putint_@U?$databuf@E@@@@YAXAAU?$databuf@E@@H@Z 0045e030 f   protocol1.obj
 0001:0005dea0       $LN201                     0045eea0     protocol1.obj
 0001:0005dec0       $LN200                     0045eec0     protocol1.obj
 0001:0005e464       $LN29                      0045f464     protocol1.obj
 0001:0005e488       $LN28                      0045f488     protocol1.obj
 0001:0005ea00       $$000000                   0045fa00     libvcruntime:memchr.obj
 0001:0005ea1b       str_misaligned             0045fa1b     libvcruntime:memchr.obj
 0001:0005ea31       main_loop_start            0045fa31     libvcruntime:memchr.obj
 0001:0005ea47       return_from_main           0045fa47     libvcruntime:memchr.obj
 0001:0005ea48       tail_less_then_4           0045fa48     libvcruntime:memchr.obj
 0001:0005ea4d       tail_loop                  0045fa4d     libvcruntime:memchr.obj
 0001:0005ea5b       retnull                    0045fa5b     libvcruntime:memchr.obj
 0001:0005ea5d       main_loop                  0045fa5d     libvcruntime:memchr.obj
 0001:0005ea62       main_loop_entry            0045fa62     libvcruntime:memchr.obj
 0001:0005ea7d       char_is_found              0045fa7d     libvcruntime:memchr.obj
 0001:0005ea95       byte_3                     0045fa95     libvcruntime:memchr.obj
 0001:0005ea96       found                      0045fa96     libvcruntime:memchr.obj
 0001:0005ea9b       byte_2                     0045fa9b     libvcruntime:memchr.obj
 0001:0005eaa1       byte_1                     0045faa1     libvcruntime:memchr.obj
 0001:0005eaa7       byte_0                     0045faa7     libvcruntime:memchr.obj
 0001:0005eab0       $$000000                   0045fab0     libucrt:sqrt_sse2_precise.obj
 0001:0005ebb0       $$000000                   0045fbb0     libucrt:sqrt.obj
 0001:0005ebc0       $$000000                   0045fbc0     libucrt:sqrt_impl.obj
 0001:0005ec71       __ehhandler$?CallUnexpected@@YAXPBU_s_ESTypeList@@@Z 0045fc71 f   libvcruntime:frame.obj
 0001:0005ec8e       __ehhandler$?common_exit@@YAXHW4_crt_exit_cleanup_mode@@W4_crt_exit_return_mode@@@Z 0045fc8e f   libucrt:exit.obj
 0001:0005ecab       __ehhandler$?try_cor_exit_process@@YAXI@Z 0045fcab f   libucrt:exit.obj
 0001:0005ecc8       __ehhandler$___dcrt_uninitialize_environments_nolock 0045fcc8 f   libucrt:environment_initialization.obj
 0001:0005ece5       __ehhandler$__execute_onexit_table 0045fce5 f   libucrt:onexit.obj
 0001:0005ed02       __ehhandler$?_mbstowcs_l_helper@@YAIPA_WPBDIAAV__crt_cached_ptd_host@@@Z 0045fd02 f   libucrt:mbstowcs.obj
 0001:0005ed1f       __ehhandler$?write_double_translated_ansi_nolock@@YA?AUwrite_result@?A0x17268360@@HQBDIAAV__crt_cached_ptd_host@@@Z 0045fd1f f   libucrt:write.obj
 0001:0005ed50       ??__Fmapfilenames@@YAXXZ   0045fd50 f   server.obj
 0001:0005ed80       ??__Fserverconfigs@@YAXXZ  0045fd80 f   server.obj
 0001:0005edb0       ??__Fvitas@@YAXXZ          0045fdb0 f   server.obj
 0001:0005ee10       ??__Fcursgame@@YAXXZ       0045fe10 f   server.obj
 0001:0005ee40       ??__Fgamesuggestions@@YAXXZ 0045fe40 f   server.obj
 0001:0005ee70       ??__Fservermaps@@YAXXZ     0045fe70 f   server.obj
 0001:0005eea0       ??__Fserverparameters@@YAXXZ 0045fea0 f   server.obj
 0001:0005eee0       ??__Fscl@@YAXXZ            0045fee0 f   server.obj
 0001:0005ef10       ??__Fmaprot@@YAXXZ         0045ff10 f   server.obj
 0001:0005ef20       ??__Fipblacklist@@YAXXZ    0045ff20 f   server.obj
 0001:0005ef30       ??__Fgeoiplist@@YAXXZ      0045ff30 f   server.obj
 0001:0005ef40       ??__Fnickblacklist@@YAXXZ  0045ff40 f   server.obj
 0001:0005ef50       ??__Fforbiddenlist@@YAXXZ  0045ff50 f   server.obj
 0001:0005ef90       ??__Fpasswords@@YAXXZ      0045ff90 f   server.obj
 0001:0005efa0       ??__Fserverinfoinfo@@YAXXZ 0045ffa0 f   server.obj
 0001:0005efb0       ??__Fserverinfomotd@@YAXXZ 0045ffb0 f   server.obj
 0001:0005efc0       ??__Fclients@@YAXXZ        0045ffc0 f   server.obj
 0001:0005eff0       ??__Fworldstates@@YAXXZ    0045fff0 f   server.obj
 0001:0005f020       ??__Fsavedscores@@YAXXZ    00460020 f   server.obj
 0001:0005f050       ??__Fbans@@YAXXZ           00460050 f   server.obj
 0001:0005f080       ??__Fservermapstodelete@?1??poll_serverthreads@@YAXXZ@YAXXZ 00460080 f   server.obj
 0001:0005f0b0       ??__Fdemos@@YAXXZ          004600b0 f   server.obj
 0001:0005f110       ??__Fsem_demoworkerthread@@YAXXZ 00460110 f   server.obj
 0001:0005f130       ??__Fsdistrib@@YAXXZ       00460130 f   server.obj
 0001:0005f160       ??__Fshuffle@@YAXXZ        00460160 f   server.obj
 0001:0005f190       ??__Fgbans@@YAXXZ          00460190 f   server.obj
 0001:0005f1c0       ??__Fservinfoauth_deferred@@YAXXZ 004601c0 f   server.obj
 0001:0005f1e0       ??__Fmasterin@@YAXXZ       004601e0 f   serverms.obj
 0001:0005f210       ??__Fmasterout@@YAXXZ      00460210 f   serverms.obj
 0001:0005f240       ??__Fcerts@@YAXXZ          00460240 f   crypto.obj
 0001:0005f270       ??__Fcertblacklist@@YAXXZ  00460270 f   crypto.obj
 0001:0005f2d0       ??__Fmainlogsem@@YAXXZ     004602d0 f   log.obj
 0001:0005f2f0       ??__Fthreadlogfullsem@@YAXXZ 004602f0 f   log.obj
 0001:0005f310       ??__Fthreadlogsem@@YAXXZ   00460310 f   log.obj
 0001:0005f330       ??__Fpackagedirs@@YAXXZ    00460330 f   stream.obj
 0001:0005f360       ??__Foldthreads@@YAXXZ     00460360 f   tools.obj
 0001:0005f390       ??__Fsem_oldthreads@@YAXXZ 00460390 f   tools.obj
 0001:0005f3b0       ??__Fstrbuf@?1??escapestring@@YAPBDPBD_N1PAU?$vector@D@@@Z@YAXXZ 004603b0 f   protocol1.obj
 0002:000002b0       ?pre_cpp_initializer@@3P6AXXZA 004612b0     LIBCMT:exe_main.obj
 0002:000002b4       ?mapfilenames$initializer$@@3P6AXXZA 004612b4     server.obj
 0002:000002b8       ?serverconfigs$initializer$@@3P6AXXZA 004612b8     server.obj
 0002:000002bc       ?__sdummy_use_hx_modeinfo$initializer$@@3P6AXXZA 004612bc     server.obj
 0002:000002c0       ?vitas$initializer$@@3P6AXXZA 004612c0     server.obj
 0002:000002c4       ?cursgame$initializer$@@3P6AXXZA 004612c4     server.obj
 0002:000002c8       ?servermaps$initializer$@@3P6AXXZA 004612c8     server.obj
 0002:000002cc       ?gamesuggestions$initializer$@@3P6AXXZA 004612cc     server.obj
 0002:000002d0       ?serverparameters$initializer$@@3P6AXXZA 004612d0     server.obj
 0002:000002d4       ?scl$initializer$@@3P6AXXZA 004612d4     server.obj
 0002:000002d8       ?maprot$initializer$@@3P6AXXZA 004612d8     server.obj
 0002:000002dc       ?ipblacklist$initializer$@@3P6AXXZA 004612dc     server.obj
 0002:000002e0       ?geoiplist$initializer$@@3P6AXXZA 004612e0     server.obj
 0002:000002e4       ?nickblacklist$initializer$@@3P6AXXZA 004612e4     server.obj
 0002:000002e8       ?forbiddenlist$initializer$@@3P6AXXZA 004612e8     server.obj
 0002:000002ec       ?passwords$initializer$@@3P6AXXZA 004612ec     server.obj
 0002:000002f0       ?serverinfoinfo$initializer$@@3P6AXXZA 004612f0     server.obj
 0002:000002f4       ?serverinfomotd$initializer$@@3P6AXXZA 004612f4     server.obj
 0002:000002f8       ?clients$initializer$@@3P6AXXZA 004612f8     server.obj
 0002:000002fc       ?worldstates$initializer$@@3P6AXXZA 004612fc     server.obj
 0002:00000300       ?savedscores$initializer$@@3P6AXXZA 00461300     server.obj
 0002:00000304       ?bans$initializer$@@3P6AXXZA 00461304     server.obj
 0002:00000308       ?dumpmaprot$initializer$@@3P6AXXZA 00461308     server.obj
 0002:0000030c       ?dumpparameters$initializer$@@3P6AXXZA 0046130c     server.obj
 0002:00000310       ?vitamaxage$initializer$@@3P6AXXZA 00461310     server.obj
 0002:00000314       ?gamepenalty_cutoff$initializer$@@3P6AXXZA 00461314     server.obj
 0002:00000318       ?gamepenalty_random$initializer$@@3P6AXXZA 00461318     server.obj
 0002:0000031c       ?mappenalty_cutoff$initializer$@@3P6AXXZA 0046131c     server.obj
 0002:00000320       ?mappenalty_weight$initializer$@@3P6AXXZA 00461320     server.obj
 0002:00000324       ?modepenalty_weight$initializer$@@3P6AXXZA 00461324     server.obj
 0002:00000328       ?dumpsuggestions$initializer$@@3P6AXXZA 00461328     server.obj
 0002:0000032c       ?demo_max_number$initializer$@@3P6AXXZA 0046132c     server.obj
 0002:00000330       ?demo_save$initializer$@@3P6AXXZA 00461330     server.obj
 0002:00000334       ?__sdummy_demo_path$initializer$@@3P6AXXZA 00461334     server.obj
 0002:00000338       ?__sdummy_demo_filenameformat$initializer$@@3P6AXXZA 00461338     server.obj
 0002:0000033c       ?__sdummy_demo_timestampformat$initializer$@@3P6AXXZA 0046133c     server.obj
 0002:00000340       ?demo_debug$initializer$@@3P6AXXZA 00461340     server.obj
 0002:00000344       ?demos$initializer$@@3P6AXXZA 00461344     server.obj
 0002:00000348       ?sem_demoworkerthread$initializer$@@3P6AXXZA 00461348     server.obj
 0002:0000034c       ?sdistrib$initializer$@@3P6AXXZA 0046134c     server.obj
 0002:00000350       ?shuffle$initializer$@@3P6AXXZA 00461350     server.obj
 0002:00000354       ?gbans$initializer$@@3P6AXXZA 00461354     server.obj
 0002:00000358       ?servinfoauth_deferred$initializer$@@3P6AXXZA 00461358     server.obj
 0002:0000035c       ?auth_verify_ip$initializer$@@3P6AXXZA 0046135c     server.obj
 0002:00000360       ?mandatory_auth$initializer$@@3P6AXXZA 00461360     server.obj
 0002:00000364       ?logthreshold_console$initializer$@@3P6AXXZA 00461364     server.obj
 0002:00000368       ?logthreshold_syslog$initializer$@@3P6AXXZA 00461368     server.obj
 0002:0000036c       ?logthreshold_file$initializer$@@3P6AXXZA 0046136c     server.obj
 0002:00000370       ?stat_mainlog_peaklevel$initializer$@@3P6AXXZA 00461370     server.obj
 0002:00000374       ?stat_theadlog_peaklevel$initializer$@@3P6AXXZA 00461374     server.obj
 0002:00000378       ?masterout$initializer$@@3P6AXXZA 00461378     serverms.obj
 0002:0000037c       ?masterin$initializer$@@3P6AXXZA 0046137c     serverms.obj
 0002:00000380       ?certs$initializer$@@3P6AXXZA 00461380     crypto.obj
 0002:00000384       ?certblacklist$initializer$@@3P6AXXZA 00461384     crypto.obj
 0002:00000388       ?threadlogsem$initializer$@@3P6AXXZA 00461388     log.obj
 0002:0000038c       ?threadlogfullsem$initializer$@@3P6AXXZA 0046138c     log.obj
 0002:00000390       ?mainlogsem$initializer$@@3P6AXXZA 00461390     log.obj
 0002:00000394       ?packagedirs$initializer$@@3P6AXXZA 00461394     stream.obj
 0002:00000398       ?oldthreads$initializer$@@3P6AXXZA 00461398     tools.obj
 0002:0000039c       ?sem_oldthreads$initializer$@@3P6AXXZA 0046139c     tools.obj
 0002:000003a0       ?mainthreadid$initializer$@@3P6AXXZA 004613a0     tools.obj
 0002:000003a4       ?gzbuf$initializer$@@3P6AXXZA 004613a4     protocol1.obj
 0002:000003b0       ?pre_c_initializer@@3P6AHXZA 004613b0     LIBCMT:exe_main.obj
 0002:000003b4       ?post_pgo_initializer@@3P6AHXZA 004613b4     LIBCMT:exe_main.obj
 0002:000004e0       _commandSizes              004614e0     enet:protocol.o
 0002:00000520       _GS_ExceptionPointers      00461520     LIBCMT:gs_report.obj
 0002:00000598       ?tokenTable@@3QBUStringLiteral@@B 00461598     libvcruntime:undname.obj
 0002:00000620       ?nameTable@@3QBUStringLiteral@@B 00461620     libvcruntime:undname.obj
 0002:000008b8       ?rttiTable@@3QBUStringLiteral@@B 004618b8     libvcruntime:undname.obj
 0002:000008e0       ?IndirectionName@@3QBUStringLiteral@@B 004618e0     libvcruntime:undname.obj
 0002:00000910       ?PrefixName@@3QBUStringLiteral@@B 00461910     libvcruntime:undname.obj
 0002:00000f40       ?module_names@?A0x14174aea@@3QBQB_WB 00461f40     libvcruntime:winapi_downlevel.obj
 0002:00000fe8       ?candidate_modules@?1??try_get_FlsAlloc@@YAP6GKP6GXPAX@Z@ZXZ@4QBW4module_id@?A0x14174aea@@B 00461fe8     libvcruntime:winapi_downlevel.obj
 0002:00000ffc       ?candidate_modules@?1??try_get_FlsFree@@YAP6GHK@ZXZ@4QBW4module_id@?A0x14174aea@@B 00461ffc     libvcruntime:winapi_downlevel.obj
 0002:0000100c       ?candidate_modules@?1??try_get_FlsGetValue@@YAP6GPAXK@ZXZ@4QBW4module_id@?A0x14174aea@@B 0046200c     libvcruntime:winapi_downlevel.obj
 0002:00001020       ?candidate_modules@?1??try_get_FlsSetValue@@YAP6GHKPAX@ZXZ@4QBW4module_id@?A0x14174aea@@B 00462020     libvcruntime:winapi_downlevel.obj
 0002:00001034       ?candidate_modules@?1??try_get_InitializeCriticalSectionEx@@YAP6GHPAU_RTL_CRITICAL_SECTION@@KK@ZXZ@4QBW4module_id@?A0x14174aea@@B 00462034     libvcruntime:winapi_downlevel.obj
 0002:00001d98       ?comspec_name@?1???$common_system@D@@YAHQBD@Z@4QBDB 00462d98     libucrt:system.obj
 0002:00001da0       ?cmd_exe@?1???$common_system@D@@YAHQBD@Z@4QBDB 00462da0     libucrt:system.obj
 0002:00001da8       ?slash_c@?1???$common_system@D@@YAHQBD@Z@4QBDB 00462da8     libucrt:system.obj
 0002:00001e50       ___acrt_initializers       00462e50     libucrt:initialization.obj
 0002:00001ed0       __first_127char            00462ed0     libucrt:wsetlocale.obj
 0002:00002048       ?module_names@?A0x391cf84c@@3QBQB_WB 00463048     libucrt:winapi_thunks.obj
 0002:00002554       ?candidate_modules@?1??try_get_AreFileApisANSI@@YAP6GHXZXZ@4QBW4module_id@?A0x391cf84c@@B 00463554     libucrt:winapi_thunks.obj
 0002:00002568       ?candidate_modules@?1??try_get_CompareStringEx@@YAP6GHPB_WK0H0HPAU_nlsversioninfo@@PAXJ@ZXZ@4QBW4module_id@?A0x391cf84c@@B 00463568     libucrt:winapi_thunks.obj
 0002:00002580       ?candidate_modules@?1??try_get_EnumSystemLocalesEx@@YAP6GHP6GHPA_WKJ@ZKJPAX@ZXZ@4QBW4module_id@?A0x391cf84c@@B 00463580     libucrt:winapi_thunks.obj
 0002:0000259c       ?candidate_modules@?1??try_get_GetDateFormatEx@@YAP6GHPB_WKPBU_SYSTEMTIME@@0PA_WH0@ZXZ@4QBW4module_id@?A0x391cf84c@@B 0046359c     libucrt:winapi_thunks.obj
 0002:000025b4       ?candidate_modules@?1??try_get_GetLocaleInfoEx@@YAP6GHPB_WKPA_WH@ZXZ@4QBW4module_id@?A0x391cf84c@@B 004635b4     libucrt:winapi_thunks.obj
 0002:000025cc       ?candidate_modules@?1??try_get_GetTimeFormatEx@@YAP6GHPB_WKPBU_SYSTEMTIME@@0PA_WH@ZXZ@4QBW4module_id@?A0x391cf84c@@B 004635cc     libucrt:winapi_thunks.obj
 0002:000025e4       ?candidate_modules@?1??try_get_GetUserDefaultLocaleName@@YAP6GHPA_WH@ZXZ@4QBW4module_id@?A0x391cf84c@@B 004635e4     libucrt:winapi_thunks.obj
 0002:00002608       ?candidate_modules@?1??try_get_InitializeCriticalSectionEx@@YAP6GHPAU_RTL_CRITICAL_SECTION@@KK@ZXZ@4QBW4module_id@?A0x391cf84c@@B 00463608     libucrt:winapi_thunks.obj
 0002:00002610       ?candidate_modules@?1??try_get_IsValidLocaleName@@YAP6GHPB_W@ZXZ@4QBW4module_id@?A0x391cf84c@@B 00463610     libucrt:winapi_thunks.obj
 0002:0000262c       ?candidate_modules@?1??try_get_LCMapStringEx@@YAP6GHPB_WK0HPA_WHPAU_nlsversioninfo@@PAXJ@ZXZ@4QBW4module_id@?A0x391cf84c@@B 0046362c     libucrt:winapi_thunks.obj
 0002:00002644       ?candidate_modules@?1??try_get_LCIDToLocaleName@@YAP6GHKPA_WHK@ZXZ@4QBW4module_id@?A0x391cf84c@@B 00463644     libucrt:winapi_thunks.obj
 0002:00002660       ?candidate_modules@?1??try_get_LocaleNameToLCID@@YAP6GKPB_WK@ZXZ@4QBW4module_id@?A0x391cf84c@@B 00463660     libucrt:winapi_thunks.obj
 0002:0000267c       ?candidate_modules@?1??try_get_RoInitialize@@YAP6GJW4RO_INIT_TYPE@@@ZXZ@4QBW4module_id@?A0x391cf84c@@B 0046367c     libucrt:winapi_thunks.obj
 0002:00002690       ?candidate_modules@?1??try_get_RoUninitialize@@YAP6GXXZXZ@4QBW4module_id@?A0x391cf84c@@B 00463690     libucrt:winapi_thunks.obj
 0002:000026a4       ?candidate_modules@?1??try_get_AppPolicyGetProcessTerminationMethod@@YAP6GJPAXPAW4AppPolicyProcessTerminationMethod@@@ZXZ@4QBW4module_id@?A0x391cf84c@@B 004636a4     libucrt:winapi_thunks.obj
 0002:000026d0       ?candidate_modules@?1??try_get_AppPolicyGetThreadInitializationType@@YAP6GJPAXPAW4AppPolicyThreadInitializationType@@@ZXZ@4QBW4module_id@?A0x391cf84c@@B 004636d0     libucrt:winapi_thunks.obj
 0002:000026fc       ?candidate_modules@?1??try_get_FlsAlloc@@YAP6GKP6GXPAX@Z@ZXZ@4QBW4module_id@?A0x391cf84c@@B 004636fc     libucrt:winapi_thunks.obj
 0002:00002704       ?candidate_modules@?1??try_get_FlsFree@@YAP6GHK@ZXZ@4QBW4module_id@?A0x391cf84c@@B 00463704     libucrt:winapi_thunks.obj
 0002:0000270c       ?candidate_modules@?1??try_get_FlsGetValue@@YAP6GPAXK@ZXZ@4QBW4module_id@?A0x391cf84c@@B 0046370c     libucrt:winapi_thunks.obj
 0002:00002714       ?candidate_modules@?1??try_get_FlsSetValue@@YAP6GHKPAX@ZXZ@4QBW4module_id@?A0x391cf84c@@B 00463714     libucrt:winapi_thunks.obj
 0002:00002be0       ?errtable@@3QBUerrentry@?A0x31fdb9ec@@B 00463be0     libucrt:errno.obj
 0002:00002d68       ?strings@?1??fp_format_nan_or_infinity@@YAHW4__acrt_fp_class@@_NPADI1@Z@4QAY03QBDA 00463d68     libucrt:cvt.obj
 0002:000035f8       ?_names@?1??_get_fname@@9@4QBU<unnamed-type-_names>@?1??1@YAPADI@Z@B 004645f8     libucrt:fpexcept.obj
 0002:000037c0       _over                      004647c0     libucrt:fpctrl.obj
 0002:000037cc       _under                     004647cc     libucrt:fpctrl.obj
 0002:00003874       ?dot_slash@?CB@???$common_spawnv@D@@YAHHQBDQBQBD1@Z@4QBDB 00464874     libucrt:spawnv.obj
 0002:00003878       ?extensions@?CP@???$common_spawnv@D@@YAHHQBDQBQBD1@Z@4QAY04$$CBDA 00464878     libucrt:spawnv.obj
 0002:00004024       ?_mb_locale_names@@3QBQB_WB 00465024     libucrt:mbctype.obj
 0002:00004e38       ?LcidToLocaleNameTable@?A0x881e4c05@@3QBULcidToLocaleName@1@B 00465e38     libucrt:lcidtoname_downlevel.obj
 0002:00005f58       ?LocaleNameToIndexTable@?A0x881e4c05@@3QBULocaleNameIndex@1@B 00466f58     libucrt:lcidtoname_downlevel.obj
 0002:00006ec8       ?equal_sign@?BD@???$construct_environment_block@D@@YAHQBQBDQAPAD@Z@4QBDB 00467ec8     libucrt:cenvarg.obj
 0002:00006ed0       LOG_name                   00467ed0     libucrt:log10_impl.obj
 0002:00006ee0       _One                       00467ee0     libucrt:ceil_pentium4.obj
 0002:00006ef0       _Bns                       00467ef0     libucrt:ceil_pentium4.obj
 0002:00006f00       _Zero                      00467f00     libucrt:ceil_pentium4.obj
 0002:00006f10       _S                         00467f10     libucrt:ceil_pentium4.obj
 0002:00006f20       _NegZero                   00467f20     libucrt:ceil_pentium4.obj
 0002:00006f40       emask                      00467f40     libucrt:log10_pentium4.obj
 0002:00006f50       CC                         00467f50     libucrt:log10_pentium4.obj
 0002:00006f60       Magic                      00467f60     libucrt:log10_pentium4.obj
 0002:00006f70       hi_mask                    00467f70     libucrt:log10_pentium4.obj
 0002:00006f80       LOG10_2                    00467f80     libucrt:log10_pentium4.obj
 0002:00006f90       place_L                    00467f90     libucrt:log10_pentium4.obj
 0002:00006fb0       One                        00467fb0     libucrt:log10_pentium4.obj
 0002:00006fc0       Zero                       00467fc0     libucrt:log10_pentium4.obj
 0002:00006fd0       Two52                      00467fd0     libucrt:log10_pentium4.obj
 0002:00006fe0       Infs                       00467fe0     libucrt:log10_pentium4.obj
 0002:00006ff0       NaN                        00467ff0     libucrt:log10_pentium4.obj
 0002:00007000       coeff                      00468000     libucrt:log10_pentium4.obj
 0002:0000705e       _log2max                   0046805e     libucrt:87tran.obj
 0002:00007068       _smallarg                  00468068     libucrt:87tran.obj
 0002:00007072       _half                      00468072     libucrt:87tran.obj
 0002:000070be       One                        004680be     libucrt:87disp.obj
 0002:000070c6       Three                      004680c6     libucrt:87disp.obj
 0002:000070ce       XAMtoTagTab                004680ce     libucrt:87disp.obj
 0002:000070e0       One                        004680e0     libucrt:common.obj
 0002:000070f4       DblMax                     004680f4     libucrt:common.obj
 0002:000070fc       DblMin                     004680fc     libucrt:common.obj
 0002:00007104       IeeeAdjO                   00468104     libucrt:common.obj
 0002:0000710c       IeeeAdjU                   0046810c     libucrt:common.obj
 0002:00007114       _infinity                  00468114     libucrt:common.obj
 0002:0000711c       _zero                      0046811c     libucrt:common.obj
 0002:00007960       two32                      00468960     LIBCMT:ftol2.obj
 0002:00007964       two63                      00468964     LIBCMT:ftol2.obj
 0002:00007968       _NaN                       00468968     LIBCMT:ftol2.obj
 0002:0000bb18       ?islittleendian@@3HB       0046cb18     server.obj
 0002:0000bd2c       ?islittleendian@@3HB       0046cd2c     crypto.obj
 0002:0000bd7c       ?certheader@@3PBDB         0046cd7c     crypto.obj
 0002:0000bdc4       ?hexdigits@@3PBDB          0046cdc4     crypto.obj
 0002:0000bdc8       ?islittleendian@@3HB       0046cdc8     tools.obj
 0002:0000bdcc       ?islittleendian@@3HB       0046cdcc     protocol1.obj
 0002:0000bdd0       ?mu@@3QBIB                 0046cdd0     crypto.obj
 0002:0000be60       ?ge25519_ec2d@@3Ufe25519@@B 0046ce60     crypto.obj
 0002:0000bee0       ?ge25519_base@@3Uge25519@@B 0046cee0     crypto.obj
 0002:0000c0e0       ?m@@3QBIB                  0046d0e0     crypto.obj
 0002:0000c160       ?ge25519_sqrtm1@@3Ufe25519@@B 0046d160     crypto.obj
 0002:0000c1e0       ?ge25519_ecd@@3Ufe25519@@B 0046d1e0     crypto.obj
 0002:0000c260       ?ge25519_base_multiples_affine@@3QBUge25519_aff@@B 0046d260     crypto.obj
 0002:00026b60       ?levels@@3QBHB             00487b60     log.obj
 0002:00026b80       ?levelprefix@@3PAPBDA      00487b80     log.obj
 0002:00026b94       ?levelname@@3PAPBDA        00487b94     log.obj
 0002:00026bac       ?transformenttab@@3QBEB    00487bac     tools.obj
 0002:00026bd0       ?lastclactions@@3QBHB      00487bd0     protocol1.obj
 0002:00026c60       ?msgsizes@@3QBHB           00487c60     protocol1.obj
 0002:00026fd8       ?certheaderlen@@3HB        00487fd8     crypto.obj
 0002:00027040       ?servtypes@?1??checktype@@YAHHPAUclient@@@Z@4PAHA 00488040     server.obj
 0002:000271d0       ?edittypes@?1??checktype@@YAHHPAUclient@@@Z@4PAHA 004881d0     server.obj
 0002:000275d0       ?K@?1??sha512_compress@@YAXPA_KPBE@Z@4QB_KB 004885d0     crypto.obj
 0002:00028930       ?kick@?1??disc_reason@@YAPBDH@Z@4PAPBDA 00489930     protocol1.obj
 0002:00028960       ?prot@?1??disc_reason@@YAPBDH@Z@4PAPBDA 00489960     protocol1.obj
 0002:00028988       ?removed@?1??disc_reason@@YAPBDH@Z@4PAPBDA 00489988     protocol1.obj
 0002:000289ac       ?refused@?1??disc_reason@@YAPBDH@Z@4PAPBDA 004899ac     protocol1.obj
 0002:00028ae0       _NAME_                     00489ae0     libucrt:sqrt_impl.obj
 0002:00029d78       __sehtable$___scrt_is_nonwritable_in_current_image 0048ad78     LIBCMT:utility.obj
 0002:00029d98       __sehtable$?__scrt_common_main_seh@@YAHXZ 0048ad98     LIBCMT:exe_main.obj
 0002:00029e48       __sehtable$___DestructExceptionObject 0048ae48     libvcruntime:ehhelpers.obj
 0002:00029e68       __sehtable$?FrameUnwindToState@__FrameHandler3@@SAXPAUEHRegistrationNode@@PAXPBU_s_FuncInfo@@H@Z 0048ae68     libvcruntime:frame.obj
 0002:00029e90       __sehtable$?CallCatchBlock@@YAPAXPAUEHExceptionRecord@@PAUEHRegistrationNode@@PAU_CONTEXT@@PBU_s_FuncInfo@@PAXHK@Z 0048ae90     libvcruntime:frame.obj
 0002:00029eb8       __catchsym$?CallUnexpected@@YAXPBU_s_ESTypeList@@@Z$2 0048aeb8     libvcruntime:frame.obj
 0002:00029ec8       __unwindtable$?CallUnexpected@@YAXPBU_s_ESTypeList@@@Z 0048aec8     libvcruntime:frame.obj
 0002:00029ed8       __tryblocktable$?CallUnexpected@@YAXPBU_s_ESTypeList@@@Z 0048aed8     libvcruntime:frame.obj
 0002:00029eec       __ehfuncinfo$?CallUnexpected@@YAXPBU_s_ESTypeList@@@Z 0048aeec     libvcruntime:frame.obj
 0002:00029f10       __sehtable$??$BuildCatchObjectHelperInternal@V__FrameHandler3@@@@YAHPAUEHExceptionRecord@@PAXPBU_s_HandlerType@@PBU_s_CatchableType@@@Z 0048af10     libvcruntime:frame.obj
 0002:00029f30       __sehtable$??$BuildCatchObjectInternal@V__FrameHandler3@@@@YAXPAUEHExceptionRecord@@PAXPBU_s_HandlerType@@PBU_s_CatchableType@@@Z 0048af30     libvcruntime:frame.obj
 0002:00029f84       __ehfuncinfo$?_mbstowcs_l_helper@@YAIPA_WPBDIAAV__crt_cached_ptd_host@@@Z 0048af84     libucrt:mbstowcs.obj
 0002:00029f84       __ehfuncinfo$?write_double_translated_ansi_nolock@@YA?AUwrite_result@?A0x17268360@@HQBDIAAV__crt_cached_ptd_host@@@Z 0048af84     libucrt:write.obj
 0002:00029f84       __ehfuncinfo$?try_cor_exit_process@@YAXI@Z 0048af84     libucrt:exit.obj
 0002:00029fa8       __unwindtable$?common_exit@@YAXHW4_crt_exit_cleanup_mode@@W4_crt_exit_return_mode@@@Z 0048afa8     libucrt:exit.obj
 0002:00029fb0       __ehfuncinfo$?common_exit@@YAXHW4_crt_exit_cleanup_mode@@W4_crt_exit_return_mode@@@Z 0048afb0     libucrt:exit.obj
 0002:00029fd8       __sehtable$??R<lambda_6e4b09c48022b2350581041d5f6b0c4c>@@QBE@XZ 0048afd8     libucrt:exit.obj
 0002:00029ff8       __sehtable$??$?RV<lambda_03b1d95aef87969028cfba75ccab2455>@@AAV<lambda_6e4b09c48022b2350581041d5f6b0c4c>@@V<lambda_22bdf7517842c4b3e53723af5aa32b9e>@@@?$__crt_seh_guarded_call@X@@QAEX$$QAV<lambda_03b1d95aef87969028cfba75ccab2455>@@AAV<lambda_6e4b09c48022b2350581041d5f6b0c4c>@@$$QAV<lambda_22bdf7517842c4b3e53723af5aa32b9e>@@@Z 0048aff8     libucrt:exit.obj
 0002:0002a018       __sehtable$??$?RV<lambda_f5952838e36297a1e2e9d6c748429792>@@AAV<lambda_2116bde18c9e5f34230805ea4a4660ed>@@V<lambda_3c7107de1cc98bf330a3031f42c322a3>@@@?$__crt_seh_guarded_call@PAD@@QAEPAD$$QAV<lambda_f5952838e36297a1e2e9d6c748429792>@@AAV<lambda_2116bde18c9e5f34230805ea4a4660ed>@@$$QAV<lambda_3c7107de1cc98bf330a3031f42c322a3>@@@Z 0048b018     libucrt:setlocale.obj
 0002:0002a038       __sehtable$??$common_fsopen@D@@YAPAU_iobuf@@QBD0H@Z 0048b038     libucrt:fopen.obj
 0002:0002a058       __sehtable$?_fclose_internal@@YAHQAU_iobuf@@AAV__crt_cached_ptd_host@@@Z 0048b058     libucrt:fclose.obj
 0002:0002a078       __sehtable$??$?RV<lambda_9fd0146d8887c94a05b904783845dbe3>@@AAV<lambda_6adc7e3a23ba0bcf2ed85f63d6332a84>@@V<lambda_263a6ae15fc668da2ea63694c172d2eb>@@@?$__crt_seh_guarded_call@H@@QAEH$$QAV<lambda_9fd0146d8887c94a05b904783845dbe3>@@AAV<lambda_6adc7e3a23ba0bcf2ed85f63d6332a84>@@$$QAV<lambda_263a6ae15fc668da2ea63694c172d2eb>@@@Z 0048b078     libucrt:puts.obj
 0002:0002a098       __sehtable$??$?RV<lambda_62491a2101a2aba6cc4a769149c84f1f>@@AAV<lambda_826c27fce7726908515bbc79a5266961>@@V<lambda_4e64bbd54b50a7b070e3ea8d795375b6>@@@?$__crt_seh_guarded_call@H@@QAEH$$QAV<lambda_62491a2101a2aba6cc4a769149c84f1f>@@AAV<lambda_826c27fce7726908515bbc79a5266961>@@$$QAV<lambda_4e64bbd54b50a7b070e3ea8d795375b6>@@@Z 0048b098     libucrt:output.obj
 0002:0002a0b8       __sehtable$??$?RV<lambda_76055cf4b68c1f980da8b7496a3ae623>@@AAV<lambda_26974eb511f701c600fccfa2a97a8e1b>@@V<lambda_0062726809bb3c529c0733aa37379daf>@@@?$__crt_seh_guarded_call@I@@QAEI$$QAV<lambda_76055cf4b68c1f980da8b7496a3ae623>@@AAV<lambda_26974eb511f701c600fccfa2a97a8e1b>@@$$QAV<lambda_0062726809bb3c529c0733aa37379daf>@@@Z 0048b0b8     libucrt:fwrite.obj
 0002:0002a0d8       __sehtable$_signal         0048b0d8     libucrt:signal.obj
 0002:0002a0f8       __sehtable$_raise          0048b0f8     libucrt:signal.obj
 0002:0002a118       __sehtable$?ctrlevent_capture@@YGHK@Z 0048b118     libucrt:signal.obj
 0002:0002a138       __sehtable$??$?RV<lambda_cbab9ec6f41b0180b23cc171c22676b0>@@AAV<lambda_44731a7d0e6d81c3e6aa82d741081786>@@V<lambda_4b292cb8dd18144e164572427af410ab>@@@?$__crt_seh_guarded_call@P6AXH@Z@@QAEP6AXH@Z$$QAV<lambda_cbab9ec6f41b0180b23cc171c22676b0>@@AAV<lambda_44731a7d0e6d81c3e6aa82d741081786>@@$$QAV<lambda_4b292cb8dd18144e164572427af410ab>@@@Z 0048b138     libucrt:signal.obj
 0002:0002a158       __sehtable$??$common_ftell@J@@YAJV__crt_stdio_stream@@AAV__crt_cached_ptd_host@@@Z 0048b158     libucrt:ftell.obj
 0002:0002a178       __sehtable$?_fputc_internal@@YAHHQAU_iobuf@@AAV__crt_cached_ptd_host@@@Z 0048b178     libucrt:fputc.obj
 0002:0002a198       __sehtable$??$?RV<lambda_2866be3712abc81a800a822484c830d8>@@AAV<lambda_39ca0ed439415581b5b15c265174cece>@@V<lambda_2b24c74d71094a6cd0cb82e44167d71b>@@@?$__crt_seh_guarded_call@X@@QAEX$$QAV<lambda_2866be3712abc81a800a822484c830d8>@@AAV<lambda_39ca0ed439415581b5b15c265174cece>@@$$QAV<lambda_2b24c74d71094a6cd0cb82e44167d71b>@@@Z 0048b198     libucrt:fflush.obj
 0002:0002a1b8       __sehtable$??$?RV<lambda_2cc53f568c5a2bb6f192f930a45d44ea>@@AAV<lambda_ab61a845afdef5b7c387490eaf3616ee>@@V<lambda_c2ffc0b7726aa6be21d5f0026187e748>@@@?$__crt_seh_guarded_call@X@@QAEX$$QAV<lambda_2cc53f568c5a2bb6f192f930a45d44ea>@@AAV<lambda_ab61a845afdef5b7c387490eaf3616ee>@@$$QAV<lambda_c2ffc0b7726aa6be21d5f0026187e748>@@@Z 0048b1b8     libucrt:fflush.obj
 0002:0002a1d8       __sehtable$??$?RV<lambda_6d20deecaf4856105ebacbad442d1079>@@AAV<lambda_9a32fed5bf61b6b509b2d3f6003082a1>@@V<lambda_63ea2239ed67c638ddbae41947fdf875>@@@?$__crt_seh_guarded_call@H@@QAEH$$QAV<lambda_6d20deecaf4856105ebacbad442d1079>@@AAV<lambda_9a32fed5bf61b6b509b2d3f6003082a1>@@$$QAV<lambda_63ea2239ed67c638ddbae41947fdf875>@@@Z 0048b1d8     libucrt:fflush.obj
 0002:0002a1f8       __sehtable$?common_fseek@@YAHV__crt_stdio_stream@@_JHAAV__crt_cached_ptd_host@@@Z 0048b1f8     libucrt:fseek.obj
 0002:0002a218       __sehtable$_fgetc          0048b218     libucrt:fgetc.obj
 0002:0002a238       __sehtable$??$common_fgets@D@@YAPADQADHV__crt_stdio_stream@@@Z 0048b238     libucrt:fgets.obj
 0002:0002a258       __sehtable$??$?RV<lambda_54fa853c3b765c2b4b1410f472469e5b>@@AAV<lambda_4a956f1bc1068419e4c4ed83e6976b3a>@@V<lambda_10bbaeaae921572e76cb803f49107517>@@@?$__crt_seh_guarded_call@H@@QAEH$$QAV<lambda_54fa853c3b765c2b4b1410f472469e5b>@@AAV<lambda_4a956f1bc1068419e4c4ed83e6976b3a>@@$$QAV<lambda_10bbaeaae921572e76cb803f49107517>@@@Z 0048b258     libucrt:fputs.obj
 0002:0002a278       __sehtable$_fread_s        0048b278     libucrt:fread.obj
 0002:0002a298       __sehtable$??$thread_start@P6GIPAX@Z$00@@YGKQAX@Z 0048b298     libucrt:thread.obj
 0002:0002a2b8       __sehtable$?_perror_internal@@YAXQBDAAV__crt_cached_ptd_host@@@Z 0048b2b8     libucrt:perror.obj
 0002:0002a2d8       __sehtable$__query_new_handler 0048b2d8     libucrt:new_handler.obj
 0002:0002a2f4       __unwindtable$___dcrt_uninitialize_environments_nolock 0048b2f4     libucrt:environment_initialization.obj
 0002:0002a304       __ehfuncinfo$___dcrt_uninitialize_environments_nolock 0048b304     libucrt:environment_initialization.obj
 0002:0002a328       __unwindtable$__execute_onexit_table 0048b328     libucrt:onexit.obj
 0002:0002a330       __ehfuncinfo$__execute_onexit_table 0048b330     libucrt:onexit.obj
 0002:0002a358       __sehtable$??$?RV<lambda_8e746cf0007f6ed984d6f78af1fec997>@@AAV<lambda_22ebabd17bc4fa466a2aca6d8deb888d>@@V<lambda_18ed0c0b38a6dc0daf1e7ac6d6adf05e>@@@?$__crt_seh_guarded_call@H@@QAEH$$QAV<lambda_8e746cf0007f6ed984d6f78af1fec997>@@AAV<lambda_22ebabd17bc4fa466a2aca6d8deb888d>@@$$QAV<lambda_18ed0c0b38a6dc0daf1e7ac6d6adf05e>@@@Z 0048b358     libucrt:onexit.obj
 0002:0002a378       __sehtable$??$?RV<lambda_69a2805e680e0e292e8ba93315fe43a8>@@AAV<lambda_f03950bc5685219e0bcd2087efbe011e>@@V<lambda_03fcd07e894ec930e3f35da366ca99d6>@@@?$__crt_seh_guarded_call@H@@QAEH$$QAV<lambda_69a2805e680e0e292e8ba93315fe43a8>@@AAV<lambda_f03950bc5685219e0bcd2087efbe011e>@@$$QAV<lambda_03fcd07e894ec930e3f35da366ca99d6>@@@Z 0048b378     libucrt:onexit.obj
 0002:0002a398       __sehtable$??$?RV<lambda_e5124f882df8998aaf41531e079ba474>@@AAV<lambda_3e16ef9562a7dcce91392c22ab16ea36>@@V<lambda_e25ca0880e6ef98be67edffd8c599615>@@@?$__crt_seh_guarded_call@X@@QAEX$$QAV<lambda_e5124f882df8998aaf41531e079ba474>@@AAV<lambda_3e16ef9562a7dcce91392c22ab16ea36>@@$$QAV<lambda_e25ca0880e6ef98be67edffd8c599615>@@@Z 0048b398     libucrt:wsetlocale.obj
 0002:0002a3b8       __sehtable$??$?RV<lambda_4fdada1b837b2abbf20876fac97688ad>@@AAV<lambda_b57350f2640456a0859d250846f69caf>@@V<lambda_eed5e4f92b5b7d55fa22c48c484aaa54>@@@?$__crt_seh_guarded_call@X@@QAEX$$QAV<lambda_4fdada1b837b2abbf20876fac97688ad>@@AAV<lambda_b57350f2640456a0859d250846f69caf>@@$$QAV<lambda_eed5e4f92b5b7d55fa22c48c484aaa54>@@@Z 0048b3b8     libucrt:wsetlocale.obj
 0002:0002a3d8       __sehtable$??$?RV<lambda_ac03c5d59bd18b09cb88b28331f6bfed>@@AAV<lambda_2a444430fde8c29194d880d93eed5e8f>@@AAV<lambda_02db5278e8aef8b5e4976579d73f5304>@@@?$__crt_seh_guarded_call@X@@QAEX$$QAV<lambda_ac03c5d59bd18b09cb88b28331f6bfed>@@AAV<lambda_2a444430fde8c29194d880d93eed5e8f>@@AAV<lambda_02db5278e8aef8b5e4976579d73f5304>@@@Z 0048b3d8     libucrt:wsetlocale.obj
 0002:0002a3f8       __sehtable$_terminate      0048b3f8     libucrt:terminate.obj
 0002:0002a418       __sehtable$??$?RV<lambda_15ade71b0218206bbe3333a0c9b79046>@@AAV<lambda_da44e0f8b0f19ba52fefafb335991732>@@V<lambda_207f2d024fc103971653565357d6cd41>@@@?$__crt_seh_guarded_call@X@@QAEX$$QAV<lambda_15ade71b0218206bbe3333a0c9b79046>@@AAV<lambda_da44e0f8b0f19ba52fefafb335991732>@@$$QAV<lambda_207f2d024fc103971653565357d6cd41>@@@Z 0048b418     libucrt:per_thread_data.obj
 0002:0002a438       __sehtable$??$?RV<lambda_a7e850c220f1c8d1e6efeecdedd162c6>@@AAV<lambda_46720907175c18b6c9d2717bc0d2d362>@@V<lambda_9048902d66e8d99359bc9897bbb930a8>@@@?$__crt_seh_guarded_call@X@@QAEX$$QAV<lambda_a7e850c220f1c8d1e6efeecdedd162c6>@@AAV<lambda_46720907175c18b6c9d2717bc0d2d362>@@$$QAV<lambda_9048902d66e8d99359bc9897bbb930a8>@@@Z 0048b438     libucrt:per_thread_data.obj
 0002:0002a458       __sehtable$??$?RV<lambda_38edbb1296d33220d7e4dd0ed76b244a>@@AAV<lambda_5ce1d447e08cb34b2473517608e21441>@@V<lambda_fb385d3da700c9147fc39e65dd577a8c>@@@?$__crt_seh_guarded_call@X@@QAEX$$QAV<lambda_38edbb1296d33220d7e4dd0ed76b244a>@@AAV<lambda_5ce1d447e08cb34b2473517608e21441>@@$$QAV<lambda_fb385d3da700c9147fc39e65dd577a8c>@@@Z 0048b458     libucrt:per_thread_data.obj
 0002:0002a478       __sehtable$??$?RV<lambda_6affb1475c98b40b75cdec977db92e3c>@@AAV<lambda_b8d4b9c228a6ecc3f80208dbb4b4a104>@@V<lambda_608742c3c92a14382c1684fc64f96c88>@@@?$__crt_seh_guarded_call@X@@QAEX$$QAV<lambda_6affb1475c98b40b75cdec977db92e3c>@@AAV<lambda_b8d4b9c228a6ecc3f80208dbb4b4a104>@@$$QAV<lambda_608742c3c92a14382c1684fc64f96c88>@@@Z 0048b478     libucrt:per_thread_data.obj
 0002:0002a498       __sehtable$??$?RV<lambda_6b4b7855443974f2b4b77000ea21c99c>@@AAV<lambda_8f7d3b162ab39427f4fa9995c67a7986>@@V<lambda_cc9a5ba8a5d8428b9634eab82665e5dc>@@@?$__crt_seh_guarded_call@H@@QAEH$$QAV<lambda_6b4b7855443974f2b4b77000ea21c99c>@@AAV<lambda_8f7d3b162ab39427f4fa9995c67a7986>@@$$QAV<lambda_cc9a5ba8a5d8428b9634eab82665e5dc>@@@Z 0048b498     libucrt:winapi_thunks.obj
 0002:0002a4b8       __sehtable$?__acrt_stdio_allocate_stream@@YA?AV__crt_stdio_stream@@XZ 0048b4b8     libucrt:stream.obj
 0002:0002a4d8       __sehtable$__fcloseall     0048b4d8     libucrt:closeall.obj
 0002:0002a4f8       __sehtable$___acrt_initialize_lowio 0048b4f8     libucrt:ioinit.obj
 0002:0002a518       __sehtable$??$?RV<lambda_d422a76eb4c3bf3ad751449ab71a6ea4>@@AAV<lambda_c9ba49e555ba839a7b07aa3fbecb7617>@@V<lambda_9476263c8ee91a25d21c55370bdb50de>@@@?$__crt_seh_guarded_call@H@@QAEH$$QAV<lambda_d422a76eb4c3bf3ad751449ab71a6ea4>@@AAV<lambda_c9ba49e555ba839a7b07aa3fbecb7617>@@$$QAV<lambda_9476263c8ee91a25d21c55370bdb50de>@@@Z 0048b518     libucrt:close.obj
 0002:0002a538       __sehtable$__write_internal 0048b538     libucrt:write.obj
 0002:0002a558       __sehtable$___set_fpsr_sse2 0048b558     libucrt:fpctrl.obj
 0002:0002a578       __sehtable$??$common_lseek@_J@@YA_JH_JHAAV__crt_cached_ptd_host@@@Z 0048b578     libucrt:lseek.obj
 0002:0002a598       __sehtable$__read          0048b598     libucrt:read.obj
 0002:0002a5b8       __sehtable$??$?RV<lambda_9e9de3de5fa147e2223d7db92bc10aa6>@@AAV<lambda_38ce7e780aa69e748d6df282ebc68efe>@@V<lambda_8ca6da459f0f6780f1cff60fdc3d00e5>@@@?$__crt_seh_guarded_call@H@@QAEH$$QAV<lambda_9e9de3de5fa147e2223d7db92bc10aa6>@@AAV<lambda_38ce7e780aa69e748d6df282ebc68efe>@@$$QAV<lambda_8ca6da459f0f6780f1cff60fdc3d00e5>@@@Z 0048b5b8     libucrt:commit.obj
 0002:0002a5d8       __sehtable$__isindst       0048b5d8     libucrt:tzset.obj
 0002:0002a5f8       __sehtable$___tzset        0048b5f8     libucrt:tzset.obj
 0002:0002a618       __sehtable$??$common_getenv_s@_W@@YAHQAIQA_WIQB_W@Z 0048b618     libucrt:getenv.obj
 0002:0002a638       __sehtable$??$common_dupenv_s@D@@YAHQAPADQAIQBDH2H@Z 0048b638     libucrt:getenv.obj
 0002:0002a658       __sehtable$??$?RV<lambda_1f7e3ac85ca3635646511ad93ac0febe>@@AAV<lambda_555255fdfb9471e5fa7bfca50021c162>@@V<lambda_24f51f8b0c33fe186c624e6675644b7a>@@@?$__crt_seh_guarded_call@_N@@QAE_N$$QAV<lambda_1f7e3ac85ca3635646511ad93ac0febe>@@AAV<lambda_555255fdfb9471e5fa7bfca50021c162>@@$$QAV<lambda_24f51f8b0c33fe186c624e6675644b7a>@@@Z 0048b658     libucrt:spawnv.obj
 0002:0002a678       __sehtable$__alloc_osfhnd  0048b678     libucrt:osfinfo.obj
 0002:0002a698       __sehtable$___acrt_lowio_ensure_fh_exists 0048b698     libucrt:osfinfo.obj
 0002:0002a6b8       __sehtable$?update_thread_multibyte_data_internal@@YAPAU__crt_multibyte_data@@QAU__acrt_ptd@@QAPAU1@@Z 0048b6b8     libucrt:mbctype.obj
 0002:0002a6d8       __sehtable$??$?RV<lambda_ceb1ee4838e85a9d631eb091e2fbe199>@@AAV<lambda_ae742caa10f662c28703da3d2ea5e57e>@@V<lambda_cd08b5d6af4937fe54fc07d0c9bf6b37>@@@?$__crt_seh_guarded_call@X@@QAEX$$QAV<lambda_ceb1ee4838e85a9d631eb091e2fbe199>@@AAV<lambda_ae742caa10f662c28703da3d2ea5e57e>@@$$QAV<lambda_cd08b5d6af4937fe54fc07d0c9bf6b37>@@@Z 0048b6d8     libucrt:mbctype.obj
 0002:0002a6f8       __sehtable$___acrt_update_thread_locale_data 0048b6f8     libucrt:locale_refcounting.obj
 0002:0002a718       __sehtable$??$common_sopen_dispatch@D@@YAHQBDHHHQAHH@Z 0048b718     libucrt:open.obj
 0002:0002a738       __sehtable$__IsNonwritableInCurrentImage 0048b738     LIBCMT:pesect.obj
 0002:0002a758       __sehtable$_main           0048b758     server.obj
 0002:0002ab3a       .idata$6                   0048bb3a     zdll:zlib1.dll
 0002:0002abea       .idata$6                   0048bbea     SDL2:SDL2.dll
 0002:0002ac0e       .idata$6                   0048bc0e     ws2_32:WS2_32.dll
 0002:0002ac4a       .idata$6                   0048bc4a     winmm:WINMM.dll
 0002:0002acc8       .idata$6                   0048bcc8     Dbghelp:dbghelp.dll
 0002:0002add0       .idata$6                   0048bdd0     kernel32:KERNEL32.dll
 0002:0002ae78       .idata$6                   0048be78     advapi32:ADVAPI32.dll
 0003:00000000       _callbacks                 0048d000     enet:callbacks.o
 0003:000000b0       ?__vcrt_flsindex@@3KA      0048d0b0     libvcruntime:per_thread_data.obj
 0003:00000184       __ctype_loc_style          0048d184     libucrt:wsetlocale.obj
 0003:00000188       ?__acrt_flsindex@@3KA      0048d188     libucrt:per_thread_data.obj
 0003:00000258       ?errno_no_memory@@3HA      0048d258     libucrt:errno.obj
 0003:0000025c       ?doserrno_no_memory@@3KA   0048d25c     libucrt:errno.obj
 0003:000002a0       ?__DAZ_ENABLED@?1??__set_fpsr_sse2@@9@9 0048d2a0     libucrt:fpctrl.obj
 0003:000003a8       ?tzstd_program@@3PADA      0048d3a8     libucrt:timeset.obj
 0003:000003e8       ?tzdst_program@@3PADA      0048d3e8     libucrt:timeset.obj
 0003:00000428       ?w_tzstd_program@@3PA_WA   0048d428     libucrt:timeset.obj
 0003:000004a8       ?w_tzdst_program@@3PA_WA   0048d4a8     libucrt:timeset.obj
 0003:00000528       ?tzname_states@@3PAY01PADA 0048d528     libucrt:timeset.obj
 0003:00000530       ?w_tzname_states@@3PAY01PA_WA 0048d530     libucrt:timeset.obj
 0003:00000538       ?dststart@@3Utransitiondate@?A0x7639d0b4@@A 0048d538     libucrt:tzset.obj
 0003:00000544       ?dstend@@3Utransitiondate@?A0x7639d0b4@@A 0048d544     libucrt:tzset.obj
 0003:00000770       __mbctypes                 0048d770     libucrt:mbctype.obj
 0003:00000878       __mbcasemaps               0048d878     libucrt:mbctype.obj
 0003:00000978       ?__rgctypeflag@@3PADA      0048d978     libucrt:mbctype.obj
 0003:00000980       ?__rgcode_page_info@@3PAUcode_page_info@@A 0048d980     libucrt:mbctype.obj
 0003:00000ad0       ?__dcrt_lowio_console_output_handle@@3PAXA 0048dad0     libucrt:initcon.obj
 0003:000018e8       ?mt_next@@3HA              0048e8e8     crypto.obj
 0003:000018ec       ?facility@@3HA             0048e8ec     log.obj
 0003:00002694       ?consolethreshold@@3HA     0048f694     log.obj
 0003:00002698       ?filethreshold@@3HA        0048f698     log.obj
 0003:0000269c       ?syslogthreshold@@3HA      0048f69c     log.obj
 0003:000039b8       ?debugmaprot@?1??poll_serverthreads@@YAXXZ@4_NA 004909b8     server.obj
 0003:000039bc       ?curcl@?1??checkdemotransmissions@@YAXXZ@4HA 004909bc     server.obj
 0003:000039c0       ?sc@?1??hiddenpwd@@YAPBDPBDH@Z@4HA 004909c0     tools.obj
 0003:000039d0       ?sizetable@?1??msgsizelookup@@YAHH@Z@4PAHA 004909d0     protocol1.obj
 0003:00004000       _timeBase                  00491000     enet:win32.o
 0003:00004020       _dummyCommand.31470        00491020     enet:peer.o
 0003:00004080       _crcTable                  00491080     enet:packet.o
 0003:00004480       _initializedCRC32          00491480     enet:packet.o
 0003:000044a0       ?g_tss_cv@@3U_RTL_CONDITION_VARIABLE@@A 004914a0     LIBCMT:thread_safe_statics.obj
 0003:000044a4       ?g_tss_srw@@3U_RTL_SRWLOCK@@A 004914a4     LIBCMT:thread_safe_statics.obj
 0003:000044a8       _GS_ExceptionRecord        004914a8     LIBCMT:gs_report.obj
 0003:000044f8       _GS_ContextRecord          004914f8     LIBCMT:gs_report.obj
 0003:000047cc       ?is_initialized_as_dll@@3_NA 004917cc     LIBCMT:utility.obj
 0003:000047cd       ?module_local_atexit_table_initialized@@3_NA 004917cd     LIBCMT:utility.obj
 0003:000047d0       ?module_local_atexit_table@@3U_onexit_table_t@@A 004917d0     LIBCMT:utility.obj
 0003:000047dc       ?module_local_at_quick_exit_table@@3U_onexit_table_t@@A 004917dc     LIBCMT:utility.obj
 0003:00004810       ?__vcrt_startup_thread_ptd@@3U__vcrt_ptd@@A 00491810     libvcruntime:per_thread_data.obj
 0003:00004838       ___vcrt_lock_table         00491838     libvcruntime:locks.obj
 0003:00004850       ___vcrt_locks_initialized  00491850     libvcruntime:locks.obj
 0003:0000487c       ?heap@@3V_HeapManager@@A   0049187c     libvcruntime:undname.obj
 0003:00004890       ?module_handles@@3PAPAUHINSTANCE__@@A 00491890     libvcruntime:winapi_downlevel.obj
 0003:0000489c       ?function_pointers@@3PAPAXA 0049189c     libvcruntime:winapi_downlevel.obj
 0003:000048b0       ?c_termination_complete@@3JA 004918b0     libucrt:exit.obj
 0003:000048b4       ?thread_local_exit_callback_func@@3P6GXPAXK0@ZA 004918b4     libucrt:exit.obj
 0003:000048b8       ?c_exit_complete@?1???R<lambda_6e4b09c48022b2350581041d5f6b0c4c>@@QBE@XZ@4_NA 004918b8     libucrt:exit.obj
 0003:000048c8       ?console_ctrl_handler_installed@@3_NA 004918c8     libucrt:signal.obj
 0003:000048cc       ?ctrlc_action@@3V?$dual_state_global@P6AXH@Z@__crt_state_management@@A 004918cc     libucrt:signal.obj
 0003:000048d0       ?ctrlbreak_action@@3V?$dual_state_global@P6AXH@Z@__crt_state_management@@A 004918d0     libucrt:signal.obj
 0003:000048d4       ?abort_action@@3V?$dual_state_global@P6AXH@Z@__crt_state_management@@A 004918d4     libucrt:signal.obj
 0003:000048d8       ?term_action@@3V?$dual_state_global@P6AXH@Z@__crt_state_management@@A 004918d8     libucrt:signal.obj
 0003:000048dc       ?__acrt_new_handler@@3V?$dual_state_global@P6AHI@Z@__crt_state_management@@A 004918dc     libucrt:new_handler.obj
 0003:000048e0       ?program_name@?1???$common_configure_argv@D@@YAHW4_crt_argv_mode@@@Z@4PADA 004918e0     libucrt:argv_parsing.obj
 0003:00004a10       ?__acrt_app_type@@3W4_crt_app_type@@A 00491a10     libucrt:report_runtime_error.obj
 0003:00004a14       ?user_matherr@@3V?$dual_state_global@P6AHPAU_exception@@@Z@__crt_state_management@@A 00491a14     libucrt:matherr.obj
 0003:00004a34       ?__acrt_global_new_mode@@3V?$dual_state_global@J@__crt_state_management@@A 00491a34     libucrt:new_mode.obj
 0003:00004a40       ?__acrt_lock_table@@3PAU_RTL_CRITICAL_SECTION@@A 00491a40     libucrt:locks.obj
 0003:00004b90       ?__acrt_locks_initialized@@3IA 00491b90     libucrt:locks.obj
 0003:00004b94       ?state_cache@?1???$get_cached_win_policy@Ubegin_thread_init_policy_properties@?1??__acrt_get_begin_thread_init_policy@@YA?AW4begin_thread_init_policy@@XZ@@@YA?AW4begin_thread_init_policy@@W4AppPolicyThreadInitializationType@@@Z@4JA 00491b94     libucrt:win_policies.obj
 0003:00004b98       ?__acrt_invalid_parameter_handler@@3V?$dual_state_global@P6AXPB_W00II@Z@__crt_state_management@@A 00491b98     libucrt:invalid_parameter.obj
 0003:00004ba0       ?module_handles@@3PAPAUHINSTANCE__@@A 00491ba0     libucrt:winapi_thunks.obj
 0003:00004bf8       ?encoded_function_pointers@@3PAPAXA 00491bf8     libucrt:winapi_thunks.obj
 0003:00004c84       ?static_enum_proc@?1??enum_system_locales_ex_nolock@@YAHQ6GHPA_WKJ@Z@Z@4P6GH0KJ@ZA 00491c84     libucrt:winapi_thunks.obj
 0003:00004e9c       ?internal_state@?1??_mbtowc_internal@@9@4U_Mbstatet@@A 00491e9c     libucrt:mbtowc.obj
 0003:00004ea4       ?enable_percent_n@@3IA     00491ea4     libucrt:printf_count_output.obj
 0003:00004eb4       ?_tzname@@3V?$dual_state_global@PAPAD@__crt_state_management@@A 00491eb4     libucrt:timeset.obj
 0003:00004eb8       ?w_tzname@@3V?$dual_state_global@PAPA_W@__crt_state_management@@A 00491eb8     libucrt:timeset.obj
 0003:00004ebc       ?last_wide_tz@@3PA_WA      00491ebc     libucrt:tzset.obj
 0003:00004ec0       ?tz_api_used@@3HA          00491ec0     libucrt:tzset.obj
 0003:00004ec4       ?tzset_init_state@@3V?$dual_state_global@J@__crt_state_management@@A 00491ec4     libucrt:tzset.obj
 0003:00004ec8       ?tz_info@@3U_TIME_ZONE_INFORMATION@@A 00491ec8     libucrt:tzset.obj
 0003:00004f80       ?fSystemSet@@3HA           00491f80     libucrt:mbctype.obj
 0003:00004f84       ?initialized@?1??__acrt_initialize_multibyte@@9@4_NA 00491f84     libucrt:mbctype.obj
 0003:00004f98       ?internal_pst@?1??__mbrtoc32_utf8@__crt_mbstring@@YAIPA_UPBDIPAU_Mbstatet@@AAV__crt_cached_ptd_host@@@Z@4U3@A 00491f98     libucrt:mbrtoc32.obj
 0003:00004fa0       ?internal_pst@?1??__c16rtomb_utf8@__crt_mbstring@@YAIPAD_SPAU_Mbstatet@@AAV__crt_cached_ptd_host@@@Z@4U3@A 00491fa0     libucrt:c16rtomb.obj
 0003:00004fb0       __pmatherr_set             00491fb0     libucrt:libm_error.obj
 0003:00007fbc       ?reliablemessages@@3_NA    00494fbc     server.obj
 0003:00007fbd       ?timestamp@@3_NA           00494fbd     log.obj
 0003:00007fbe       ?enabled@@3_NA             00494fbe     log.obj
 0003:0000d37c       ?mainthreadid@@3KA         0049a37c     tools.obj
 0003:0000d46c       ?curvote@@3PAUvoteinfo@@A  0049a46c     server.obj
 0003:0000d470       ?threadlog@@3U?$ringbuf@PAUlogline_s@@$0CA@@@A 0049a470     log.obj
 0003:0000d4f8       ?threadlogfullsem@@3Usl_semaphore@@A 0049a4f8     log.obj
 0003:0000d500       ?mainlog@@3U?$ringbuf@PAUlogline_s@@$0EAA@@@A 0049a500     log.obj
 0003:0000e508       ?mainlogsem@@3Usl_semaphore@@A 0049b508     log.obj
 0003:0000e510       ?threadlogsem@@3Usl_semaphore@@A 0049b510     log.obj
 0003:0000e524       ?oldthreads@@3U?$vector@PAUsl_threadinfo@@@@A 0049b524     tools.obj
 0003:0000e530       ?sem_oldthreads@@3Usl_semaphore@@A 0049b530     tools.obj
 0003:0000e538       ?entpool@@3PAEA            0049b538     crypto.obj
 0003:0000e53c       ?fp@@3PAU_iobuf@@A         0049b53c     log.obj
 0003:0000e540       ?chokelog@@3PAEA           0049b540     server.obj
 0003:0000e650       ?mt_state@@3PAIA           0049b650     crypto.obj
 0003:0000f9d0       ?loglevelenabled@@3PADA    0049c9d0     log.obj
 0003:0000f9d8       ?ident@@3PADA              0049c9d8     log.obj
 0003:0000fae0       ?filepath@@3PADA           0049cae0     log.obj
 0003:0000fbe4       ?mainlogoverflow@@3HA      0049cbe4     log.obj
 0003:0000fbe8       ?sl_sem_errorcountdummy@@3HA 0049cbe8     tools.obj
 0003:0000fbec       ?crec@?1??serverslice@@YAXI@Z@4HA 0049cbec     server.obj
 0003:0000fbf0       ?serverwasnotempty@?1??poll_serverthreads@@YAXXZ@4_NA 0049cbf0     server.obj
 0003:0000fbf4       ?curdemoseq@?1??checkdemotransmissions@@YAXXZ@4HA 0049cbf4     server.obj
 0003:0000fbf8       ?clientsequencecounter@?1??addclient@@YAAAUclient@@XZ@4HA 0049cbf8     server.obj
 0003:0000fbfc       ?dpointer@?1??checkdemotransmissions@@YAXXZ@4HA 0049cbfc     server.obj
 0003:0000fc00       ?csend@?1??serverslice@@YAXI@Z@4HA 0049cc00     server.obj
 0003:0000fc04       ?deferredprocessingthread_ti@?1??polldeferredprocessing@@YAXXZ@4PAXA 0049cc04     server.obj
 0003:0000fc08       ?lasttime_eventeams@?1??refillteams@@YA_N_NH@Z@4HA 0049cc08     server.obj
 0003:0000fc18       ?mnum@?1??serverslice@@YAXI@Z@4HA 0049cc18     server.obj
 0003:0000fc1c       ?lastworkerthreadstart@?1??poll_serverthreads@@YAXXZ@4HA 0049cc1c     server.obj
 0003:0000fc20       ?lastsend@?1??sendworldstate@@YAXXZ@4IA 0049cc20     server.obj
 0003:0000fc24       ?mrec@?1??serverslice@@YAXI@Z@4HA 0049cc24     server.obj
 0003:0000fc28       ?nextserverconfig@?1??poll_serverthreads@@YAXXZ@4HA 0049cc28     server.obj
 0003:0000fc2c       ?lastThrottleEpoch@?1??serverslice@@YAXI@Z@4IA 0049cc2c     server.obj
 0003:0000fc30       ?lastdemoslot@?1??initdemoslot@@YAPAUdemo_s@@XZ@4HA 0049cc30     server.obj
 0003:0000fc34       ?curclseq@?1??checkdemotransmissions@@YAXXZ@4HA 0049cc34     server.obj
 0003:0000fc38       ?stage@?1??poll_serverthreads@@YAXXZ@4HA 0049cc38     server.obj
 0003:0000fc3c       ?msend@?1??serverslice@@YAXI@Z@4HA 0049cc3c     server.obj
 0003:0000fc40       ?readmaps_epoch@?1??readmapsthread@@YAHPAX@Z@4HA 0049cc40     server.obj
 0003:0000fc48       ?cnum@?1??serverslice@@YAXI@Z@4HA 0049cc48     server.obj
 0003:0000fc50       ?demosequencecounter@?1??initdemoslot@@YAPAUdemo_s@@XZ@4HA 0049cc50     server.obj
 0003:0000fc60       ?chokes_raw@?1??linequalitystats@@YAXH@Z@4PAIA 0049cc60     server.obj
 0003:00010070       ?spent@?1??linequalitystats@@YAXH@Z@4PAIA 0049d070     server.obj
 0003:00010480       ?chokes@?1??linequalitystats@@YAXH@Z@4PAIA 0049d480     server.obj
 0003:00010890       ?spent_raw@?1??linequalitystats@@YAXH@Z@4PAIA 0049d890     server.obj
 0003:00010c94       ?init@?1??hash_init@tiger@@YAPAUincremental_buffer@2@AAThashval@2@@Z@4_NA 0049dc94     crypto.obj
 0003:00010c95       ?sum@?1??mix_block@@YAXPAEPBEH@Z@4EA 0049dc95     crypto.obj
 0003:00010c98       ?next@?1??entropy_add_byte@@YAXE@Z@4HA 0049dc98     crypto.obj
 0003:00010c9c       ?logworkerthread_id@?1??initlogging@@YA_NPBDHHHH_N0@Z@4PAXA 0049dc9c     log.obj
 0003:00010ca0       ?stridx@?1??escapestring@@YAPBDPBD_N1PAU?$vector@D@@@Z@4HA 0049dca0     protocol1.obj
 0003:00010ca8       ?curscore@?O@??findscore@@YAPAUsavedscore@@AAUclient@@_N@Z@4U2@A 0049dca8     server.obj
 0003:00010de0       ?num@?1??numteamclients@@YAPAHH@Z@4PAHA 0049dde0     server.obj
 0003:00010e00       ?pkt@?1??buildworldstate@@YA_NXZ@4PAU<unnamed-type-pkt>@?1??1@YA_NXZ@A 0049de00     server.obj
 0003:00011e00       ?$TSS0@?1??poll_serverthreads@@YAXXZ@4HA 0049ee00     server.obj
 0003:00011e04       ?servermapstodelete@?1??poll_serverthreads@@YAXXZ@4U?$vector@PAUservermap@@@@A 0049ee04     server.obj
 0003:00011e40       ?sockset@?1??serverms@@YAXHHHPADHABU_ENetAddress@@PAH22222HPBDH@Z@4Ufd_set@@A 0049ee40     serverms.obj
 0003:00011f48       ?data@?1??serverms@@YAXHHHPADHABU_ENetAddress@@PAH22222HPBDH@Z@4PAEA 0049ef48     serverms.obj
 0003:000132d0       ?bufidx@?1??hashchunktoa@@YAPBD_K@Z@4HA 004a02d0     crypto.obj
 0003:000132d8       ?temp@?1??genpwdhash@@YAPBDPBD0H@Z@4PADA 004a02d8     crypto.obj
 0003:000133e0       ?buf@?1??hashchunktoa@@YAPBD_K@Z@4PADA 004a03e0     crypto.obj
 0003:000134e8       ?parent@?1??parentdir@@YAPBDPBD@Z@4PADA 004a04e8     stream.obj
 0003:000135f0       ?strip@?4??createdir@@YA_NPBD@Z@4PADA 004a05f0     stream.obj
 0003:000136f8       ?s@?1??findfile@@YAPBDPBD0@Z@4PADA 004a06f8     stream.obj
 0003:00013800       ?h@?1??peekmapheader@@YAPAUheader@@PAEH@Z@4U2@A 004a0800     tools.obj
 0003:00013bd8       ?numt@?1??numtime@@YAPBDXZ@4PADA 004a0bd8     tools.obj
 0003:00013ce0       ?text@?1??hiddenpwd@@YAPBDPBDH@Z@4PADA 004a0ce0     tools.obj
 0003:00013de8       ?temp@?1??concatformatstring@@YAPADPADPBDZZ@4PADA 004a0de8     tools.obj
 0003:00013ef0       ?strbuf@?1??escapestring@@YAPBDPBD_N1PAU?$vector@D@@@Z@4PAU2@A 004a0ef0     protocol1.obj
 0003:00013f14       ?$TSS0@?1??escapestring@@YAPBDPBD_N1PAU?$vector@D@@@Z@4HA 004a0f14     protocol1.obj
 0003:00013f18       ?res@?1??disc_reason@@YAPBDH@Z@4PADA 004a0f18     protocol1.obj
 0004:000001c0       $R000000                   004a21c0     assaultcube.res
 0004:0000c728       $R00C568                   004ae728     assaultcube.res
 0004:0000ed90       $R00EBD0                   004b0d90     assaultcube.res
 0004:0000feb8       $R00FCF8                   004b1eb8     assaultcube.res
 0004:00010870       $R0106B0                   004b2870     assaultcube.res
 0004:00010cd8       $R010B18                   004b2cd8     assaultcube.res
 0004:00010d28       $R010B68                   004b2d28     assaultcube.res

 Exports

  ordinal    name

