 ac_client

 Timestamp is 687dbc2b (Mon Jul 21 00:03:55 2025)

 Preferred load address is 00400000

 Start         Length     Name                   Class
 0001:00000000 00005890H .text                   CODE
 0001:00005890 0000ad70H .text$di                CODE
 0001:00010600 001148d0H .text$mn                CODE
 0001:00124ed0 000000e0H .text$x                 CODE
 0001:00124fb0 00001c0eH .text$yd                CODE
 0002:00000000 00000584H .idata$5                DATA
 0002:00000584 00000008H .00cfg                  DATA
 0002:0000058c 00000004H .CRT$XCA                DATA
 0002:00000590 00000004H .CRT$XCAA               DATA
 0002:00000594 00000fdcH .CRT$XCU                DATA
 0002:00001570 00000004H .CRT$XCZ                DATA
 0002:00001574 00000004H .CRT$XIA                DATA
 0002:00001578 00000004H .CRT$XIAA               DATA
 0002:0000157c 00000004H .CRT$XIAC               DATA
 0002:00001580 00000014H .CRT$XIC                DATA
 0002:00001594 00000004H .CRT$XIZ                DATA
 0002:00001598 00000004H .CRT$XLA                DATA
 0002:0000159c 00000004H .CRT$XLZ                DATA
 0002:000015a0 00000004H .CRT$XPA                DATA
 0002:000015a4 00000008H .CRT$XPX                DATA
 0002:000015ac 00000004H .CRT$XPXA               DATA
 0002:000015b0 00000004H .CRT$XPZ                DATA
 0002:000015b4 00000004H .CRT$XTA                DATA
 0002:000015b8 00000008H .CRT$XTZ                DATA
 0002:000015bc 00000000H .gfids$y                DATA
 0002:000015c0 0003f500H .rdata                  DATA
 0002:00040ac0 00000000H .rdata$CastGuardVftablesA DATA
 0002:00040ac0 00000000H .rdata$CastGuardVftablesC DATA
 0002:00040ac0 00000018H .rdata$T                DATA
 0002:00040ad8 00001cf0H .rdata$r                DATA
 0002:000427c8 000000d8H .rdata$voltmd           DATA
 0002:000428a0 0000008cH .rdata$zzz              DATA
 0002:0004292c 00000440H .rdata$zzzdbg           DATA
 0002:00042d6c 00000004H .rtc$IAA                DATA
 0002:00042d70 00000004H .rtc$IZZ                DATA
 0002:00042d74 00000004H .rtc$TAA                DATA
 0002:00042d78 00000004H .rtc$TZZ                DATA
 0002:00042d7c 00000004H .tls                    DATA
 0002:00042d80 00000004H .tls$                   DATA
 0002:00042d84 00000004H .tls$ZZZ                DATA
 0002:00042d88 000009ccH .xdata$x                DATA
 0002:00043754 00000000H .edata                  DATA
 0002:00043754 00000104H .idata$2                DATA
 0002:00043858 00000014H .idata$3                DATA
 0002:0004386c 00000584H .idata$4                DATA
 0002:00043df0 0000165eH .idata$6                DATA
 0003:00000000 00011c10H .data                   DATA
 0003:00011c10 00000080H .data$r                 DATA
 0003:00011c90 00000a10H .data$rs                DATA
 0003:000126a0 00027cacH .bss                    DATA
 0004:00000000 00002608H _RDATA                  DATA
 0005:00000000 000001c0H .rsrc$01                DATA
 0005:000001c0 00010ce8H .rsrc$02                DATA

  Address         Publics by Value              Rva+Base       Lib:Object

 0000:00000000       ___AbsoluteZero            00000000     <absolute>
 0000:00000000       ___arm64x_extra_rfe_table  00000000     <absolute>
 0000:00000000       ___arm64x_extra_rfe_table_size 00000000     <absolute>
 0000:00000000       ___arm64x_native_entrypoint 00000000     <absolute>
 0000:00000000       ___arm64x_redirection_metadata 00000000     <absolute>
 0000:00000000       ___arm64x_redirection_metadata_count 00000000     <absolute>
 0000:00000000       ___dynamic_value_reloc_table 00000000     <absolute>
 0000:00000000       ___enclave_config          00000000     <absolute>
 0000:00000000       ___guard_check_icall_a64n_fptr 00000000     <absolute>
 0000:00000000       ___guard_eh_cont_count     00000000     <absolute>
 0000:00000000       ___guard_eh_cont_table     00000000     <absolute>
 0000:00000000       ___guard_fids_count        00000000     <absolute>
 0000:00000000       ___guard_fids_table        00000000     <absolute>
 0000:00000000       ___guard_iat_count         00000000     <absolute>
 0000:00000000       ___guard_iat_table         00000000     <absolute>
 0000:00000000       ___guard_longjmp_count     00000000     <absolute>
 0000:00000000       ___guard_longjmp_table     00000000     <absolute>
 0000:00000000       ___hybrid_auxiliary_delayload_iat 00000000     <absolute>
 0000:00000000       ___hybrid_auxiliary_delayload_iat_copy 00000000     <absolute>
 0000:00000000       ___hybrid_auxiliary_iat    00000000     <absolute>
 0000:00000000       ___hybrid_auxiliary_iat_copy 00000000     <absolute>
 0000:00000000       ___hybrid_code_map         00000000     <absolute>
 0000:00000000       ___hybrid_code_map_count   00000000     <absolute>
 0000:00000000       ___hybrid_image_info_bitfield 00000000     <absolute>
 0000:00000000       ___safe_se_handler_count   00000000     <absolute>
 0000:00000000       ___safe_se_handler_table   00000000     <absolute>
 0000:00000000       ___x64_code_ranges_to_entry_points 00000000     <absolute>
 0000:00000000       ___x64_code_ranges_to_entry_points_count 00000000     <absolute>
 0000:00000000       __except_list              00000000     <absolute>
 0000:0000002c       __tls_array                0000002c     <absolute>
 0000:00000100       ___guard_flags             00000100     <absolute>
 0000:00000000       ___ImageBase               00400000     <linker-defined>
 0001:000000c0       _enet_peer_throttle        004010c0 f   enet:peer.o
 0001:00000140       _enet_peer_receive         00401140 f   enet:peer.o
 0001:000001a0       _enet_peer_reset_queues    004011a0 f   enet:peer.o
 0001:000002a0       _enet_peer_reset           004012a0 f   enet:peer.o
 0001:00000440       _enet_peer_ping_interval   00401440 f   enet:peer.o
 0001:00000460       _enet_peer_timeout         00401460 f   enet:peer.o
 0001:000004b0       _enet_peer_queue_acknowledgement 004014b0 f   enet:peer.o
 0001:00000590       _enet_peer_setup_outgoing_command 00401590 f   enet:peer.o
 0001:00000710       _enet_peer_queue_outgoing_command 00401710 f   enet:peer.o
 0001:000007c0       _enet_peer_throttle_configure 004017c0 f   enet:peer.o
 0001:00000850       _enet_peer_send            00401850 f   enet:peer.o
 0001:00000b60       _enet_peer_ping            00401b60 f   enet:peer.o
 0001:00000bb0       _enet_peer_disconnect_now  00401bb0 f   enet:peer.o
 0001:00000c30       _enet_peer_disconnect      00401c30 f   enet:peer.o
 0001:00000cf0       _enet_peer_disconnect_later 00401cf0 f   enet:peer.o
 0001:00000d50       _enet_peer_dispatch_incoming_unreliable_commands 00401d50 f   enet:peer.o
 0001:00000f90       _enet_peer_dispatch_incoming_reliable_commands 00401f90 f   enet:peer.o
 0001:00001090       _enet_peer_queue_incoming_command 00402090 f   enet:peer.o
 0001:00001410       _enet_host_create          00402410 f   enet:host.o
 0001:00001790       _enet_host_destroy         00402790 f   enet:host.o
 0001:00001820       _enet_host_connect         00402820 f   enet:host.o
 0001:00001ab0       _enet_host_broadcast       00402ab0 f   enet:host.o
 0001:00001b30       _enet_host_compress        00402b30 f   enet:host.o
 0001:00001ba0       _enet_host_channel_limit   00402ba0 f   enet:host.o
 0001:00001bc0       _enet_host_bandwidth_limit 00402bc0 f   enet:host.o
 0001:00001be0       _enet_host_bandwidth_throttle 00402be0 f   enet:host.o
 0001:000030f0       _enet_protocol_command_size 004040f0 f   enet:protocol.o
 0001:00003100       _enet_host_flush           00404100 f   enet:protocol.o
 0001:00003120       _enet_host_check_events    00404120 f   enet:protocol.o
 0001:00003150       _enet_host_service         00404150 f   enet:protocol.o
 0001:00004b10       _enet_packet_create        00405b10 f   enet:packet.o
 0001:00004bb0       _enet_packet_destroy       00405bb0 f   enet:packet.o
 0001:00004c00       _enet_packet_resize        00405c00 f   enet:packet.o
 0001:00004c60       _enet_crc32                00405c60 f   enet:packet.o
 0001:00004ce0       _enet_crc32_inc            00405ce0 f   enet:packet.o
 0001:00004d10       _enet_initialize           00405d10 f   enet:win32.o
 0001:00004d80       _enet_deinitialize         00405d80 f   enet:win32.o
 0001:00004da0       _enet_time_get             00405da0 f   enet:win32.o
 0001:00004dc0       _enet_time_set             00405dc0 f   enet:win32.o
 0001:00004de0       _enet_address_set_host     00405de0 f   enet:win32.o
 0001:00004e40       _enet_address_get_host_ip  00405e40 f   enet:win32.o
 0001:00004e90       _enet_address_get_host     00405e90 f   enet:win32.o
 0001:00004f10       _enet_socket_bind          00405f10 f   enet:win32.o
 0001:00004f90       _enet_socket_listen        00405f90 f   enet:win32.o
 0001:00004fd0       _enet_socket_create        00405fd0 f   enet:win32.o
 0001:00005000       _enet_socket_set_option    00406000 f   enet:win32.o
 0001:00005150       _enet_socket_connect       00406150 f   enet:win32.o
 0001:000051f0       _enet_socket_accept        004061f0 f   enet:win32.o
 0001:00005280       _enet_socket_shutdown      00406280 f   enet:win32.o
 0001:000052b0       _enet_socket_destroy       004062b0 f   enet:win32.o
 0001:000052d0       _enet_socket_send          004062d0 f   enet:win32.o
 0001:000053b0       _enet_socket_receive       004063b0 f   enet:win32.o
 0001:000054a0       _enet_socketset_select     004064a0 f   enet:win32.o
 0001:00005500       _enet_socket_wait          00406500 f   enet:win32.o
 0001:00005610       _enet_initialize_with_callbacks 00406610 f   enet:callbacks.o
 0001:00005660       _enet_malloc               00406660 f   enet:callbacks.o
 0001:000056a0       _enet_free                 004066a0 f   enet:callbacks.o
 0001:000056b0       _enet_list_clear           004066b0 f   enet:list.o
 0001:000056c0       _enet_list_insert          004066c0 f   enet:list.o
 0001:000056e0       _enet_list_remove          004066e0 f   enet:list.o
 0001:00005700       _enet_list_move            00406700 f   enet:list.o
 0001:00005730       _enet_list_size            00406730 f   enet:list.o
 0001:00005880       _WinMain@16                00406880 f   SDL2main:SDL_windows_main.obj
 0001:00010600       ??1stripbatch@@QAE@XZ      00411600 f i rendercubes.obj
 0001:000106d0       ?add@?$vector@Ushadowvertex@@@@QAEAAUshadowvertex@@XZ 004116d0 f i rendercubes.obj
 0001:00010790       ?add@?$vector@Uvertex@@@@QAEAAUvertex@@XZ 00411790 f i rendercubes.obj
 0001:00010850       ?add@?$vector@H@@QAEAAHABH@Z 00411850 f i rendercubes.obj
 0001:00010890       ?growbuf@?$vector@H@@QAEXH@Z 00411890 f i rendercubes.obj
 0001:00010900       ??4physent@@QAEAAV0@ABV0@@Z 00411900 f i rendergl.obj
 0001:00010a20       ??$mul@MM@glmatrixf@@QAEXQBM0@Z 00411a20 f i rendergl.obj
 0001:00010dc0       ??_Ephysent@@UAEPAXI@Z     00411dc0 f i * CIL library *:* CIL module *
 0001:00010dc0       ??_Gphysent@@UAEPAXI@Z     00411dc0 f i rendergl.obj
 0001:00010df0       ?AddDebugText@@YAXPBDZZ    00411df0 f i ac_bot_ai.obj
 0001:00010df0       ?attach@worldobjreference@@UAEXXZ 00411df0 f i clients2c.obj
 0001:00010df0       ?begingenshadow@part@vertmodel@@UAEXXZ 00411df0 f i rendermodel.obj
 0001:00010df0       ?clear@serverconfigfile@@UAEXXZ 00411df0 f i server.obj
 0001:00010df0       ?destroy@bounceent@@UAEXXZ 00411df0 f i entities.obj
 0001:00010df0       ?detach@worldobjreference@@UAEXXZ 00411df0 f i clients2c.obj
 0001:00010df0       ?endgenshadow@part@vertmodel@@UAEXXZ 00411df0 f i rendermodel.obj
 0001:00010df0       ?endrender@model@@UAEXXZ   00411df0 f i rendermodel.obj
 0001:00010df0       ?fflush@stream@@UAEXXZ     00411df0 f i stream.obj
 0001:00010df0       ?init@mitem@@UAEXXZ        00411df0 f i menus.obj
 0001:00010df0       ?onammopicked@weapon@@UAEXXZ 00411df0 f i weapon.obj
 0001:00010df0       ?oncollision@physent@@UAEXXZ 00411df0 f i rendergl.obj
 0001:00010df0       ?ondeselecting@weapon@@UAEXXZ 00411df0 f i weapon.obj
 0001:00010df0       ?onownerdies@weapon@@UAEXXZ 00411df0 f i weapon.obj
 0001:00010df0       ?perform@recorddemoaction@@UAEXXZ 00411df0 f i server.obj
 0001:00010df0       ?read@serverconfigfile@@UAEXXZ 00411df0 f i server.obj
 0001:00010df0       ?reset@weapon@@UAEXXZ      00411df0 f i weapon.obj
 0001:00010df0       ?startrender@model@@UAEXXZ 00411df0 f i rendermodel.obj
 0001:00010df0       @_guard_check_icall_nop@4  00411df0 f i LIBCMT:guard_support.obj
 0001:00010df0       __initialize_denormal_control 00411df0 f i LIBCMT:denormal_control.obj
 0001:00010df0       __initialize_invalid_parameter_handler 00411df0 f i LIBCMT:invalid_parameter_handler.obj
 0001:00010e00       ?focus@mitem@@UAEX_N@Z     00411e00 f i menus.obj
 0001:00010e00       ?onmoved@physent@@UAEXABUvec@@@Z 00411e00 f i rendergl.obj
 0001:00010e00       ?removebounceent@weapon@@UAEXPAVbounceent@@@Z 00411e00 f i weapon.obj
 0001:00010e00       ?say@mitem@@UAEXPBD@Z      00411e00 f i menus.obj
 0001:00010e10       ?reset@physent@@QAEXXZ     00411e10 f i rendergl.obj
 0001:00010e70       ??0physent@@QAE@XZ         00411e70 f i rendergl.obj
 0001:00010f20       ?isspectating@playerent@@QAE_NXZ 00411f20 f i rendergl.obj
 0001:00010f40       ??1?$vector@D@@QAE@XZ      00411f40 f i rendermodel.obj
 0001:00010f40       ??1?$vector@E@@QAE@XZ      00411f40 f i rendergl.obj
 0001:00010f40       ??1?$vector@PAD@@QAE@XZ    00411f40 f i rendermodel.obj
 0001:00010f60       ?addline@hudmessages@@QAEXPBD@Z 00411f60 f i renderhud.obj
 0001:00010fc0       ?render@hudmessages@@UAEXXZ 00411fc0 f i renderhud.obj
 0001:00011170       ??_E?$consolebuffer@Uhudline@@@@UAEPAXI@Z 00412170 f i * CIL library *:* CIL module *
 0001:00011170       ??_Ehudmessages@@UAEPAXI@Z 00412170 f i * CIL library *:* CIL module *
 0001:00011170       ??_G?$consolebuffer@Uhudline@@@@UAEPAXI@Z 00412170 f i renderhud.obj
 0001:00011170       ??_Ghudmessages@@UAEPAXI@Z 00412170 f i renderhud.obj
 0001:00011190       ??1?$consolebuffer@Uhudline@@@@UAE@XZ 00412190 f i renderhud.obj
 0001:000111e0       ?addline@?$consolebuffer@Uhudline@@@@QAEAAUhudline@@PBDH@Z 004121e0 f i renderhud.obj
 0001:00011360       ?newstring@@YAPADPBDI@Z    00412360 f i renderhud.obj
 0001:00011390       ?timestring@@YAPBD_NPBDPAD@Z 00412390 f i renderhud.obj
 0001:00011400       ?copystring@@YAPADPADPBDI@Z 00412400 f i renderhud.obj
 0001:00011420       ??0stringformatter@@QAE@PAD@Z 00412420 f i renderhud.obj
 0001:00011430       ___local_stdio_printf_options 00412430 f i renderhud.obj
 0001:00011440       __vsnprintf_l              00412440 f i renderhud.obj
 0001:00011480       ?vformatstring_@@YAXPADPBD0H@Z 00412480 f i renderhud.obj
 0001:000114a0       ??Rstringformatter@@QAAXPBDZZ 004124a0 f i renderhud.obj
 0001:000114d0       ?findconnectivity@tristrip@@QAEXXZ 004124d0 f i rendermodel.obj
 0001:00011840       ?removeconnectivity@tristrip@@QAEXG@Z 00412840 f i rendermodel.obj
 0001:000119b0       ?findedge@tristrip@@QAEHABUtriangle@1@0G@Z 004129b0 f i rendermodel.obj
 0001:000119f0       ?nexttriangle@tristrip@@QAEGAAUtriangle@1@AA_NGG@Z 004129f0 f i rendermodel.obj
 0001:00011bc0       ?buildstrip@tristrip@@QAEXAAU?$vector@G@@_N1@Z 00412bc0 f i rendermodel.obj
 0001:00011e10       ?buildstrips@tristrip@@QAEXAAU?$vector@G@@AAU?$vector@Udrawcall@tristrip@@@@_N2@Z 00412e10 f i rendermodel.obj
 0001:00012120       ?resize@modelcache@@QAEXI@Z 00413120 f i rendermodel.obj
 0001:000121a0       ?setframes@anpos@vertmodel@@QAEXABUanimstate@@@Z 004131a0 f i rendermodel.obj
 0001:00012270       ??0mesh@vertmodel@@QAE@XZ  00413270 f i rendermodel.obj
 0001:00012320       ?gendynverts@mesh@vertmodel@@QAEPAUdyncacheentry@2@AAUanimstate@@AAUanpos@2@PAU52@M@Z 00413320 f i rendermodel.obj
 0001:000127c0       ?weldverts@mesh@vertmodel@@QAEXXZ 004137c0 f i rendermodel.obj
 0001:00012a30       ?findneighbors@mesh@vertmodel@@QAEXXZ 00413a30 f i rendermodel.obj
 0001:00012d20       ?genshadowvolume@mesh@vertmodel@@QAEPAUshadowcacheentry@2@AAUanimstate@@AAUanpos@2@PAU52@MPAUvec@@@Z 00413d20 f i rendermodel.obj
 0001:000132c0       ?lightvertexes@mesh@vertmodel@@QAEPAUlightcacheentry@2@AAUanimstate@@AAUanpos@2@PAU52@MPAUvec@@@Z 004142c0 f i rendermodel.obj
 0001:000137f0       ?getcurbb@mesh@vertmodel@@QAEXAAUbb@2@AAUanimstate@@AAUanpos@2@PAU52@M@Z 004147f0 f i rendermodel.obj
 0001:00013960       ?render@mesh@vertmodel@@QAEXAAUanimstate@@AAUanpos@2@PAU42@M@Z 00414960 f i rendermodel.obj
 0001:00013ec0       ?calcbbs@mesh@vertmodel@@QAEXXZ 00414ec0 f i rendermodel.obj
 0001:00014060       ??1part@vertmodel@@UAE@XZ  00415060 f i rendermodel.obj
 0001:00014250       ?link@part@vertmodel@@QAE_NPAU12@PBDPAUvec@@@Z 00415250 f i rendermodel.obj
 0001:000142e0       ?gentag@part@vertmodel@@QAE_NPBDPAHHPAUmesh@2@@Z 004152e0 f i rendermodel.obj
 0001:00014620       ?addemitter@part@vertmodel@@QAE_NPBDHHH@Z 00415620 f i rendermodel.obj
 0001:000146d0       ?genstrips@part@vertmodel@@QAEXXZ 004156d0 f i rendermodel.obj
 0001:00014960       ?getdefaultanim@part@vertmodel@@UAEXAAUanimstate@@HH@Z 00415960 f i rendermodel.obj
 0001:00014980       ?calcanimstate@part@vertmodel@@QAE_NHHMHPAVdynent@@AAUanimstate@@@Z 00415980 f i rendermodel.obj
 0001:00014bc0       ?render@part@vertmodel@@QAEXHHMHPAVdynent@@@Z 00415bc0 f i rendermodel.obj
 0001:000157d0       ?setanim@part@vertmodel@@QAEXHHHM@Z 004167d0 f i rendermodel.obj
 0001:00015880       ?blurshadow@part@vertmodel@@QAEXPBEPAEI@Z 00416880 f i rendermodel.obj
 0001:00015ae0       ?genshadows@part@vertmodel@@QAEXMM@Z 00416ae0 f i rendermodel.obj
 0001:00016080       ?loadshadows@part@vertmodel@@QAE_NPBD@Z 00417080 f i rendermodel.obj
 0001:000162e0       ?rendershadow@part@vertmodel@@QAEXHHMHABUvec@@M@Z 004172e0 f i rendermodel.obj
 0001:00016840       ??0vertmodel@@QAE@PBD@Z    00417840 f i rendermodel.obj
 0001:000168f0       ??1vertmodel@@UAE@XZ       004178f0 f i rendermodel.obj
 0001:00016950       ?name@vertmodel@@UAEPADXZ  00417950 f i rendermodel.obj
 0001:00016960       ?cleanup@vertmodel@@UAEXXZ 00417960 f i rendermodel.obj
 0001:00016a10       ?link@vertmodel@@QAE_NPAUpart@1@PBDPAUvec@@@Z 00417a10 f i rendermodel.obj
 0001:00016ac0       ?setskin@vertmodel@@UAEXH@Z 00417ac0 f i rendermodel.obj
 0001:00016ae0       ?genshadows@vertmodel@@UAEXMM@Z 00417ae0 f i rendermodel.obj
 0001:00016b00       ?hasshadows@vertmodel@@UAE_NXZ 00417b00 f i rendermodel.obj
 0001:00016b20       ?calcradius@vertmodel@@QAEMAAM@Z 00417b20 f i rendermodel.obj
 0001:00016bd0       ?calcneighbors@vertmodel@@QAEXXZ 00417bd0 f i rendermodel.obj
 0001:00016c50       ?calcbbs@vertmodel@@QAEXXZ 00417c50 f i rendermodel.obj
 0001:00016cc0       ?startrender@vertmodel@@UAEXXZ 00417cc0 f i rendermodel.obj
 0001:00016d10       ?endrender@vertmodel@@UAEXXZ 00417d10 f i rendermodel.obj
 0001:00016de0       ??1tristrip@@QAE@XZ        00417de0 f i rendermodel.obj
 0001:00016e60       ??_Emd2part@md2@@UAEPAXI@Z 00417e60 f i * CIL library *:* CIL module *
 0001:00016e60       ??_Emd3part@md3@@UAEPAXI@Z 00417e60 f i * CIL library *:* CIL module *
 0001:00016e60       ??_Epart@vertmodel@@UAEPAXI@Z 00417e60 f i * CIL library *:* CIL module *
 0001:00016e60       ??_Gmd2part@md2@@UAEPAXI@Z 00417e60 f i rendermodel.obj
 0001:00016e60       ??_Gmd3part@md3@@UAEPAXI@Z 00417e60 f i rendermodel.obj
 0001:00016e60       ??_Gpart@vertmodel@@UAEPAXI@Z 00417e60 f i rendermodel.obj
 0001:00016e80       ??_Elinkedpart@vertmodel@@QAEPAXI@Z 00417e80 f i rendermodel.obj
 0001:00016ee0       ??_Etag@vertmodel@@QAEPAXI@Z 00417ee0 f i rendermodel.obj
 0001:00016f30       ??_Emd2@@UAEPAXI@Z         00417f30 f i * CIL library *:* CIL module *
 0001:00016f30       ??_Emd3@@UAEPAXI@Z         00417f30 f i * CIL library *:* CIL module *
 0001:00016f30       ??_Evertmodel@@UAEPAXI@Z   00417f30 f i * CIL library *:* CIL module *
 0001:00016f30       ??_Gmd2@@UAEPAXI@Z         00417f30 f i rendermodel.obj
 0001:00016f30       ??_Gmd3@@UAEPAXI@Z         00417f30 f i rendermodel.obj
 0001:00016f30       ??_Gvertmodel@@UAEPAXI@Z   00417f30 f i rendermodel.obj
 0001:00016f50       ?type@md2@@UAEHXZ          00417f50 f i rendermodel.obj
 0001:00016f60       ?gentcverts@md2part@md2@@QAEXPAHAAU?$vector@Utcvert@vertmodel@@@@AAU?$vector@G@@AAU?$vector@Utri@vertmodel@@@@@Z 00417f60 f i rendermodel.obj
 0001:00017390       ?load@md2part@md2@@QAE_NPAD@Z 00418390 f i rendermodel.obj
 0001:00017840       ?getdefaultanim@md2part@md2@@UAEXAAUanimstate@@HH@Z 00418840 f i rendermodel.obj
 0001:000178b0       ?begingenshadow@md2part@md2@@UAEXXZ 004188b0 f i rendermodel.obj
 0001:000178b0       ?begingenshadow@md3part@md3@@UAEXXZ 004188b0 f i rendermodel.obj
 0001:00017990       ?render@md2@@UAEXHHMHABUvec@@MMMPAVdynent@@PAUmodelattach@@M@Z 00418990 f i rendermodel.obj
 0001:00017f30       ?rendershadow@md2@@UAEXHHMHABUvec@@MPAUmodelattach@@@Z 00418f30 f i rendermodel.obj
 0001:00018520       ?load@md2@@UAE_NXZ         00419520 f i rendermodel.obj
 0001:000188d0       ?type@md3@@UAEHXZ          004198d0 f i rendermodel.obj
 0001:000188e0       ?load@md3part@md3@@QAE_NPAD@Z 004198e0 f i rendermodel.obj
 0001:00018f70       ?render@md3@@UAEXHHMHABUvec@@MMMPAVdynent@@PAUmodelattach@@M@Z 00419f70 f i rendermodel.obj
 0001:000194c0       ?rendershadow@md3@@UAEXHHMHABUvec@@MPAUmodelattach@@@Z 0041a4c0 f i rendermodel.obj
 0001:00019500       ?load@md3@@UAE_NXZ         0041a500 f i rendermodel.obj
 0001:000198a0       ??0md3part@md3@@QAE@XZ     0041a8a0 f i rendermodel.obj
 0001:000198f0       ?add@?$vector@PAUmodelbatch@@@@QAEAAPAUmodelbatch@@ABQAU2@@Z 0041a8f0 f i rendermodel.obj
 0001:000199b0       ?add@?$vector@Ubatchedmodel@@@@QAEAAUbatchedmodel@@XZ 0041a9b0 f i rendermodel.obj
 0001:00019a70       ?add@?$vector@PAD@@QAEAAPADABQAD@Z 0041aa70 f i texture.obj
 0001:00019a70       ?add@?$vector@PAUblock@@@@QAEAAPAUblock@@ABQAU2@@Z 0041aa70 f i editing.obj
 0001:00019a70       ?add@?$vector@PAUheaderextra@@@@QAEAAPAUheaderextra@@ABQAU2@@Z 0041aa70 f i worldio.obj
 0001:00019a70       ?add@?$vector@PAUident@@@@QAEAAPAUident@@ABQAU2@@Z 0041aa70 f i command.obj
 0001:00019a70       ?add@?$vector@PAUmapmodelattributes@@@@QAEAAPAUmapmodelattributes@@ABQAU2@@Z 0041aa70 f i rendermodel.obj
 0001:00019a70       ?add@?$vector@PAUmesh@vertmodel@@@@QAEAAPAUmesh@vertmodel@@ABQAU23@@Z 0041aa70 f i rendermodel.obj
 0001:00019a70       ?add@?$vector@PAUmitem@@@@QAEAAPAUmitem@@ABQAU2@@Z 0041aa70 f i menus.obj
 0001:00019a70       ?add@?$vector@PAUpart@vertmodel@@@@QAEAAPAUpart@vertmodel@@ABQAU23@@Z 0041aa70 f i rendermodel.obj
 0001:00019a70       ?add@?$vector@PAUservermap@@@@QAEAAPAUservermap@@ABQAU2@@Z 0041aa70 f i server.obj
 0001:00019a70       ?add@?$vector@PAVlocation@@@@QAEAAPAVlocation@@ABQAV2@@Z 0041aa70 f i audiomanager.obj
 0001:00019a70       ?add@?$vector@PAVplayerent@@@@QAEAAPAVplayerent@@ABQAV2@@Z 0041aa70 f i clientgame.obj
 0001:00019a70       ?add@?$vector@PBD@@QAEAAPBDABQBD@Z 0041aa70 f i rendermodel.obj
 0001:00019b00       ?access@?$hashtable@PBDD@@QAEPADABQBD@Z 0041ab00 f i rendermodel.obj
 0001:00019b00       ?access@?$hashtable@PBDH@@QAEPAHABQBD@Z 0041ab00 f i server.obj
 0001:00019b90       ??1?$hashtable@PBDD@@QAE@XZ 0041ab90 f i rendermodel.obj
 0001:00019b90       ??1?$hashtable@PBDH@@QAE@XZ 0041ab90 f i server.obj
 0001:00019be0       ??0?$hashtable@PBDD@@QAE@H@Z 0041abe0 f i rendermodel.obj
 0001:00019be0       ??0?$hashtable@PBDH@@QAE@H@Z 0041abe0 f i server.obj
 0001:00019be0       ??0?$hashtable@PBDUident@@@@QAE@H@Z 0041abe0 f i command.obj
 0001:00019be0       ??0?$hashtable@PBDUservpar@@@@QAE@H@Z 0041abe0 f i server.obj
 0001:00019c50       ?access@?$hashtable@PBDPAUmodel@@@@QAEAAPAUmodel@@ABQBDABQAU2@@Z 0041ac50 f i rendermodel.obj
 0001:00019e10       ?access@?$hashtable@PBDPAUmapmodelattributes@@@@QAEPAPAUmapmodelattributes@@ABQBD@Z 0041ae10 f i rendermodel.obj
 0001:00019ea0       ?add@?$vector@Upersistent_entity@@@@QAEAAUpersistent_entity@@ABU2@@Z 0041aea0 f i rendermodel.obj
 0001:00019ef0       ?add@?$vector@Uaniminfo@vertmodel@@@@QAEAAUaniminfo@vertmodel@@XZ 0041aef0 f i rendermodel.obj
 0001:00019f80       ?add@?$vector@Udrawcall@tristrip@@@@QAEAAUdrawcall@tristrip@@ABU23@@Z 0041af80 f i rendermodel.obj
 0001:0001a020       ?replacewithlast@?$vector@G@@QAEXABG@Z 0041b020 f i rendermodel.obj
 0001:0001a080       ?add@?$vector@D@@QAEAADABD@Z 0041b080 f i rendermodel.obj
 0001:0001a080       ?add@?$vector@E@@QAEAAEABE@Z 0041b080 f i rendermodel.obj
 0001:0001a0c0       ?insertchains@?$hashtable@PBDD@@QAEXPAUchainchunk@1@@Z 0041b0c0 f i rendermodel.obj
 0001:0001a0c0       ?insertchains@?$hashtable@PBDH@@QAEXPAUchainchunk@1@@Z 0041b0c0 f i server.obj
 0001:0001a0c0       ?insertchains@?$hashtable@PBDPAUmapmodelattributes@@@@QAEXPAUchainchunk@1@@Z 0041b0c0 f i rendermodel.obj
 0001:0001a190       ?growbuf@?$vector@Upersistent_entity@@@@QAEXH@Z 0041b190 f i rendermodel.obj
 0001:0001a200       ?insert@?$hashtable@II@@QAEPAUchain@1@ABII@Z 0041b200 f i rendermodel.obj
 0001:0001a200       ?insert@?$hashtable@PADI@@QAEPAUchain@1@ABQADI@Z 0041b200 f i worldio.obj
 0001:0001a320       ?insert@?$hashtable@Uedge@tristrip@@G@@QAEPAUchain@1@ABUedge@tristrip@@I@Z 0041b320 f i rendermodel.obj
 0001:0001a440       ?growbuf@?$vector@G@@QAEXH@Z 0041b440 f i rendermodel.obj
 0001:0001a4b0       ??4?$vector@H@@QAEAAU0@ABU0@@Z 0041b4b0 f i rendermodel.obj
 0001:0001a530       ?growbuf@?$vector@D@@QAEXH@Z 0041b530 f i rendermodel.obj
 0001:0001a530       ?growbuf@?$vector@E@@QAEXH@Z 0041b530 f i rendermodel.obj
 0001:0001a590       ?insertchains@?$hashtable@Uivec@@H@@QAEXPAUchainchunk@1@@Z 0041b590 f i rendermodel.obj
 0001:0001a590       ?insertchains@?$hashtable@Uvec@@H@@QAEXPAUchainchunk@1@@Z 0041b590 f i rendermodel.obj
 0001:0001a670       ?skin@playerent@@QAEHH@Z   0041b670 f i rendermodel.obj
 0001:0001a690       ?dist@vec@@QBEMABU1@@Z     0041b690 f i rendermodel.obj
 0001:0001a6f0       ??_Emodel@@UAEPAXI@Z       0041b6f0 f i * CIL library *:* CIL module *
 0001:0001a6f0       ??_Gmodel@@UAEPAXI@Z       0041b6f0 f i rendermodel.obj
 0001:0001a720       ?fromquat@glmatrixf@@QAEXAAUquat@@@Z 0041b720 f i rendermodel.obj
 0001:0001a8c0       ?rotate_around_x@vec@@QAEXM@Z 0041b8c0 f i rendermodel.obj
 0001:0001a940       ?genshadows@model@@UAEXMM@Z 0041b940 f i rendermodel.obj
 0001:0001a940       ?key@mitem@@UAEXH_N@Z      0041b940 f i menus.obj
 0001:0001a950       ?rendershadow@model@@UAEXHHMHABUvec@@MPAUmodelattach@@@Z 0041b950 f i rendermodel.obj
 0001:0001a960       ?busy@weapon@@UAE_NXZ      0041b960 f i weapon.obj
 0001:0001a960       ?hasshadows@model@@UAE_NXZ 0041b960 f i rendermodel.obj
 0001:0001a960       ?isdisabled@mapaction@@UAE_NXZ 0041b960 f i server.obj
 0001:0001a960       ?isdisabled@serveraction@@UAE_NXZ 0041b960 f i server.obj
 0001:0001a960       ?selectable@hands@@UAE_NXZ 0041b960 f i weapon.obj
 0001:0001a970       ?concatstring@@YAPADPADPBDI@Z 0041b970 f i rendermodel.obj
 0001:0001a9b0       ?strrchr@@YAPADQADH@Z      0041b9b0 f i rendermodel.obj
 0001:0001a9c0       ?newstring@@YAPADPBD@Z     0041b9c0 f i rendermodel.obj
 0001:0001aa00       ??9vec@@QBE_NABU0@@Z       0041ba00 f i rendermodel.obj
 0001:0001aa40       ?inrange@?$vector@PAUigraph@@@@QBE_NH@Z 0041ba40 f i rendertext.obj
 0001:0001aa60       ?add@?$vector@PAUigraph@@@@QAEAAPAUigraph@@ABQAU2@@Z 0041ba60 f i rendertext.obj
 0001:0001ab20       ?access@?$hashtable@PBDUigraph@@@@QAEPAUigraph@@ABQBD@Z 0041bb20 f i rendertext.obj
 0001:0001abb0       ?add@?$vector@Uthreeint@@@@QAEAAUthreeint@@ABU2@@Z 0041bbb0 f i rendertext.obj
 0001:0001ac60       ?access@?$hashtable@PBDUfont@@@@QAEPAUfont@@ABQBD@Z 0041bc60 f i rendertext.obj
 0001:0001acf0       ?insertchains@?$hashtable@PBDUigraph@@@@QAEXPAUchainchunk@1@@Z 0041bcf0 f i rendertext.obj
 0001:0001add0       ?insertchains@?$hashtable@PBDUfont@@@@QAEXPAUchainchunk@1@@Z 0041bdd0 f i rendertext.obj
 0001:0001aed0       ?remove@?$vector@Utemptexslot@@@@QAE?AUtemptexslot@@H@Z 0041bed0 f i texture.obj
 0001:0001afc0       ??A?$hashtable@PADUTexture@@@@QAEAAUTexture@@ABQAD@Z 0041bfc0 f i texture.obj
 0001:0001b1a0       ?remove@?$vector@H@@QAEHH@Z 0041c1a0 f i texture.obj
 0001:0001b1f0       ?deletearrays@?$vector@PAD@@QAEXXZ 0041c1f0 f i texture.obj
 0001:0001b220       ?growbuf@?$vector@Utemptexslot@@@@QAEXH@Z 0041c220 f i texture.obj
 0001:0001b290       ?growbuf@?$vector@USlot@@@@QAEXH@Z 0041c290 f i texture.obj
 0001:0001b300       ?putbits@?$bitbuf@Upacketbuf@@@@QAEXHH@Z 0041c300 f i client.obj
 0001:0001b3d0       ?put@packetbuf@@QAEXABE@Z  0041c3d0 f i client.obj
 0001:0001b440       ?put@packetbuf@@QAEXPBEH@Z 0041c440 f i client.obj
 0001:0001b4c0       ?finalize@packetbuf@@QAEPAU_ENetPacket@@XZ 0041c4c0 f i client.obj
 0001:0001b4f0       ??1packetbuf@@QAE@XZ       0041c4f0 f i client.obj
 0001:0001b530       ??0packetbuf@@QAE@HH@Z     0041c530 f i client.obj
 0001:0001b580       ?spawn_message@@YAPBDXZ    0041c580 f i clientgame.obj
 0001:0001b5d0       ??0physent@@QAE@ABV0@@Z    0041c5d0 f i clientgame.obj
 0001:0001b700       ?growbuf@?$vector@Umline@@@@QAEXH@Z 0041c700 f i clientgame.obj
 0001:0001b770       _sprintf                   0041c770 f i clientgame.obj
 0001:0001b7b0       ?damageroll@playerent@@QAEXM@Z 0041c7b0 f i clientgame.obj
 0001:0001b830       ?dodamage@playerstate@@QAEHHH@Z 0041c830 f i clientgame.obj
 0001:0001b940       ?weaponswitch@playerent@@QAEXPAUweapon@@_N@Z 0041c940 f i clientgame.obj
 0001:0001b9c0       ??_Eplayerent@@UAEPAXI@Z   0041c9c0 f i * CIL library *:* CIL module *
 0001:0001b9c0       ??_Gplayerent@@UAEPAXI@Z   0041c9c0 f i clientgame.obj
 0001:0001b9f0       ??1playerent@@UAE@XZ       0041c9f0 f i clientgame.obj
 0001:0001bc40       ??_Ebotent@@UAEPAXI@Z      0041cc40 f i * CIL library *:* CIL module *
 0001:0001bc40       ??_Gbotent@@UAEPAXI@Z      0041cc40 f i clientgame.obj
 0001:0001bc73       ??_Ebotent@@WOM@AEPAXI@Z   0041cc73 f i clientgame.obj
 0001:0001bc80       ??_Eplayerstate@@UAEPAXI@Z 0041cc80 f i * CIL library *:* CIL module *
 0001:0001bc80       ??_Gplayerstate@@UAEPAXI@Z 0041cc80 f i clientgame.obj
 0001:0001bca4       ??_Eplayerent@@WOM@AEPAXI@Z 0041cca4 f i clientgame.obj
 0001:0001bcb0       ??0playerent@@QAE@XZ       0041ccb0 f i clientgame.obj
 0001:0001c160       ?spawnstate@playerstate@@UAEXH@Z 0041d160 f i clientgame.obj
 0001:0001c340       ?spawnstate@playerent@@UAEXH@Z 0041d340 f i clientgame.obj
 0001:0001c3c0       ?respawn@playerstate@@QAEXXZ 0041d3c0 f i clientgame.obj
 0001:0001c410       ?respawn@playerent@@QAEXXZ 0041d410 f i clientgame.obj
 0001:0001c500       ?resetinterp@physent@@QAEXXZ 0041d500 f i clientgame.obj
 0001:0001c540       ?getbits@?$bitbuf@U?$databuf@E@@@@QAEHH@Z 0041d540 f i clients2c.obj
 0001:0001c5f0       ?get@?$databuf@E@@QAEHPAEH@Z 0041d5f0 f i clients2c.obj
 0001:0001c630       ?growbuf@?$vector@Uentity@@@@QAEXH@Z 0041d630 f i clients2c.obj
 0001:0001c6c0       ??_Ecamerareference@@UAEPAXI@Z 0041d6c0 f i * CIL library *:* CIL module *
 0001:0001c6c0       ??_Eworldobjreference@@UAEPAXI@Z 0041d6c0 f i * CIL library *:* CIL module *
 0001:0001c6c0       ??_Gcamerareference@@UAEPAXI@Z 0041d6c0 f i audiomanager.obj
 0001:0001c6c0       ??_Gworldobjreference@@UAEPAXI@Z 0041d6c0 f i clients2c.obj
 0001:0001c6f0       ??9worldobjreference@@UAE_NABV0@@Z 0041d6f0 f i clients2c.obj
 0001:0001c710       ?hitpush@playerent@@QAEXHABUvec@@PAV1@H@Z 0041d710 f i clients2c.obj
 0001:0001c7d0       ?selectweapon@playerent@@QAEXH_N@Z 0041d7d0 f i clients2c.obj
 0001:0001c840       ?isalive@clientstate@@QAE_NH@Z 0041d840 f i server.obj
 0001:0001c870       ?respawn@clientstate@@QAEXXZ 0041d870 f i server.obj
 0001:0001c8d0       ??_Eclientstate@@UAEPAXI@Z 0041d8d0 f i * CIL library *:* CIL module *
 0001:0001c8d0       ??_Gclientstate@@UAEPAXI@Z 0041d8d0 f i server.obj
 0001:0001c900       ?save@savedscore@@QAEXAAUclientstate@@H@Z 0041d900 f i server.obj
 0001:0001c990       ?addevent@client@@QAEAATgameevent@@XZ 0041d990 f i server.obj
 0001:0001ca40       ?mapchange@client@@QAEX_N@Z 0041da40 f i server.obj
 0001:0001cc00       ?reset@client@@QAEXXZ      0041dc00 f i server.obj
 0001:0001cd80       ?checkvitadate@client@@QAE_NH@Z 0041dd80 f i server.obj
 0001:0001cdb0       ??0servermap@@QAE@PBD0@Z   0041ddb0 f i server.obj
 0001:0001ce10       ?load@servermap@@QAEXXZ    0041de10 f i server.obj
 0001:0001e070       ?clear@servermaprot@@UAEXXZ 0041f070 f i server.obj
 0001:0001e0d0       ?load@servermaprot@@UAE_NXZ 0041f0d0 f i server.obj
 0001:0001e470       ?read@servermaprot@@UAEXXZ 0041f470 f i server.obj
 0001:0001e5a0       ?initmap@servermaprot@@QAEXPAUservermap@@PAUstream@@@Z 0041f5a0 f i server.obj
 0001:0001ea50       ?next@servermaprot@@QAEPAUservermap@@_N0@Z 0041fa50 f i server.obj
 0001:0001eb30       ??_Eservermaprot@@UAEPAXI@Z 0041fb30 f i * CIL library *:* CIL module *
 0001:0001eb30       ??_Gservermaprot@@UAEPAXI@Z 0041fb30 f i server.obj
 0001:0001eb60       ??1servermaprot@@UAE@XZ    0041fb60 f i server.obj
 0001:0001ebf0       ?clear@serverinfofile@@UAEXXZ 0041fbf0 f i server.obj
 0001:0001ebf0       ?clear@serveripblacklist@@UAEXXZ 0041fbf0 f i server.obj
 0001:0001ebf0       ?clear@serveripcclist@@UAEXXZ 0041fbf0 f i server.obj
 0001:0001ec10       ?read@serveripcclist@@UAEXXZ 0041fc10 f i server.obj
 0001:0001f1b0       ?read@serveripblacklist@@UAEXXZ 004201b0 f i server.obj
 0001:0001f540       ?check@serveripblacklist@@QAE_NI@Z 00420540 f i server.obj
 0001:0001f590       ?clear@servernickblacklist@@UAEXXZ 00420590 f i server.obj
 0001:0001f650       ?read@servernickblacklist@@UAEXXZ 00420650 f i server.obj
 0001:00020110       ?checkwhitelist@servernickblacklist@@QAEHABUclient@@@Z 00421110 f i server.obj
 0001:00020270       ?checkblacklist@servernickblacklist@@QAEHPBD@Z 00421270 f i server.obj
 0001:00020390       ?clear@serverforbiddenlist@@UAEXXZ 00421390 f i server.obj
 0001:000203c0       ?read@serverforbiddenlist@@UAEXXZ 004213c0 f i server.obj
 0001:000204e0       ?canspeech@serverforbiddenlist@@QAE_NPAD@Z 004214e0 f i server.obj
 0001:00020660       ?clear@serverpasswords@@UAEXXZ 00421660 f i server.obj
 0001:00020680       ?read@serverpasswords@@UAEXXZ 00421680 f i server.obj
 0001:00020930       ?check@serverpasswords@@QAE_NPBD0HPAUpwddetail@@I@Z 00421930 f i server.obj
 0001:00020af0       ??_Eserverinfofile@@UAEPAXI@Z 00421af0 f i * CIL library *:* CIL module *
 0001:00020af0       ??_Eserverpasswords@@UAEPAXI@Z 00421af0 f i * CIL library *:* CIL module *
 0001:00020af0       ??_Gserverinfofile@@UAEPAXI@Z 00421af0 f i server.obj
 0001:00020af0       ??_Gserverpasswords@@UAEPAXI@Z 00421af0 f i server.obj
 0001:00020b20       ??1serverinfofile@@UAE@XZ  00421b20 f i server.obj
 0001:00020b20       ??1serveripblacklist@@UAE@XZ 00421b20 f i server.obj
 0001:00020b20       ??1serveripcclist@@UAE@XZ  00421b20 f i server.obj
 0001:00020b20       ??1serverpasswords@@UAE@XZ 00421b20 f i server.obj
 0001:00020b90       ?read@serverinfofile@@UAEXXZ 00421b90 f i server.obj
 0001:00020c80       ?update@servpar@@QAEXXZ    00421c80 f i server.obj
 0001:00020d90       ?nextvalue@servpar@@QAE_NPAD@Z 00421d90 f i server.obj
 0001:00020e60       ?load@serverparameter@@UAE_NXZ 00421e60 f i server.obj
 0001:00021010       ?read@serverparameter@@UAEXXZ 00422010 f i server.obj
 0001:00021190       ??_Eserverconfigfile@@UAEPAXI@Z 00422190 f i * CIL library *:* CIL module *
 0001:00021190       ??_Eserverparameter@@UAEPAXI@Z 00422190 f i * CIL library *:* CIL module *
 0001:00021190       ??_Gserverconfigfile@@UAEPAXI@Z 00422190 f i server.obj
 0001:00021190       ??_Gserverparameter@@UAEPAXI@Z 00422190 f i server.obj
 0001:000211f0       ??_Eserveripblacklist@@UAEPAXI@Z 004221f0 f i * CIL library *:* CIL module *
 0001:000211f0       ??_Eserveripcclist@@UAEPAXI@Z 004221f0 f i * CIL library *:* CIL module *
 0001:000211f0       ??_Gserveripblacklist@@UAEPAXI@Z 004221f0 f i server.obj
 0001:000211f0       ??_Gserveripcclist@@UAEPAXI@Z 004221f0 f i server.obj
 0001:00021220       ??1servernickblacklist@@UAE@XZ 00422220 f i server.obj
 0001:000212e0       ??_Eservernickblacklist@@UAEPAXI@Z 004222e0 f i * CIL library *:* CIL module *
 0001:000212e0       ??_Gservernickblacklist@@UAEPAXI@Z 004222e0 f i server.obj
 0001:00021310       ??_Eserverforbiddenlist@@UAEPAXI@Z 00422310 f i * CIL library *:* CIL module *
 0001:00021310       ??_Gserverforbiddenlist@@UAEPAXI@Z 00422310 f i server.obj
 0001:00021370       ??_Gservermap@@QAEPAXI@Z   00422370 f i server.obj
 0001:00021470       ??_Gworldstate@@QAEPAXI@Z  00422470 f i server.obj
 0001:000214d0       ?send_item_list@@YAXAAUpacketbuf@@@Z 004224d0 f i server.obj
 0001:00021560       ?check_pdist@@YAHPAUclient@@AAM@Z 00422560 f i server.obj
 0001:000215b0       ?addban@@YAXPAUclient@@HH@Z 004225b0 f i server.obj
 0001:000216a0       ?applyphysics@bounceent@@UAE_NXZ 004226a0 f i entities.obj
 0001:000216a0       ?deselectable@hands@@UAE_NXZ 004226a0 f i weapon.obj
 0001:000216a0       ?isvalid@recorddemoaction@@UAE_NXZ 004226a0 f i server.obj
 0001:000216a0       ?isvalid@serveraction@@UAE_NXZ 004226a0 f i server.obj
 0001:000216a0       ___acrt_uninitialize_command_line 004226a0 f i libucrt:argv_data.obj
 0001:000216a0       __should_initialize_environment 004226a0 f i LIBCMT:env_mode.obj
 0001:000216b0       ??_Eremovebansaction@@UAEPAXI@Z 004226b0 f i * CIL library *:* CIL module *
 0001:000216b0       ??_Eserveraction@@UAEPAXI@Z 004226b0 f i * CIL library *:* CIL module *
 0001:000216b0       ??_Eshuffleteamaction@@UAEPAXI@Z 004226b0 f i * CIL library *:* CIL module *
 0001:000216b0       ??_Gremovebansaction@@UAEPAXI@Z 004226b0 f i server.obj
 0001:000216b0       ??_Gserveraction@@UAEPAXI@Z 004226b0 f i server.obj
 0001:000216b0       ??_Gshuffleteamaction@@UAEPAXI@Z 004226b0 f i server.obj
 0001:000216e0       ?perform@mapaction@@UAEXXZ 004226e0 f i server.obj
 0001:000217d0       ?isvalid@mapaction@@UAE_NXZ 004227d0 f i server.obj
 0001:00021830       ??0mapaction@@QAE@PADHHH_N@Z 00422830 f i server.obj
 0001:00021e00       ??_Emapaction@@UAEPAXI@Z   00422e00 f i * CIL library *:* CIL module *
 0001:00021e00       ??_Gmapaction@@UAEPAXI@Z   00422e00 f i server.obj
 0001:00021e50       ?perform@demoplayaction@@UAEXXZ 00422e50 f i server.obj
 0001:00021e80       ??_Edemoplayaction@@UAEPAXI@Z 00422e80 f i * CIL library *:* CIL module *
 0001:00021e80       ??_Gdemoplayaction@@UAEPAXI@Z 00422e80 f i server.obj
 0001:00021ed0       ?isvalid@playeraction@@UAE_NXZ 00422ed0 f i server.obj
 0001:00021f00       ??0playeraction@@QAE@H@Z   00422f00 f i server.obj
 0001:00021f60       ??_Egiveadminaction@@UAEPAXI@Z 00422f60 f i * CIL library *:* CIL module *
 0001:00021f60       ??_Eplayeraction@@UAEPAXI@Z 00422f60 f i * CIL library *:* CIL module *
 0001:00021f60       ??_Ggiveadminaction@@UAEPAXI@Z 00422f60 f i server.obj
 0001:00021f60       ??_Gplayeraction@@UAEPAXI@Z 00422f60 f i server.obj
 0001:00021f90       ?perform@forceteamaction@@UAEXXZ 00422f90 f i server.obj
 0001:00021fb0       ?isvalid@forceteamaction@@UAE_NXZ 00422fb0 f i server.obj
 0001:00021ff0       ??_Ebanaction@@UAEPAXI@Z   00422ff0 f i * CIL library *:* CIL module *
 0001:00021ff0       ??_Eforceteamaction@@UAEPAXI@Z 00422ff0 f i * CIL library *:* CIL module *
 0001:00021ff0       ??_Ekickaction@@UAEPAXI@Z  00422ff0 f i * CIL library *:* CIL module *
 0001:00021ff0       ??_Gbanaction@@UAEPAXI@Z   00422ff0 f i server.obj
 0001:00021ff0       ??_Gforceteamaction@@UAEPAXI@Z 00422ff0 f i server.obj
 0001:00021ff0       ??_Gkickaction@@UAEPAXI@Z  00422ff0 f i server.obj
 0001:00022020       ?perform@giveadminaction@@UAEXXZ 00423020 f i server.obj
 0001:00022040       ?perform@kickaction@@UAEXXZ 00423040 f i server.obj
 0001:00022060       ?isvalid@banaction@@UAE_NXZ 00423060 f i server.obj
 0001:00022060       ?isvalid@kickaction@@UAE_NXZ 00423060 f i server.obj
 0001:000220a0       ?perform@banaction@@UAEXXZ 004230a0 f i server.obj
 0001:000220d0       ?perform@removebansaction@@UAEXXZ 004230d0 f i server.obj
 0001:000220f0       ?perform@pauseaction@@UAEXXZ 004230f0 f i server.obj
 0001:00022160       ?isvalid@pauseaction@@UAE_NXZ 00423160 f i server.obj
 0001:00022180       ??_Eautoteamaction@@UAEPAXI@Z 00423180 f i * CIL library *:* CIL module *
 0001:00022180       ??_Ecleardemosaction@@UAEPAXI@Z 00423180 f i * CIL library *:* CIL module *
 0001:00022180       ??_Emastermodeaction@@UAEPAXI@Z 00423180 f i * CIL library *:* CIL module *
 0001:00022180       ??_Epauseaction@@UAEPAXI@Z 00423180 f i * CIL library *:* CIL module *
 0001:00022180       ??_Erecorddemoaction@@UAEPAXI@Z 00423180 f i * CIL library *:* CIL module *
 0001:00022180       ??_Gautoteamaction@@UAEPAXI@Z 00423180 f i server.obj
 0001:00022180       ??_Gcleardemosaction@@UAEPAXI@Z 00423180 f i server.obj
 0001:00022180       ??_Gmastermodeaction@@UAEPAXI@Z 00423180 f i server.obj
 0001:00022180       ??_Gpauseaction@@UAEPAXI@Z 00423180 f i server.obj
 0001:00022180       ??_Grecorddemoaction@@UAEPAXI@Z 00423180 f i server.obj
 0001:000221b0       ?perform@mastermodeaction@@UAEXXZ 004231b0 f i server.obj
 0001:000221c0       ?isvalid@mastermodeaction@@UAE_NXZ 004231c0 f i server.obj
 0001:000221d0       ?perform@autoteamaction@@UAEXXZ 004231d0 f i server.obj
 0001:00022270       ?perform@shuffleteamaction@@UAEXXZ 00423270 f i server.obj
 0001:000222c0       ?isvalid@shuffleteamaction@@UAE_NXZ 004232c0 f i server.obj
 0001:00022310       ?perform@cleardemosaction@@UAEXXZ 00423310 f i server.obj
 0001:000223c0       ?perform@serverdescaction@@UAEXXZ 004233c0 f i server.obj
 0001:00022470       ?isvalid@serverdescaction@@UAE_NXZ 00423470 f i server.obj
 0001:000224b0       ??_Eserverdescaction@@UAEPAXI@Z 004234b0 f i * CIL library *:* CIL module *
 0001:000224b0       ??_Gserverdescaction@@UAEPAXI@Z 004234b0 f i server.obj
 0001:00022500       ?end@voteinfo@@QAEXH@Z     00423500 f i server.obj
 0001:000225d0       ?evaluate@voteinfo@@QAEX_N@Z 004235d0 f i server.obj
 0001:000227b0       ?full@?$ringbuf@PAUservinfoauth@@$0BA@@@QBE_NXZ 004237b0 f i server.obj
 0001:000227e0       ?add@?$ringbuf@E$0EAAAA@@@QAEXPBEH@Z 004237e0 f i server.obj
 0001:00022860       ?remove@?$vector@Uban@@@@QAE?AUban@@H@Z 00423860 f i server.obj
 0001:000228d0       ?add@?$vector@PAUclient@@@@QAEAAPAUclient@@ABQAU2@@Z 004238d0 f i server.obj
 0001:00022990       ?access@?$hashtable@Uuchar32@@Uvita_s@@@@QAEAAUvita_s@@ABUuchar32@@ABU2@@Z 00423990 f i server.obj
 0001:00022b70       ?access@?$hashtable@Uuchar32@@Uvita_s@@@@QAEPAUvita_s@@ABUuchar32@@@Z 00423b70 f i server.obj
 0001:00022bd0       ?access@?$hashtable@PBDUservpar@@@@QAEAAUservpar@@ABQBDABU2@@Z 00423bd0 f i server.obj
 0001:00022cd0       ?access@?$hashtable@PBDUservpar@@@@QAEPAUservpar@@ABQBD@Z 00423cd0 f i server.obj
 0001:00022d60       ?add@?$vector@Upwddetail@@@@QAEAAUpwddetail@@ABU2@@Z 00423d60 f i server.obj
 0001:00022e00       ?clear@?$hashtable@PBDH@@QAEX_N@Z 00423e00 f i server.obj
 0001:00022f50       ?access@?$hashtable@PBDH@@QAEAAHABQBDABH@Z 00423f50 f i server.obj
 0001:00023040       ?remove@?$vector@Uiprangecc@@@@QAE?AUiprangecc@@H@Z 00424040 f i server.obj
 0001:000230a0       ?insertchains@?$hashtable@PBDUservpar@@@@QAEXPAUchainchunk@1@@Z 004240a0 f i server.obj
 0001:00023190       __vfprintf_l               00424190 f i server.obj
 0001:000231c0       _printf                    004241c0 f i server.obj
 0001:000231e0       ?pickup@playerstate@@QAEXH@Z 004241e0 f i server.obj
 0001:000232e0       ?canpickup@playerstate@@QAE_NH@Z 004242e0 f i server.obj
 0001:000233b0       ??_G?$vector@E@@QAEPAXI@Z  004243b0 f i server.obj
 0001:000233f0       ___local_stdio_scanf_options 004243f0 f i server.obj
 0001:00023400       _sscanf                    00424400 f i server.obj
 0001:00023430       ??1serverconfigfile@@UAE@XZ 00424430 f i server.obj
 0001:00023470       ??0serverconfigfile@@QAE@XZ 00424470 f i server.obj
 0001:000234d0       ??_Gserverinfo@@QAEPAXI@Z  004244d0 f i serverbrowser.obj
 0001:00023540       ??1httpget@@QAE@XZ         00424540 f i serverbrowser.obj
 0001:00023610       ??0httpget@@QAE@XZ         00424610 f i serverbrowser.obj
 0001:00023670       ?forceinsideborders@@YAXAAH@Z 00424670 f i editing.obj
 0001:000236a0       ?remove@?$vector@Ublock@@@@QAE?AUblock@@H@Z 004246a0 f i editing.obj
 0001:00023720       ?remove@?$vector@Upersistent_entity@@@@QAE?AUpersistent_entity@@H@Z 00424720 f i world.obj
 0001:00023790       ?add@?$vector@Uentity@@@@QAEAAUentity@@ABU2@@Z 00424790 f i world.obj
 0001:000237f0       ?find@?$vector@H@@QAEHABH@Z 004247f0 f i world.obj
 0001:000237f0       ?find@?$vector@PAUmitem@@@@QAEHABQAUmitem@@@Z 004247f0 f i menus.obj
 0001:00023820       ?clear@_mapconfigdata@@QAEXXZ 00424820 f i world.obj
 0001:00023840       ??0xmap@@QAE@PBD@Z         00424840 f i worldio.obj
 0001:00023db0       ??1xmap@@QAE@XZ            00424db0 f i worldio.obj
 0001:00023f60       ?restore@xmap@@QAEXXZ      00424f60 f i worldio.obj
 0001:000244e0       ?write@xmap@@QAEXPAUstream@@@Z 004254e0 f i worldio.obj
 0001:00024880       ??_Gxmap@@QAEPAXI@Z        00425880 f i worldio.obj
 0001:000248a0       ?remove@?$vector@PAUxmap@@@@QAEPAUxmap@@H@Z 004258a0 f i worldio.obj
 0001:000248f0       ?add@?$vector@PAUxmap@@@@QAEAAPAUxmap@@ABQAU2@@Z 004258f0 f i worldio.obj
 0001:000249b0       ?add@?$vector@Upersistent_entity@@@@QAEAAUpersistent_entity@@XZ 004259b0 f i worldio.obj
 0001:000249e0       ??A?$hashtable@PADI@@QAEAAIABQAD@Z 004259e0 f i worldio.obj
 0001:00024a80       ?remove@?$vector@PAUheaderextra@@@@QAEPAUheaderextra@@H@Z 00425a80 f i worldio.obj
 0001:00024ad0       ??_Ebounceent@@UAEPAXI@Z   00425ad0 f i * CIL library *:* CIL module *
 0001:00024ad0       ??_Gbounceent@@UAEPAXI@Z   00425ad0 f i entities.obj
 0001:00024b00       ??0bounceent@@QAE@XZ       00425b00 f i entities.obj
 0001:00024b60       ?rotate@vec@@QAEAAU1@MABU1@@Z 00425b60 f i entities.obj
 0001:00024ce0       ?addcol@sline@@QAAXHPBDZZ  00425ce0 f i scoreboard.obj
 0001:00024e20       ?getcols@sline@@QAEPADXZ   00425e20 f i scoreboard.obj
 0001:00024f20       ?add@?$vector@Usline@@@@QAEAAUsline@@XZ 00425f20 f i scoreboard.obj
 0001:00025020       ??1?$vector@Ucoldata@@@@QAE@XZ 00426020 f i scoreboard.obj
 0001:00025070       ?calcmove@weaponmove@@QAEXUvec@@HPAVplayerent@@@Z 00426070 f i weapon.obj
 0001:000255e0       ?intersecttriangle@@YA_NABUvec@@0000PAU1@PAM@Z 004265e0 f i weapon.obj
 0001:00025890       ?attackevent@@YAXPAVplayerent@@H@Z 00426890 f i weapon.obj
 0001:000258b0       ??_Egrenadeent@@UAEPAXI@Z  004268b0 f i * CIL library *:* CIL module *
 0001:000258b0       ??_Ggrenadeent@@UAEPAXI@Z  004268b0 f i weapon.obj
 0001:00025900       ??_Egrenades@@UAEPAXI@Z    00426900 f i * CIL library *:* CIL module *
 0001:00025900       ??_Ggrenades@@UAEPAXI@Z    00426900 f i weapon.obj
 0001:00025930       ??_Eassaultrifle@@UAEPAXI@Z 00426930 f i * CIL library *:* CIL module *
 0001:00025930       ??_Ecarbine@@UAEPAXI@Z     00426930 f i * CIL library *:* CIL module *
 0001:00025930       ??_Eflintlock@@UAEPAXI@Z   00426930 f i * CIL library *:* CIL module *
 0001:00025930       ??_Egun@@UAEPAXI@Z         00426930 f i * CIL library *:* CIL module *
 0001:00025930       ??_Ehands@@UAEPAXI@Z       00426930 f i * CIL library *:* CIL module *
 0001:00025930       ??_Eknife@@UAEPAXI@Z       00426930 f i * CIL library *:* CIL module *
 0001:00025930       ??_Epistol@@UAEPAXI@Z      00426930 f i * CIL library *:* CIL module *
 0001:00025930       ??_Eshotgun@@UAEPAXI@Z     00426930 f i * CIL library *:* CIL module *
 0001:00025930       ??_Esubgun@@UAEPAXI@Z      00426930 f i * CIL library *:* CIL module *
 0001:00025930       ??_Eweapon@@UAEPAXI@Z      00426930 f i * CIL library *:* CIL module *
 0001:00025930       ??_Gassaultrifle@@UAEPAXI@Z 00426930 f i weapon.obj
 0001:00025930       ??_Gcarbine@@UAEPAXI@Z     00426930 f i weapon.obj
 0001:00025930       ??_Gflintlock@@UAEPAXI@Z   00426930 f i weapon.obj
 0001:00025930       ??_Ggun@@UAEPAXI@Z         00426930 f i weapon.obj
 0001:00025930       ??_Ghands@@UAEPAXI@Z       00426930 f i weapon.obj
 0001:00025930       ??_Gknife@@UAEPAXI@Z       00426930 f i weapon.obj
 0001:00025930       ??_Gpistol@@UAEPAXI@Z      00426930 f i weapon.obj
 0001:00025930       ??_Gshotgun@@UAEPAXI@Z     00426930 f i weapon.obj
 0001:00025930       ??_Gsubgun@@UAEPAXI@Z      00426930 f i weapon.obj
 0001:00025930       ??_Gweapon@@UAEPAXI@Z      00426930 f i weapon.obj
 0001:00025960       ??_Esniperrifle@@UAEPAXI@Z 00426960 f i * CIL library *:* CIL module *
 0001:00025960       ??_Gsniperrifle@@UAEPAXI@Z 00426960 f i weapon.obj
 0001:00025990       ??_Eakimbo@@UAEPAXI@Z      00426990 f i * CIL library *:* CIL module *
 0001:00025990       ??_Gakimbo@@UAEPAXI@Z      00426990 f i weapon.obj
 0001:000259c0       ?remove@?$vector@PAVbounceent@@@@QAEPAVbounceent@@H@Z 004269c0 f i weapon.obj
 0001:00025a10       ?add@?$vector@PAVbounceent@@@@QAEAAPAVbounceent@@ABQAV2@@Z 00426a10 f i weapon.obj
 0001:00025ad0       ?access@?$hashtable@HUkeym@@@@QAEPAUkeym@@ABH@Z 00426ad0 f i weapon.obj
 0001:00025b10       ?parsequotes@@YAPADAAPBD@Z 00426b10 f i command.obj
 0001:00025b80       ??A?$hashtable@PADPAUcompleteval@@@@QAEAAPAUcompleteval@@ABQAD@Z 00426b80 f i command.obj
 0001:00025d40       ?access@?$hashtable@PADPAUcompleteval@@@@QAEPAPAUcompleteval@@ABQAD@Z 00426d40 f i command.obj
 0001:00025dd0       ?remove@?$hashtable@PBDUident@@@@QAE_NABQBD@Z 00426dd0 f i command.obj
 0001:00025e80       ?access@?$hashtable@PBDUident@@@@QAEAAUident@@ABQBDABU2@@Z 00426e80 f i command.obj
 0001:00025f90       ?access@?$hashtable@PBDUident@@@@QAEPAUident@@ABQBD@Z 00426f90 f i command.obj
 0001:00026020       ?insertchains@?$hashtable@Ucompletekey@@PAUcompleteval@@@@QAEXPAUchainchunk@1@@Z 00427020 f i command.obj
 0001:00026110       ?insertchains@?$hashtable@PBDUident@@@@QAEXPAUchainchunk@1@@Z 00427110 f i command.obj
 0001:00026200       ?remove@?$vector@PAUpackage@@@@QAEPAUpackage@@H@Z 00427200 f i autodownload.obj
 0001:00026250       ?add@?$vector@PAUpckserver@@@@QAEAAPAUpckserver@@ABQAU2@@Z 00427250 f i autodownload.obj
 0001:00026310       ?render@console@@UAEXXZ    00427310 f i console.obj
 0001:00026600       ??_Econsole@@UAEPAXI@Z     00427600 f i * CIL library *:* CIL module *
 0001:00026600       ??_Gconsole@@UAEPAXI@Z     00427600 f i console.obj
 0001:00026620       ?restore@hline@@QAEXXZ     00427620 f i console.obj
 0001:00026710       ?save@hline@@QAEXXZ        00427710 f i console.obj
 0001:000267b0       ?run@hline@@QAEXXZ         004277b0 f i console.obj
 0001:00026850       ??_Ghline@@QAEPAXI@Z       00427850 f i console.obj
 0001:000268b0       ?add@?$vector@PAUhline@@@@QAEAAPAUhline@@ABQAU2@@Z 004278b0 f i console.obj
 0001:00026970       ?add@?$vector@PAUkeym@@@@QAEAAPAUkeym@@ABQAU2@@Z 00427970 f i console.obj
 0001:00026a30       ??1?$consolebuffer@Ucline@@@@UAE@XZ 00427a30 f i console.obj
 0001:00026a80       ??_E?$consolebuffer@Ucline@@@@UAEPAXI@Z 00427a80 f i * CIL library *:* CIL module *
 0001:00026a80       ??_G?$consolebuffer@Ucline@@@@UAEPAXI@Z 00427a80 f i console.obj
 0001:00026aa0       ?insertchains@?$hashtable@HUkeym@@@@QAEXPAUchainchunk@1@@Z 00427aa0 f i console.obj
 0001:00026b80       ??1keym@@QAE@XZ            00427b80 f i console.obj
 0001:00026bd0       ?key@textinputbuffer@@QAE_NH@Z 00427bd0 f i console.obj
 0001:00026e00       ??_Gauthkey@@QAEPAXI@Z     00427e00 f i crypto.obj
 0001:00026e40       ??_Gcert@@QAEPAXI@Z        00427e40 f i crypto.obj
 0001:00026ec0       ??_Gmakecert@@QAEPAXI@Z    00427ec0 f i crypto.obj
 0001:00026f00       ?add@?$vector@PAUauthkey@@@@QAEAAPAUauthkey@@ABQAU2@@Z 00427f00 f i crypto.obj
 0001:00026fc0       ?growbuf@?$vector@Ucertline@@@@QAEXH@Z 00427fc0 f i crypto.obj
 0001:00027030       ??0cert@@QAE@PBD@Z         00428030 f i crypto.obj
 0001:000271f0       ??1docident@@QAE@XZ        004281f0 f i docs.obj
 0001:000272d0       ?access@?$hashtable@PBDUdocident@@@@QAEPAUdocident@@ABQBD@Z 004282d0 f i docs.obj
 0001:00027360       ??1?$vector@Udocexample@@@@QAE@XZ 00428360 f i docs.obj
 0001:000273c0       ??1?$vector@Udocargument@@@@QAE@XZ 004283c0 f i docs.obj
 0001:00027440       ?insertchains@?$hashtable@PBDUdocident@@@@QAEXPAUchainchunk@1@@Z 00428440 f i docs.obj
 0001:00027540       _fprintf                   00428540 f i log.obj
 0001:00027570       ?remove@?$vector@TSDL_Event@@@@QAE?ATSDL_Event@@H@Z 00428570 f i main.obj
 0001:00027620       ?add@?$vector@TSDL_Event@@@@QAEAATSDL_Event@@ABT2@@Z 00428620 f i main.obj
 0001:00027720       ?checkarg@servercommandline@@QAE_NPBD@Z 00428720 f i main.obj
 0001:00027e70       ?width@mitemmanual@@UAEHXZ 00428e70 f i menus.obj
 0001:00027eb0       ?render@mitemmanual@@UAEXHHH@Z 00428eb0 f i menus.obj
 0001:00027fd0       ?focus@mitemmanual@@UAEX_N@Z 00428fd0 f i menus.obj
 0001:00028010       ?select@mitemmanual@@UAEHXZ 00429010 f i menus.obj
 0001:00028060       ?getdesc@mitemmanual@@UAEPBDXZ 00429060 f i menus.obj
 0001:00028070       ?gettext@mitemcheckbox@@UAEPBDXZ 00429070 f i menus.obj
 0001:00028070       ?gettext@mitemkeyinput@@UAEPBDXZ 00429070 f i menus.obj
 0001:00028070       ?gettext@mitemmanual@@UAEPBDXZ 00429070 f i menus.obj
 0001:00028080       ?getaction@mitemmanual@@UAEPBDXZ 00429080 f i menus.obj
 0001:00028090       ??_Emitemmanual@@UAEPAXI@Z 00429090 f i * CIL library *:* CIL module *
 0001:00028090       ??_Gmitemmanual@@UAEPAXI@Z 00429090 f i menus.obj
 0001:000280c0       ??0mitemtext@@QAE@PAUgmenu@@PAD11PAUcolor@@PBD@Z 004290c0 f i menus.obj
 0001:00028110       ??1mitemtext@@UAE@XZ       00429110 f i menus.obj
 0001:00028180       ??_Emitemtext@@UAEPAXI@Z   00429180 f i * CIL library *:* CIL module *
 0001:00028180       ??_Gmitemtext@@UAEPAXI@Z   00429180 f i menus.obj
 0001:000281a0       ?width@mitemimagemanual@@UAEHXZ 004291a0 f i menus.obj
 0001:00028240       ?render@mitemimagemanual@@UAEXHHH@Z 00429240 f i menus.obj
 0001:00028610       ??_Emitemimagemanual@@UAEPAXI@Z 00429610 f i * CIL library *:* CIL module *
 0001:00028610       ??_Gmitemimagemanual@@UAEPAXI@Z 00429610 f i menus.obj
 0001:00028640       ??_Emitemimage@@UAEPAXI@Z  00429640 f i * CIL library *:* CIL module *
 0001:00028640       ??_Gmitemimage@@UAEPAXI@Z  00429640 f i menus.obj
 0001:000286d0       ?key@mitemmapload@@UAEXH_N@Z 004296d0 f i menus.obj
 0001:00028710       ?render@mitemmapload@@UAEXHHH@Z 00429710 f i menus.obj
 0001:000289f0       ??_Emitemmapload@@UAEPAXI@Z 004299f0 f i * CIL library *:* CIL module *
 0001:000289f0       ??_Gmitemmapload@@UAEPAXI@Z 004299f0 f i menus.obj
 0001:00028aa0       ?width@mitemtextinput@@UAEHXZ 00429aa0 f i menus.obj
 0001:00028ad0       ?render@mitemtextinput@@UAEXHHH@Z 00429ad0 f i menus.obj
 0001:00028db0       ?focus@mitemtextinput@@UAEX_N@Z 00429db0 f i menus.obj
 0001:00028e70       ?key@mitemtextinput@@UAEXH_N@Z 00429e70 f i menus.obj
 0001:00028ee0       ?say@mitemtextinput@@UAEXPBD@Z 00429ee0 f i menus.obj
 0001:00028f00       ?init@mitemtextinput@@UAEXXZ 00429f00 f i menus.obj
 0001:00028f50       ?select@mitemtextinput@@UAEHXZ 00429f50 f i menus.obj
 0001:00029010       ??_Emitemtextinput@@UAEPAXI@Z 0042a010 f i * CIL library *:* CIL module *
 0001:00029010       ??_Gmitemtextinput@@UAEPAXI@Z 0042a010 f i menus.obj
 0001:00029040       ??0mitemslider@@QAE@PAUgmenu@@PADHH111PAUcolor@@_N3@Z 0042a040 f i menus.obj
 0001:00029150       ?width@mitemslider@@UAEHXZ 0042a150 f i menus.obj
 0001:000291a0       ?render@mitemslider@@UAEXHHH@Z 0042a1a0 f i menus.obj
 0001:00029420       ?key@mitemslider@@UAEXH_N@Z 0042a420 f i menus.obj
 0001:00029450       ?init@mitemslider@@UAEXXZ  0042a450 f i menus.obj
 0001:000294a0       ?slide@mitemslider@@QAEX_N@Z 0042a4a0 f i menus.obj
 0001:00029540       ?displaycurvalue@mitemslider@@QAEXXZ 0042a540 f i menus.obj
 0001:00029600       ?getmaxvaluewidth@mitemslider@@QAEXXZ 0042a600 f i menus.obj
 0001:000298d0       ?gettext@mitemslider@@UAEPBDXZ 0042a8d0 f i menus.obj
 0001:000298e0       ?getaction@mitemslider@@UAEPBDXZ 0042a8e0 f i menus.obj
 0001:000298f0       ??_Emitemslider@@UAEPAXI@Z 0042a8f0 f i * CIL library *:* CIL module *
 0001:000298f0       ??_Gmitemslider@@UAEPAXI@Z 0042a8f0 f i menus.obj
 0001:000299d0       ??0mitemkeyinput@@QAE@PAUgmenu@@PAD1PAUcolor@@H@Z 0042a9d0 f i menus.obj
 0001:00029a40       ?width@mitemkeyinput@@UAEHXZ 0042aa40 f i menus.obj
 0001:00029a90       ?render@mitemkeyinput@@UAEXHHH@Z 0042aa90 f i menus.obj
 0001:00029c40       ?init@mitemkeyinput@@UAEXXZ 0042ac40 f i menus.obj
 0001:00029ce0       ?select@mitemkeyinput@@UAEHXZ 0042ace0 f i menus.obj
 0001:00029d10       ?key@mitemkeyinput@@UAEXH_N@Z 0042ad10 f i menus.obj
 0001:00029f60       ??_Emitemkeyinput@@UAEPAXI@Z 0042af60 f i * CIL library *:* CIL module *
 0001:00029f60       ??_Gmitemkeyinput@@UAEPAXI@Z 0042af60 f i menus.obj
 0001:00029fe0       ?width@mitemcheckbox@@UAEHXZ 0042afe0 f i menus.obj
 0001:0002a030       ?select@mitemcheckbox@@UAEHXZ 0042b030 f i menus.obj
 0001:0002a060       ?init@mitemcheckbox@@UAEXXZ 0042b060 f i menus.obj
 0001:0002a0b0       ?render@mitemcheckbox@@UAEXHHH@Z 0042b0b0 f i menus.obj
 0001:0002a410       ?getaction@mitemcheckbox@@UAEPBDXZ 0042b410 f i menus.obj
 0001:0002a420       ??_Emitemcheckbox@@UAEPAXI@Z 0042b420 f i * CIL library *:* CIL module *
 0001:0002a420       ??_Gmitemcheckbox@@UAEPAXI@Z 0042b420 f i menus.obj
 0001:0002a490       ?add@?$vector@PAUgmenu@@@@QAEAAPAUgmenu@@ABQAU2@@Z 0042b490 f i menus.obj
 0001:0002a550       ??A?$hashtable@PBDUgmenu@@@@QAEAAUgmenu@@ABQBD@Z 0042b550 f i menus.obj
 0001:0002a700       ?access@?$hashtable@PBDUgmenu@@@@QAEPAUgmenu@@ABQBD@Z 0042b700 f i menus.obj
 0001:0002a790       ?inrange@?$vector@PAUmitem@@@@QBE_NH@Z 0042b790 f i menus.obj
 0001:0002a7b0       ?insertchains@?$hashtable@PBDUgmenu@@@@QAEXPAUchainchunk@1@@Z 0042b7b0 f i menus.obj
 0001:0002a8b0       ??1gmenu@@UAE@XZ           0042b8b0 f i menus.obj
 0001:0002a960       ??_Egmenu@@UAEPAXI@Z       0042b960 f i * CIL library *:* CIL module *
 0001:0002a960       ??_Ggmenu@@UAEPAXI@Z       0042b960 f i menus.obj
 0001:0002a980       ??_Gmdirlist@@QAEPAXI@Z    0042b980 f i menus.obj
 0001:0002aa10       ??_Emitem@@UAEPAXI@Z       0042ba10 f i * CIL library *:* CIL module *
 0001:0002aa10       ??_Gmitem@@UAEPAXI@Z       0042ba10 f i menus.obj
 0001:0002aa40       ?deletecontents@?$vector@PAUmitem@@@@QAEXXZ 0042ba40 f i menus.obj
 0001:0002aa70       ?getaction@mitem@@UAEPBDXZ 0042ba70 f i menus.obj
 0001:0002aa70       ?getcrc@stream@@UAEIXZ     0042ba70 f i stream.obj
 0001:0002aa70       ?getdesc@mitem@@UAEPBDXZ   0042ba70 f i menus.obj
 0001:0002aa70       ?gettext@mitem@@UAEPBDXZ   0042ba70 f i menus.obj
 0001:0002aa70       ?select@mitem@@UAEHXZ      0042ba70 f i menus.obj
 0001:0002aa70       ___scrt_exe_initialize_mta 0042ba70 f i LIBCMT:utility_desktop.obj
 0001:0002aa70       ___scrt_initialize_winrt   0042ba70 f i LIBCMT:utility_desktop.obj
 0001:0002aa70       ___scrt_stub_for_initialize_mta 0042ba70 f i LIBCMT:utility_desktop.obj
 0001:0002aa70       __get_startup_commit_mode  0042ba70 f i LIBCMT:commit_mode.obj
 0001:0002aa70       __get_startup_new_mode     0042ba70 f i LIBCMT:new_mode.obj
 0001:0002aa70       __get_startup_thread_locale_mode 0042ba70 f i LIBCMT:thread_locale.obj
 0001:0002aa70       __matherr                  0042ba70 f i LIBCMT:matherr.obj
 0001:0002aa80       ?close@filestream@@UAEXXZ  0042ba80 f i stream.obj
 0001:0002aaa0       ?end@filestream@@UAE_NXZ   0042baa0 f i stream.obj
 0001:0002aac0       ?tell@filestream@@UAEJXZ   0042bac0 f i stream.obj
 0001:0002aad0       ?seek@filestream@@UAE_NJH@Z 0042bad0 f i stream.obj
 0001:0002aaf0       ?fflush@filestream@@UAEXXZ 0042baf0 f i stream.obj
 0001:0002ab00       ?read@filestream@@UAEHPAXH@Z 0042bb00 f i stream.obj
 0001:0002ab20       ?write@filestream@@UAEHPBXH@Z 0042bb20 f i stream.obj
 0001:0002ab40       ?getchar@filestream@@UAEHXZ 0042bb40 f i stream.obj
 0001:0002ab50       ?putchar@filestream@@UAE_NH@Z 0042bb50 f i stream.obj
 0001:0002ab70       ?getline@filestream@@UAE_NPADH@Z 0042bb70 f i stream.obj
 0001:0002ab90       ?putstring@filestream@@UAE_NPBD@Z 0042bb90 f i stream.obj
 0001:0002abb0       ?printf@filestream@@UAAHPBDZZ 0042bbb0 f i stream.obj
 0001:0002abe0       ??_Efilestream@@UAEPAXI@Z  0042bbe0 f i * CIL library *:* CIL module *
 0001:0002abe0       ??_Gfilestream@@UAEPAXI@Z  0042bbe0 f i stream.obj
 0001:0002ac20       ?readbyte@gzstream@@QAEHH@Z 0042bc20 f i stream.obj
 0001:0002ac80       ?skipbytes@gzstream@@QAEXH@Z 0042bc80 f i stream.obj
 0001:0002acc0       ?checkheader@gzstream@@QAE_NXZ 0042bcc0 f i stream.obj
 0001:0002af30       ?open@gzstream@@QAE_NPAUstream@@PBD_NH@Z 0042bf30 f i stream.obj
 0001:0002b080       ?getcrc@gzstream@@UAEIXZ   0042c080 f i stream.obj
 0001:0002b090       ?stopreading@gzstream@@QAEXXZ 0042c090 f i stream.obj
 0001:0002b0b0       ?stopwriting@gzstream@@QAEXXZ 0042c0b0 f i stream.obj
 0001:0002b0d0       ?close@gzstream@@UAEXXZ    0042c0d0 f i stream.obj
 0001:0002b210       ?end@gzstream@@UAE_NXZ     0042c210 f i stream.obj
 0001:0002b230       ?tell@gzstream@@UAEJXZ     0042c230 f i stream.obj
 0001:0002b250       ?seek@gzstream@@UAE_NJH@Z  0042c250 f i stream.obj
 0001:0002b390       ?read@gzstream@@UAEHPAXH@Z 0042c390 f i stream.obj
 0001:0002b460       ?write@gzstream@@UAEHPBXH@Z 0042c460 f i stream.obj
 0001:0002b520       ??_Egzstream@@UAEPAXI@Z    0042c520 f i * CIL library *:* CIL module *
 0001:0002b520       ??_Ggzstream@@UAEPAXI@Z    0042c520 f i stream.obj
 0001:0002b550       ?close@vecstream@@UAEXXZ   0042c550 f i stream.obj
 0001:0002b570       ?end@vecstream@@UAE_NXZ    0042c570 f i stream.obj
 0001:0002b590       ?size@memstream@@UAEJXZ    0042c590 f i stream.obj
 0001:0002b590       ?tell@vecstream@@UAEJXZ    0042c590 f i stream.obj
 0001:0002b5a0       ?size@vecstream@@UAEJXZ    0042c5a0 f i stream.obj
 0001:0002b5b0       ?seek@vecstream@@UAE_NJH@Z 0042c5b0 f i stream.obj
 0001:0002b610       ?read@vecstream@@UAEHPAXH@Z 0042c610 f i stream.obj
 0001:0002b660       ?write@vecstream@@UAEHPBXH@Z 0042c660 f i stream.obj
 0001:0002b6d0       ?printf@vecstream@@UAAHPBDZZ 0042c6d0 f i stream.obj
 0001:0002b770       ??_Evecstream@@UAEPAXI@Z   0042c770 f i * CIL library *:* CIL module *
 0001:0002b770       ??_Gvecstream@@UAEPAXI@Z   0042c770 f i stream.obj
 0001:0002b7c0       ?close@memstream@@UAEXXZ   0042c7c0 f i stream.obj
 0001:0002b800       ?end@memstream@@UAE_NXZ    0042c800 f i stream.obj
 0001:0002b820       ?tell@memstream@@UAEJXZ    0042c820 f i stream.obj
 0001:0002b830       ?seek@memstream@@UAE_NJH@Z 0042c830 f i stream.obj
 0001:0002b880       ?read@memstream@@UAEHPAXH@Z 0042c880 f i stream.obj
 0001:0002b8d0       ??_Ememstream@@UAEPAXI@Z   0042c8d0 f i * CIL library *:* CIL module *
 0001:0002b8d0       ??_Gmemstream@@UAEPAXI@Z   0042c8d0 f i stream.obj
 0001:0002b920       ??_Estream@@UAEPAXI@Z      0042c920 f i * CIL library *:* CIL module *
 0001:0002b920       ??_Gstream@@UAEPAXI@Z      0042c920 f i stream.obj
 0001:0002b950       ?getchar@stream@@UAEHXZ    0042c950 f i stream.obj
 0001:0002b970       ?putstring@stream@@UAE_NPBD@Z 0042c970 f i stream.obj
 0001:0002b9a0       ?putchar@stream@@UAE_NH@Z  0042c9a0 f i stream.obj
 0001:0002b9c0       ?putline@stream@@UAE_NPBD@Z 0042c9c0 f i stream.obj
 0001:0002b9f0       ?printf@stream@@UAAHPBDZZ  0042c9f0 f i stream.obj
 0001:0002b9f0       ?tell@stream@@UAEJXZ       0042c9f0 f i stream.obj
 0001:0002ba00       ?read@stream@@UAEHPAXH@Z   0042ca00 f i stream.obj
 0001:0002ba00       ?write@stream@@UAEHPBXH@Z  0042ca00 f i stream.obj
 0001:0002ba10       ?seek@stream@@UAE_NJH@Z    0042ca10 f i stream.obj
 0001:0002ba20       ?vertwtc@@YAXMMMM@Z        0042ca20 f i water.obj
 0001:0002bc60       ?vertwmtc@@YAXMMMM@Z       0042cc60 f i water.obj
 0001:0002bf00       ??0zipstream@@QAE@XZ       0042cf00 f i zip.obj
 0001:0002bf60       ?open@zipstream@@QAE_NPAUziparchive@@PAUzipfile@@@Z 0042cf60 f i zip.obj
 0001:0002c030       ?stopreading@zipstream@@QAEXXZ 0042d030 f i zip.obj
 0001:0002c0a0       ?close@zipstream@@UAEXXZ   0042d0a0 f i zip.obj
 0001:0002c0e0       ?size@zipstream@@UAEJXZ    0042d0e0 f i zip.obj
 0001:0002c0f0       ?end@zipstream@@UAE_NXZ    0042d0f0 f i zip.obj
 0001:0002c110       ?tell@zipstream@@UAEJXZ    0042d110 f i zip.obj
 0001:0002c130       ?seek@zipstream@@UAE_NJH@Z 0042d130 f i zip.obj
 0001:0002c2f0       ?read@zipstream@@UAEHPAXH@Z 0042d2f0 f i zip.obj
 0001:0002c470       ??_Ezipstream@@UAEPAXI@Z   0042d470 f i * CIL library *:* CIL module *
 0001:0002c470       ??_Gzipstream@@UAEPAXI@Z   0042d470 f i zip.obj
 0001:0002c4d0       ??_Gziparchive@@QAEPAXI@Z  0042d4d0 f i zip.obj
 0001:0002c520       ?access@?$hashtable@PBDUmemfile@@@@QAEPAUmemfile@@ABQBD@Z 0042d520 f i zip.obj
 0001:0002c5b0       ?clear@?$hashtable@PBDPAUzipfile@@@@QAEX_N@Z 0042d5b0 f i zip.obj
 0001:0002c6f0       ?access@?$hashtable@PBDPAUzipfile@@@@QAEPAPAUzipfile@@ABQBD@Z 0042d6f0 f i zip.obj
 0001:0002c780       ?removeobj@?$vector@PAUziparchive@@@@QAEXABQAUziparchive@@@Z 0042d780 f i zip.obj
 0001:0002c7e0       ?add@?$vector@PAUziparchive@@@@QAEAAPAUziparchive@@ABQAU2@@Z 0042d7e0 f i zip.obj
 0001:0002c8a0       ??1?$vector@Uzipfile@@@@QAE@XZ 0042d8a0 f i zip.obj
 0001:0002c910       ?insertchains@?$hashtable@PBDUmemfile@@@@QAEXPAUchainchunk@1@@Z 0042d910 f i zip.obj
 0001:0002ca00       ?insertchains@?$hashtable@PBDPAUzipfile@@@@QAEXPAUchainchunk@1@@Z 0042da00 f i zip.obj
 0001:0002cae0       ?Get2DDistance@CBot@@QAEMABUvec@@@Z 0042dae0 f i ac_bot_ai.obj
 0001:0002cb60       ?IsVisible@CBot@@QAE_NABUvec@@_N@Z 0042db60 f i ac_bot_ai.obj
 0001:0002cbe0       ?GetNearestWaypoint@CBot@@QAEPAUwaypoint_s@@M@Z 0042dbe0 f i ac_bot_ai.obj
 0001:0002cc00       ??_ECACBot@@UAEPAXI@Z      0042dc00 f i * CIL library *:* CIL module *
 0001:0002cc00       ??_ECBot@@UAEPAXI@Z        0042dc00 f i * CIL library *:* CIL module *
 0001:0002cc00       ??_GCACBot@@UAEPAXI@Z      0042dc00 f i botmanager.obj
 0001:0002cc00       ??_GCBot@@UAEPAXI@Z        0042dc00 f i bot.obj
 0001:0002cc30       ??1?$TLinkedList@PAUunreachable_ent_s@@@@QAE@XZ 0042dc30 f i bot.obj
 0001:0002cc30       ??1?$TLinkedList@PAUwaypoint_version_1_s@@@@QAE@XZ 0042dc30 f i bot_waypoint.obj
 0001:0002cc30       ??1?$TLinkedList@PAVCStoredBot@@@@QAE@XZ 0042dc30 f i botmanager.obj
 0001:0002cc30       ?DeleteAllNodes@?$TLinkedList@PAUnode_s@@@@QAEXXZ 0042dc30 f i bot_waypoint.obj
 0001:0002cc30       ?DeleteAllNodes@?$TLinkedList@PAUwaypoint_s@@@@QAEXXZ 0042dc30 f i bot.obj
 0001:0002cc80       ?DeleteNode@?$TLinkedList@PAUnode_s@@@@QAEXPAUnode_s@1@@Z 0042dc80 f i bot_waypoint.obj
 0001:0002cc80       ?DeleteNode@?$TLinkedList@PAUunreachable_ent_s@@@@QAEXPAUnode_s@1@@Z 0042dc80 f i bot.obj
 0001:0002cc80       ?DeleteNode@?$TLinkedList@PAUwaypoint_s@@@@QAEXPAUnode_s@1@@Z 0042dc80 f i bot.obj
 0001:0002cd20       ?Clear@?$TPriorList@PAUwaypoint_s@@M@@QAEXXZ 0042dd20 f i bot.obj
 0001:0002cd60       ?IsVisible@CBot@@QAE_NPAVplayerent@@_N@Z 0042dd60 f i bot_ai.obj
 0001:0002cde0       ?IsVisible@CBot@@QAE_NHM_N@Z 0042dde0 f i bot_ai.obj
 0001:0002ce20       ?GetSelection@?$TMultiChoice@H@@QAE_NAAH@Z 0042de20 f i bot_ai.obj
 0001:0002ce80       ?Insert@?$TMultiChoice@H@@QAEXHF@Z 0042de80 f i bot_ai.obj
 0001:0002ced0       ??1?$TMultiChoice@H@@QAE@XZ 0042ded0 f i bot_ai.obj
 0001:0002ced0       ??1?$TMultiChoice@PBD@@QAE@XZ 0042ded0 f i botmanager.obj
 0001:0002cf90       ??0?$TMultiChoice@H@@QAE@XZ 0042df90 f i bot_ai.obj
 0001:0002cfc0       ?AddNode@?$TLinkedList@PAUSMultiChoice@?$TMultiChoice@H@@@@QAEXPAUSMultiChoice@?$TMultiChoice@H@@@Z 0042dfc0 f i bot_ai.obj
 0001:0002cfc0       ?AddNode@?$TLinkedList@PAUSMultiChoice@?$TMultiChoice@PBD@@@@QAEXPAUSMultiChoice@?$TMultiChoice@PBD@@@Z 0042dfc0 f i botmanager.obj
 0001:0002cfc0       ?AddNode@?$TLinkedList@PAUnode_s@@@@QAEXPAUnode_s@@@Z 0042dfc0 f i bot_waypoint.obj
 0001:0002cfc0       ?AddNode@?$TLinkedList@PAUwaypoint_s@@@@QAEXPAUwaypoint_s@@@Z 0042dfc0 f i bot_waypoint.obj
 0001:0002cfc0       ?AddNode@?$TLinkedList@PAVCStoredBot@@@@QAEXPAVCStoredBot@@@Z 0042dfc0 f i botmanager.obj
 0001:0002d050       ??_ECACWaypointClass@@UAEPAXI@Z 0042e050 f i * CIL library *:* CIL module *
 0001:0002d050       ??_ECWaypointClass@@UAEPAXI@Z 0042e050 f i * CIL library *:* CIL module *
 0001:0002d050       ??_GCACWaypointClass@@UAEPAXI@Z 0042e050 f i bot_waypoint.obj
 0001:0002d050       ??_GCWaypointClass@@UAEPAXI@Z 0042e050 f i bot_waypoint.obj
 0001:0002d0a0       ?AddEntry@?$TPriorList@PAUwaypoint_s@@M@@QAEXPAUwaypoint_s@@M@Z 0042e0a0 f i bot_waypoint.obj
 0001:0002d150       ?PushNode@?$TLinkedList@PAUnode_s@@@@QAEXPAUnode_s@@@Z 0042e150 f i bot_waypoint.obj
 0001:0002d150       ?PushNode@?$TLinkedList@PAUwaypoint_s@@@@QAEXPAUwaypoint_s@@@Z 0042e150 f i bot_waypoint.obj
 0001:0002d1d0       ?DeleteEntry@?$TLinkedList@PAUnode_s@@@@QAEXPAUnode_s@@@Z 0042e1d0 f i bot_waypoint.obj
 0001:0002d280       ?ClearStoredBots@CBotManager@@QAEXXZ 0042e280 f i botmanager.obj
 0001:0002d2f0       ??_Ebufferhashtable@@UAEPAXI@Z 0042e2f0 f i * CIL library *:* CIL module *
 0001:0002d2f0       ??_Gbufferhashtable@@UAEPAXI@Z 0042e2f0 f i audiomanager.obj
 0001:0002d340       ??_Eentityreference@@UAEPAXI@Z 0042e340 f i * CIL library *:* CIL module *
 0001:0002d340       ??_Ephysentreference@@UAEPAXI@Z 0042e340 f i * CIL library *:* CIL module *
 0001:0002d340       ??_Gentityreference@@UAEPAXI@Z 0042e340 f i audiomanager.obj
 0001:0002d340       ??_Gphysentreference@@UAEPAXI@Z 0042e340 f i audiomanager.obj
 0001:0002d370       ??_Estaticreference@@UAEPAXI@Z 0042e370 f i * CIL library *:* CIL module *
 0001:0002d370       ??_Gstaticreference@@UAEPAXI@Z 0042e370 f i audiomanager.obj
 0001:0002d3a0       ?deletechunks@?$hashtable@PBDVsbuffer@@@@QAEXXZ 0042e3a0 f i audiomanager.obj
 0001:0002d440       ?insertchains@?$hashtable@PBDVsbuffer@@@@QAEXPAUchainchunk@1@@Z 0042e440 f i audiomanager.obj
 0001:0002d500       ??_Elocvector@@UAEPAXI@Z   0042e500 f i * CIL library *:* CIL module *
 0001:0002d500       ??_Glocvector@@UAEPAXI@Z   0042e500 f i audiomanager.obj
 0001:0002d540       ??_Eoggstream@@UAEPAXI@Z   0042e540 f i * CIL library *:* CIL module *
 0001:0002d540       ??_Goggstream@@UAEPAXI@Z   0042e540 f i oggstream.obj
 0001:0002d600       ??_Esourceowner@@UAEPAXI@Z 0042e600 f i * CIL library *:* CIL module *
 0001:0002d600       ??_Gsourceowner@@UAEPAXI@Z 0042e600 f i oggstream.obj
 0001:0002d630       ??_Elocation@@UAEPAXI@Z    0042e630 f i * CIL library *:* CIL module *
 0001:0002d630       ??_Glocation@@UAEPAXI@Z    0042e630 f i soundlocation.obj
 0001:0002d6c0       ??_Gsource@@QAEPAXI@Z      0042e6c0 f i soundscheduler.obj
 0001:0002d700       ?put@?$vector@E@@QAEXABE@Z 0042e700 f i protocol1.obj
 0001:0002d727       _SDL_free                  0042e727 f   SDL2:SDL2.dll
 0001:0002d72d       _ntohl@4                   0042e72d f   ws2_32:WS2_32.dll
 0001:0002d733       _htonl@4                   0042e733 f   ws2_32:WS2_32.dll
 0001:0002d739       ___WSAFDIsSet@8            0042e739 f   ws2_32:WS2_32.dll
 0001:0002d73f       _htons@4                   0042e73f f   ws2_32:WS2_32.dll
 0001:0002d745       _ntohs@4                   0042e745 f   ws2_32:WS2_32.dll
 0001:0002d74b       _WSAStartup@8              0042e74b f   ws2_32:WS2_32.dll
 0001:0002d751       _WSACleanup@0              0042e751 f   ws2_32:WS2_32.dll
 0001:0002d757       _gethostbyname@4           0042e757 f   ws2_32:WS2_32.dll
 0001:0002d75d       _inet_addr@4               0042e75d f   ws2_32:WS2_32.dll
 0001:0002d763       _inet_ntoa@4               0042e763 f   ws2_32:WS2_32.dll
 0001:0002d769       _gethostbyaddr@12          0042e769 f   ws2_32:WS2_32.dll
 0001:0002d76f       _bind@12                   0042e76f f   ws2_32:WS2_32.dll
 0001:0002d775       _listen@8                  0042e775 f   ws2_32:WS2_32.dll
 0001:0002d77b       _socket@12                 0042e77b f   ws2_32:WS2_32.dll
 0001:0002d781       _setsockopt@20             0042e781 f   ws2_32:WS2_32.dll
 0001:0002d787       _ioctlsocket@12            0042e787 f   ws2_32:WS2_32.dll
 0001:0002d78d       _connect@12                0042e78d f   ws2_32:WS2_32.dll
 0001:0002d793       _WSAGetLastError@0         0042e793 f   ws2_32:WS2_32.dll
 0001:0002d799       _accept@12                 0042e799 f   ws2_32:WS2_32.dll
 0001:0002d79f       _shutdown@8                0042e79f f   ws2_32:WS2_32.dll
 0001:0002d7a5       _closesocket@4             0042e7a5 f   ws2_32:WS2_32.dll
 0001:0002d7ab       _WSASendTo@36              0042e7ab f   ws2_32:WS2_32.dll
 0001:0002d7b1       _WSARecvFrom@36            0042e7b1 f   ws2_32:WS2_32.dll
 0001:0002d7b7       _select@20                 0042e7b7 f   ws2_32:WS2_32.dll
 0001:0002d7bd       _timeGetTime@0             0042e7bd f   winmm:WINMM.dll
 0001:0002d7c3       _timeBeginPeriod@4         0042e7c3 f   winmm:WINMM.dll
 0001:0002d7c9       _timeEndPeriod@4           0042e7c9 f   winmm:WINMM.dll
 0001:0002d813       ___scrt_acquire_startup_lock 0042e813 f   LIBCMT:utility.obj
 0001:0002d845       ___scrt_initialize_crt     0042e845 f   LIBCMT:utility.obj
 0001:0002d87e       ___scrt_initialize_onexit_tables 0042e87e f   LIBCMT:utility.obj
 0001:0002d905       ___scrt_is_nonwritable_in_current_image 0042e905 f   LIBCMT:utility.obj
 0001:0002d999       ___scrt_release_startup_lock 0042e999 f   LIBCMT:utility.obj
 0001:0002d9b6       ___scrt_uninitialize_crt   0042e9b6 f   LIBCMT:utility.obj
 0001:0002d9de       __onexit                   0042e9de f   LIBCMT:utility.obj
 0001:0002da0b       _atexit                    0042ea0b f   LIBCMT:utility.obj
 0001:0002da20       ??_V@YAXPAX@Z              0042ea20 f   LIBCMT:delete_array.obj
 0001:0002da25       ??_U@YAPAXI@Z              0042ea25 f   LIBCMT:new_array.obj
 0001:0002da2e       ??3@YAXPAXI@Z              0042ea2e f   LIBCMT:delete_scalar_size.obj
 0001:0002da3c       __Init_thread_footer       0042ea3c f   LIBCMT:thread_safe_statics.obj
 0001:0002da8d       __Init_thread_header       0042ea8d f   LIBCMT:thread_safe_statics.obj
 0001:0002dadc       __Init_thread_wait_v2      0042eadc f   LIBCMT:thread_safe_statics.obj
 0001:0002daf1       ??_Etype_info@@UAEPAXI@Z   0042eaf1 f i LIBCMT:std_type_info_static.obj
 0001:0002daf1       ??_Gtype_info@@UAEPAXI@Z   0042eaf1 f i LIBCMT:std_type_info_static.obj
 0001:0002db14       ??2@YAPAXI@Z               0042eb14 f   LIBCMT:new_scalar.obj
 0001:0002db44       ??_V@YAXPAXI@Z             0042eb44 f   LIBCMT:delete_array_size.obj
 0001:0002dd93       _WinMainCRTStartup         0042ed93 f   LIBCMT:exe_winmain.obj
 0001:0002dd9d       ___isa_available_init      0042ed9d f   LIBCMT:cpu_disp.obj
 0001:0002e0ca       __get_startup_argv_mode    0042f0ca f   LIBCMT:argv_mode.obj
 0001:0002e0ce       ___scrt_is_ucrt_dll_in_use 0042f0ce f   LIBCMT:ucrt_detection.obj
 0001:0002e0da       ___scrt_fastfail           0042f0da f   LIBCMT:utility_desktop.obj
 0001:0002e1ef       ___scrt_get_show_window_mode 0042f1ef f   LIBCMT:utility_desktop.obj
 0001:0002e220       ___scrt_initialize_mta     0042f220 f   LIBCMT:utility_desktop.obj
 0001:0002e225       ___scrt_is_managed_app     0042f225 f   LIBCMT:utility_desktop.obj
 0001:0002e267       ___scrt_set_unhandled_exception_filter 0042f267 f   LIBCMT:utility_desktop.obj
 0001:0002e273       ___scrt_unhandled_exception_filter@4 0042f273 f   LIBCMT:utility_desktop.obj
 0001:0002e2c9       __crt_debugger_hook        0042f2c9 f   LIBCMT:utility_desktop.obj
 0001:0002e2e0       __SEH_prolog4              0042f2e0 f   LIBCMT:sehprolg4.obj
 0001:0002e325       ??3@YAXPAX@Z               0042f325 f   LIBCMT:delete_scalar.obj
 0001:0002e32a       ??0bad_alloc@std@@QAE@ABV01@@Z 0042f32a f i LIBCMT:throw_bad_alloc.obj
 0001:0002e345       ??0bad_alloc@std@@QAE@XZ   0042f345 f i LIBCMT:throw_bad_alloc.obj
 0001:0002e35d       ??0bad_array_new_length@std@@QAE@ABV01@@Z 0042f35d f i LIBCMT:throw_bad_alloc.obj
 0001:0002e378       ??0bad_array_new_length@std@@QAE@XZ 0042f378 f i LIBCMT:throw_bad_alloc.obj
 0001:0002e390       ??0exception@std@@QAE@ABV01@@Z 0042f390 f i LIBCMT:throw_bad_alloc.obj
 0001:0002e3bc       ??1bad_alloc@std@@UAE@XZ   0042f3bc f i LIBCMT:throw_bad_alloc.obj
 0001:0002e3bc       ??1bad_array_new_length@std@@UAE@XZ 0042f3bc f i LIBCMT:throw_bad_alloc.obj
 0001:0002e3bc       ??1bad_exception@std@@UAE@XZ 0042f3bc f i libvcruntime:frame.obj
 0001:0002e3cd       ??_Ebad_alloc@std@@UAEPAXI@Z 0042f3cd f i LIBCMT:throw_bad_alloc.obj
 0001:0002e3cd       ??_Ebad_array_new_length@std@@UAEPAXI@Z 0042f3cd f i LIBCMT:throw_bad_alloc.obj
 0001:0002e3cd       ??_Ebad_exception@std@@UAEPAXI@Z 0042f3cd f i libvcruntime:frame.obj
 0001:0002e3cd       ??_Eexception@std@@UAEPAXI@Z 0042f3cd f i LIBCMT:throw_bad_alloc.obj
 0001:0002e3cd       ??_Gbad_alloc@std@@UAEPAXI@Z 0042f3cd f i LIBCMT:throw_bad_alloc.obj
 0001:0002e3cd       ??_Gbad_array_new_length@std@@UAEPAXI@Z 0042f3cd f i LIBCMT:throw_bad_alloc.obj
 0001:0002e3cd       ??_Gbad_exception@std@@UAEPAXI@Z 0042f3cd f i libvcruntime:frame.obj
 0001:0002e3cd       ??_Gexception@std@@UAEPAXI@Z 0042f3cd f i LIBCMT:throw_bad_alloc.obj
 0001:0002e3fa       ?__scrt_throw_std_bad_alloc@@YAXXZ 0042f3fa f   LIBCMT:throw_bad_alloc.obj
 0001:0002e417       ?__scrt_throw_std_bad_array_new_length@@YAXXZ 0042f417 f   LIBCMT:throw_bad_alloc.obj
 0001:0002e434       ?what@exception@std@@UBEPBDXZ 0042f434 f i LIBCMT:throw_bad_alloc.obj
 0001:0002e48e       ___security_init_cookie    0042f48e f   LIBCMT:gs_support.obj
 0001:0002e4d9       __get_startup_file_mode    0042f4d9 f   LIBCMT:file_mode.obj
 0001:0002e4df       ?__scrt_initialize_type_info@@YAXXZ 0042f4df f   LIBCMT:tncleanup.obj
 0001:0002e4eb       __initialize_default_precision 0042f4eb f   LIBCMT:default_precision.obj
 0001:0002e50c       ___scrt_initialize_default_local_stdio_options 0042f50c f   LIBCMT:default_local_stdio_options.obj
 0001:0002e529       ___scrt_is_user_matherr_present 0042f529 f   LIBCMT:matherr_detection.obj
 0001:0002e535       ___scrt_get_dyn_tls_init_callback 0042f535 f   LIBCMT:dyn_tls_init.obj
 0001:0002e53b       ___scrt_get_dyn_tls_dtor_callback 0042f53b f   LIBCMT:dyn_tls_dtor.obj
 0001:0002e541       __RTC_Initialize           0042f541 f   LIBCMT:initsect.obj
 0001:0002e56d       __RTC_Terminate            0042f56d f   LIBCMT:initsect.obj
 0001:0002e599       @__security_check_cookie@4 0042f599 f   LIBCMT:secchk.obj
 0001:0002e5a7       ___raise_securityfailure   0042f5a7 f   LIBCMT:gs_report.obj
 0001:0002e5cf       ___report_gsfailure        0042f5cf f   LIBCMT:gs_report.obj
 0001:0002e6ca       ___report_rangecheckfailure 0042f6ca f   LIBCMT:gs_report.obj
 0001:0002e6d7       ___report_securityfailure  0042f6d7 f   LIBCMT:gs_report.obj
 0001:0002e7b0       _strstr                    0042f7b0 f   libvcruntime:strstr.obj
 0001:0002ea20       _strchr                    0042fa20 f   libvcruntime:strchr.obj
 0001:0002ea8e       ___from_strstr_to_strchr   0042fa8e     libvcruntime:strchr.obj
 0001:0002eb4b       __get_purecall_handler     0042fb4b f   libvcruntime:purevirt.obj
 0001:0002eb52       __purecall                 0042fb52 f   libvcruntime:purevirt.obj
 0001:0002eb70       _strrchr                   0042fb70 f   libvcruntime:strrchr.obj
 0001:0002ecf0       __except_handler4          0042fcf0 f   libvcruntime:chandler4.obj
 0001:0002ee50       _memset                    0042fe50 f   libvcruntime:memset.obj
 0001:0002efb0       _memcpy                    0042ffb0 f   libvcruntime:memcpy.obj
 0001:0002efb0       _memmove                   0042ffb0 f   libvcruntime:memmove.obj
 0001:0002f524       ___vcrt_initialize         00430524 f   libvcruntime:initialization.obj
 0001:0002f543       ___vcrt_uninitialize       00430543 f   libvcruntime:initialization.obj
 0001:0002f55a       ___DestructExceptionObject 0043055a f   libvcruntime:ehhelpers.obj
 0001:0002f5fb       ?_CallMemberFunction0@@YGXQAX0@Z 004305fb f i libvcruntime:ehhelpers.obj
 0001:0002f660       __IsExceptionObjectToBeDestroyed 00430660 f   libvcruntime:ehhelpers.obj
 0001:0002f686       ___AdjustPointer           00430686 f   libvcruntime:ehhelpers.obj
 0001:0002f6ab       ___FrameUnwindFilter       004306ab f   libvcruntime:ehhelpers.obj
 0001:0002f701       ___current_exception       00430701 f   libvcruntime:ehhelpers.obj
 0001:0002f70a       ___current_exception_context 0043070a f   libvcruntime:ehhelpers.obj
 0001:0002f713       ___std_terminate           00430713 f   libvcruntime:ehhelpers.obj
 0001:0002f718       ___std_exception_copy      00430718 f   libvcruntime:std_exception.obj
 0001:0002f77b       ___std_exception_destroy   0043077b f   libvcruntime:std_exception.obj
 0001:0002f79a       __CxxThrowException@8      0043079a f   libvcruntime:throw.obj
 0001:0002f806       ___std_type_info_compare   00430806 f   libvcruntime:std_type_info.obj
 0001:0002f850       __local_unwind4            00430850 f   libvcruntime:exsup4.obj
 0001:0002f940       @_EH4_CallFilterFunc@8     00430940 f   libvcruntime:exsup4.obj
 0001:0002f960       @_EH4_TransferToHandler@8  00430960 f   libvcruntime:exsup4.obj
 0001:0002f980       @_EH4_GlobalUnwind2@8      00430980 f   libvcruntime:exsup4.obj
 0001:0002f9a0       @_EH4_LocalUnwind@16       004309a0 f   libvcruntime:exsup4.obj
 0001:0002f9b7       ___except_validate_context_record 004309b7 f   libvcruntime:jbcxrval.obj
 0001:0002f9e7       ___vcrt_freefls@4          004309e7 f   libvcruntime:per_thread_data.obj
 0001:0002fa03       ___vcrt_getptd             00430a03 f   libvcruntime:per_thread_data.obj
 0001:0002fa11       ___vcrt_getptd_noexit      00430a11 f   libvcruntime:per_thread_data.obj
 0001:0002faa3       ___vcrt_initialize_ptd     00430aa3 f   libvcruntime:per_thread_data.obj
 0001:0002fad6       ___vcrt_uninitialize_ptd   00430ad6 f   libvcruntime:per_thread_data.obj
 0001:0002faf1       ___vcrt_initialize_locks   00430af1 f   libvcruntime:locks.obj
 0001:0002fb2d       ___vcrt_uninitialize_locks 00430b2d f   libvcruntime:locks.obj
 0001:0002fb60       __global_unwind2           00430b60 f   libvcruntime:exsup.obj
 0001:0002fbe0       __local_unwind2            00430be0 f   libvcruntime:exsup.obj
 0001:0002fc80       __NLG_Notify1              00430c80 f   libvcruntime:exsup.obj
 0001:0002fc90       __NLG_Notify               00430c90 f   libvcruntime:exsup.obj
 0001:0002fca7       __NLG_Dispatch             00430ca7     libvcruntime:exsup.obj
 0001:0002fca7       __NLG_Dispatch2            00430ca7     libvcruntime:exsup.obj
 0001:0002fcb0       __NLG_Call                 00430cb0 f   libvcruntime:exsup.obj
 0001:0002fcb2       __NLG_Return2              00430cb2     libvcruntime:exsup.obj
 0001:0002fd9e       ___vcrt_FlsAlloc           00430d9e f   libvcruntime:winapi_downlevel.obj
 0001:0002fdd9       ___vcrt_FlsFree            00430dd9 f   libvcruntime:winapi_downlevel.obj
 0001:0002fe14       ___vcrt_FlsGetValue        00430e14 f   libvcruntime:winapi_downlevel.obj
 0001:0002fe4f       ___vcrt_FlsSetValue        00430e4f f   libvcruntime:winapi_downlevel.obj
 0001:0002fe8d       ___vcrt_InitializeCriticalSectionEx 00430e8d f   libvcruntime:winapi_downlevel.obj
 0001:0002fed4       ?GetRangeOfTrysToCheck@__FrameHandler3@@SA?AU?$pair@Viterator@TryBlockMap@__FrameHandler3@@V123@@std@@AAVTryBlockMap@1@HPAXPBU_s_FuncInfo@@H@Z 00430ed4 f   libvcruntime:trnsctrl.obj
 0001:0002ff43       ?_CallCatchBlock2@@YAPAXPAUEHRegistrationNode@@PBU_s_FuncInfo@@PAXHK@Z 00430f43 f   libvcruntime:trnsctrl.obj
 0001:0002ffa0       ?_CallSETranslator@@YAHPAUEHExceptionRecord@@PAUEHRegistrationNode@@PAX2PBU_s_FuncInfo@@H1@Z 00430fa0 f   libvcruntime:trnsctrl.obj
 0001:00030090       ?_JumpToContinuation@@YGXPAXPAUEHRegistrationNode@@@Z 00431090 f   libvcruntime:trnsctrl.obj
 0001:000300c0       ?_UnwindNestedFrames@@YGXPAUEHRegistrationNode@@PAUEHExceptionRecord@@@Z 004310c0 f   libvcruntime:trnsctrl.obj
 0001:00030114       __CatchGuardHandler        00431114 f   libvcruntime:trnsctrl.obj
 0001:00030145       __CreateFrameInfo          00431145 f   libvcruntime:trnsctrl.obj
 0001:00030169       __FindAndUnlinkFrame       00431169 f   libvcruntime:trnsctrl.obj
 0001:000301b1       __TranslatorGuardHandler   004311b1 f   libvcruntime:trnsctrl.obj
 0001:00030250       ___CxxFrameHandler3        00431250 f   libvcruntime:trnsctrl.obj
 0001:000309b8       ??$TypeMatchHelper@V__FrameHandler3@@@@YAHPBU_s_HandlerType@@PBU_s_CatchableType@@PBU_s_ThrowInfo@@@Z 004319b8 f i libvcruntime:frame.obj
 0001:00030a46       ??$__InternalCxxFrameHandler@V__FrameHandler3@@@@YA?AW4_EXCEPTION_DISPOSITION@@PAUEHExceptionRecord@@PAUEHRegistrationNode@@PAU_CONTEXT@@PAXPBU_s_FuncInfo@@H1E@Z 00431a46 f i libvcruntime:frame.obj
 0001:00030b48       ??$__InternalCxxFrameHandlerWrapper@V__FrameHandler3@@@@YA?AW4_EXCEPTION_DISPOSITION@@PAUEHExceptionRecord@@PAUEHRegistrationNode@@PAU_CONTEXT@@PAXPBU_s_FuncInfo@@H1E@Z 00431b48 f i libvcruntime:frame.obj
 0001:00030b51       ??0bad_exception@std@@QAE@ABV01@@Z 00431b51 f i libvcruntime:frame.obj
 0001:00030b6c       ??0bad_exception@std@@QAE@XZ 00431b6c f i libvcruntime:frame.obj
 0001:00030b84       ??8type_info@@QBE_NABV0@@Z 00431b84 f i libvcruntime:frame.obj
 0001:00030dfb       ?FrameUnwindToEmptyState@__FrameHandler3@@SAXPAUEHRegistrationNode@@PAXPBU_s_FuncInfo@@@Z 00431dfb f   libvcruntime:frame.obj
 0001:00030e13       ?FrameUnwindToState@__FrameHandler3@@SAXPAUEHRegistrationNode@@PAXPBU_s_FuncInfo@@H@Z 00431e13 f   libvcruntime:frame.obj
 0001:00030f95       ?_CallMemberFunction1@@YGXQAX00@Z 00431f95 f i libvcruntime:frame.obj
 0001:00030fa5       ?_CallMemberFunction2@@YGXQAX00H@Z 00431fa5 f i libvcruntime:frame.obj
 0001:00030fb8       ?getESTypes@__FrameHandler3@@SAPBU_s_ESTypeList@@PBU_s_FuncInfo@@@Z 00431fb8 f i libvcruntime:frame.obj
 0001:00030fd0       __CallSettingFrame@12      00431fd0 f   libvcruntime:lowhelpr.obj
 0001:00030ff7       __NLG_Return               00431ff7     libvcruntime:lowhelpr.obj
 0001:0003101c       _unexpected                0043201c f   libvcruntime:unexpected.obj
 0001:00031039       ?GetCurrentState@__FrameHandler3@@SAHPAUEHRegistrationNode@@PAXPBU_s_FuncInfo@@@Z 00432039 f   libvcruntime:ehstate.obj
 0001:00031056       ?SetState@__FrameHandler3@@SAXPAUEHRegistrationNode@@PBU_s_FuncInfo@@H@Z 00432056 f   libvcruntime:ehstate.obj
 0001:0003123f       ??$count@D@formatting_buffer@__crt_stdio_output@@QBEIXZ 0043223f f i libucrt:output.obj
 0001:00031257       ??$ensure_buffer_is_big_enough@D@formatting_buffer@__crt_stdio_output@@QAE_NIAAV__crt_cached_ptd_host@@@Z 00432257 f i libucrt:output.obj
 0001:000312d8       ??$is_overflow_condition@K@__crt_strtox@@YA_NIK@Z 004322d8 f i libucrt:output.obj
 0001:0003130c       ??$is_wide_character_specifier@D@__crt_stdio_output@@YA_N_KDW4length_modifier@0@@Z 0043230c f i libucrt:output.obj
 0001:0003133d       ??$make_c_string_character_source@DPAPAD@__crt_strtox@@YA?AV?$c_string_character_source@D@0@QBDQAPAD@Z 0043233d f i libucrt:output.obj
 0001:0003133d       ??$make_c_string_character_source@_WPAPA_W@__crt_strtox@@YA?AV?$c_string_character_source@_W@0@QB_WQAPA_W@Z 0043233d f i libucrt:output.obj
 0001:00031358       ??$parse_integer@KV?$c_string_character_source@D@__crt_strtox@@$0A@@__crt_strtox@@YAKAAV__crt_cached_ptd_host@@V?$c_string_character_source@D@0@H_N@Z 00432358 f i libucrt:output.obj
 0001:00031567       ??$scratch_data@D@formatting_buffer@__crt_stdio_output@@QAEPADXZ 00432567 f i libucrt:output.obj
 0001:00031585       ??$type_case_integer@$07@?$output_processor@DV?$stream_output_adapter@D@__crt_stdio_output@@V?$standard_base@DV?$stream_output_adapter@D@__crt_stdio_output@@@2@@__crt_stdio_output@@AAE_N_N@Z 00432585 f i libucrt:output.obj
 0001:00031585       ??$type_case_integer@$07@?$output_processor@DV?$string_output_adapter@D@__crt_stdio_output@@V?$standard_base@DV?$string_output_adapter@D@__crt_stdio_output@@@2@@__crt_stdio_output@@AAE_N_N@Z 00432585 f i libucrt:output.obj
 0001:00031712       ??$type_case_integer@$09@?$output_processor@DV?$stream_output_adapter@D@__crt_stdio_output@@V?$standard_base@DV?$stream_output_adapter@D@__crt_stdio_output@@@2@@__crt_stdio_output@@AAE_N_N@Z 00432712 f i libucrt:output.obj
 0001:00031712       ??$type_case_integer@$09@?$output_processor@DV?$string_output_adapter@D@__crt_stdio_output@@V?$standard_base@DV?$string_output_adapter@D@__crt_stdio_output@@@2@@__crt_stdio_output@@AAE_N_N@Z 00432712 f i libucrt:output.obj
 0001:0003189f       ??$type_case_integer@$0BA@@?$output_processor@DV?$stream_output_adapter@D@__crt_stdio_output@@V?$standard_base@DV?$stream_output_adapter@D@__crt_stdio_output@@@2@@__crt_stdio_output@@AAE_N_N@Z 0043289f f i libucrt:output.obj
 0001:0003189f       ??$type_case_integer@$0BA@@?$output_processor@DV?$string_output_adapter@D@__crt_stdio_output@@V?$standard_base@DV?$string_output_adapter@D@__crt_stdio_output@@@2@@__crt_stdio_output@@AAE_N_N@Z 0043289f f i libucrt:output.obj
 0001:00031a2c       ??$type_case_integer_parse_into_buffer@I$07@?$output_processor@DV?$stream_output_adapter@D@__crt_stdio_output@@V?$standard_base@DV?$stream_output_adapter@D@__crt_stdio_output@@@2@@__crt_stdio_output@@AAEXI_N@Z 00432a2c f i libucrt:output.obj
 0001:00031a2c       ??$type_case_integer_parse_into_buffer@I$07@?$output_processor@DV?$string_output_adapter@D@__crt_stdio_output@@V?$standard_base@DV?$string_output_adapter@D@__crt_stdio_output@@@2@@__crt_stdio_output@@AAEXI_N@Z 00432a2c f i libucrt:output.obj
 0001:00031a8f       ??$type_case_integer_parse_into_buffer@I$09@?$output_processor@DV?$stream_output_adapter@D@__crt_stdio_output@@V?$standard_base@DV?$stream_output_adapter@D@__crt_stdio_output@@@2@@__crt_stdio_output@@AAEXI_N@Z 00432a8f f i libucrt:output.obj
 0001:00031a8f       ??$type_case_integer_parse_into_buffer@I$09@?$output_processor@DV?$string_output_adapter@D@__crt_stdio_output@@V?$standard_base@DV?$string_output_adapter@D@__crt_stdio_output@@@2@@__crt_stdio_output@@AAEXI_N@Z 00432a8f f i libucrt:output.obj
 0001:00031b16       ??$type_case_integer_parse_into_buffer@I$0BA@@?$output_processor@DV?$stream_output_adapter@D@__crt_stdio_output@@V?$standard_base@DV?$stream_output_adapter@D@__crt_stdio_output@@@2@@__crt_stdio_output@@AAEXI_N@Z 00432b16 f i libucrt:output.obj
 0001:00031b16       ??$type_case_integer_parse_into_buffer@I$0BA@@?$output_processor@DV?$string_output_adapter@D@__crt_stdio_output@@V?$standard_base@DV?$string_output_adapter@D@__crt_stdio_output@@@2@@__crt_stdio_output@@AAEXI_N@Z 00432b16 f i libucrt:output.obj
 0001:00031b93       ??$type_case_integer_parse_into_buffer@_K$07@?$output_processor@DV?$stream_output_adapter@D@__crt_stdio_output@@V?$standard_base@DV?$stream_output_adapter@D@__crt_stdio_output@@@2@@__crt_stdio_output@@AAEX_K_N@Z 00432b93 f i libucrt:output.obj
 0001:00031b93       ??$type_case_integer_parse_into_buffer@_K$07@?$output_processor@DV?$string_output_adapter@D@__crt_stdio_output@@V?$standard_base@DV?$string_output_adapter@D@__crt_stdio_output@@@2@@__crt_stdio_output@@AAEX_K_N@Z 00432b93 f i libucrt:output.obj
 0001:00031c0b       ??$type_case_integer_parse_into_buffer@_K$09@?$output_processor@DV?$stream_output_adapter@D@__crt_stdio_output@@V?$standard_base@DV?$stream_output_adapter@D@__crt_stdio_output@@@2@@__crt_stdio_output@@AAEX_K_N@Z 00432c0b f i libucrt:output.obj
 0001:00031c0b       ??$type_case_integer_parse_into_buffer@_K$09@?$output_processor@DV?$string_output_adapter@D@__crt_stdio_output@@V?$standard_base@DV?$string_output_adapter@D@__crt_stdio_output@@@2@@__crt_stdio_output@@AAEX_K_N@Z 00432c0b f i libucrt:output.obj
 0001:00031cb2       ??$type_case_integer_parse_into_buffer@_K$0BA@@?$output_processor@DV?$stream_output_adapter@D@__crt_stdio_output@@V?$standard_base@DV?$stream_output_adapter@D@__crt_stdio_output@@@2@@__crt_stdio_output@@AAEX_K_N@Z 00432cb2 f i libucrt:output.obj
 0001:00031cb2       ??$type_case_integer_parse_into_buffer@_K$0BA@@?$output_processor@DV?$string_output_adapter@D@__crt_stdio_output@@V?$standard_base@DV?$string_output_adapter@D@__crt_stdio_output@@@2@@__crt_stdio_output@@AAEX_K_N@Z 00432cb2 f i libucrt:output.obj
 0001:00031d3c       ??0?$output_adapter_data@DV?$stream_output_adapter@D@__crt_stdio_output@@@__crt_stdio_output@@IAE@ABV?$stream_output_adapter@D@1@_KQBDAAV__crt_cached_ptd_host@@QAD@Z 00432d3c f i libucrt:output.obj
 0001:00031d3c       ??0?$output_adapter_data@DV?$string_output_adapter@D@__crt_stdio_output@@@__crt_stdio_output@@IAE@ABV?$string_output_adapter@D@1@_KQBDAAV__crt_cached_ptd_host@@QAD@Z 00432d3c f i libucrt:output.obj
 0001:00031db0       ??0__crt_cached_ptd_host@@QAE@QAU__crt_locale_pointers@@@Z 00432db0 f i libucrt:output.obj
 0001:00031e10       ??1__crt_cached_ptd_host@@QAE@XZ 00432e10 f i libucrt:output.obj
 0001:00031e4c       ??1formatting_buffer@__crt_stdio_output@@QAE@XZ 00432e4c f i libucrt:output.obj
 0001:00031e66       ??4?$__crt_unique_heap_ptr@DU__crt_internal_free_policy@@@@QAEAAV0@$$QAV0@@Z 00432e66 f i libucrt:output.obj
 0001:00031f26       ?crop_zeroes@__crt_stdio_output@@YAXPADQAU__crt_locale_pointers@@@Z 00432f26 f i libucrt:output.obj
 0001:00031f86       ?find_next_state@?$output_processor@DV?$stream_output_adapter@D@__crt_stdio_output@@V?$standard_base@DV?$stream_output_adapter@D@__crt_stdio_output@@@2@@__crt_stdio_output@@ABE?AW4state@2@DW432@@Z 00432f86 f i libucrt:output.obj
 0001:00031f86       ?find_next_state@?$output_processor@DV?$string_output_adapter@D@__crt_stdio_output@@V?$standard_base@DV?$string_output_adapter@D@__crt_stdio_output@@@2@@__crt_stdio_output@@ABE?AW4state@2@DW432@@Z 00432f86 f i libucrt:output.obj
 0001:00031fc1       ?force_decimal_point@__crt_stdio_output@@YAXPADQAU__crt_locale_pointers@@@Z 00432fc1 f i libucrt:output.obj
 0001:00032020       ?force_synchronize_per_thread_data@__crt_cached_ptd_host@@AAEPAU__acrt_ptd@@XZ 00433020 f i libucrt:output.obj
 0001:00032070       ?get_raw_ptd@__crt_cached_ptd_host@@QAEPAU__acrt_ptd@@XZ 00433070 f i libucrt:output.obj
 0001:000320cc       ?parse_int_from_format_string@?$output_processor@DV?$stream_output_adapter@D@__crt_stdio_output@@V?$standard_base@DV?$stream_output_adapter@D@__crt_stdio_output@@@2@@__crt_stdio_output@@AAE_NQAH@Z 004330cc f i libucrt:output.obj
 0001:000320cc       ?parse_int_from_format_string@?$output_processor@DV?$string_output_adapter@D@__crt_stdio_output@@V?$standard_base@DV?$string_output_adapter@D@__crt_stdio_output@@@2@@__crt_stdio_output@@AAE_NQAH@Z 004330cc f i libucrt:output.obj
 0001:00032144       ?process@?$output_processor@DV?$stream_output_adapter@D@__crt_stdio_output@@V?$standard_base@DV?$stream_output_adapter@D@__crt_stdio_output@@@2@@__crt_stdio_output@@QAEHXZ 00433144 f i libucrt:output.obj
 0001:000323f4       ?process@?$output_processor@DV?$string_output_adapter@D@__crt_stdio_output@@V?$standard_base@DV?$string_output_adapter@D@__crt_stdio_output@@@2@@__crt_stdio_output@@QAEHXZ 004333f4 f i libucrt:output.obj
 0001:000326c8       ?state_case_size@?$output_processor@DV?$stream_output_adapter@D@__crt_stdio_output@@V?$standard_base@DV?$stream_output_adapter@D@__crt_stdio_output@@@2@@__crt_stdio_output@@AAE_NXZ 004336c8 f i libucrt:output.obj
 0001:00032821       ?state_case_size@?$output_processor@DV?$string_output_adapter@D@__crt_stdio_output@@V?$standard_base@DV?$string_output_adapter@D@__crt_stdio_output@@@2@@__crt_stdio_output@@AAE_NXZ 00433821 f i libucrt:output.obj
 0001:0003297a       ?state_case_type@?$output_processor@DV?$stream_output_adapter@D@__crt_stdio_output@@V?$standard_base@DV?$stream_output_adapter@D@__crt_stdio_output@@@2@@__crt_stdio_output@@AAE_NXZ 0043397a f i libucrt:output.obj
 0001:00032cbc       ?state_case_type@?$output_processor@DV?$string_output_adapter@D@__crt_stdio_output@@V?$standard_base@DV?$string_output_adapter@D@__crt_stdio_output@@@2@@__crt_stdio_output@@AAE_NXZ 00433cbc f i libucrt:output.obj
 0001:0003301b       ?to_integer_size@__crt_stdio_output@@YAIW4length_modifier@1@@Z 0043401b f i libucrt:output.obj
 0001:0003306f       ?type_case_Z@?$output_processor@DV?$stream_output_adapter@D@__crt_stdio_output@@V?$standard_base@DV?$stream_output_adapter@D@__crt_stdio_output@@@2@@__crt_stdio_output@@AAE_NXZ 0043406f f i libucrt:output.obj
 0001:0003306f       ?type_case_Z@?$output_processor@DV?$string_output_adapter@D@__crt_stdio_output@@V?$standard_base@DV?$string_output_adapter@D@__crt_stdio_output@@@2@@__crt_stdio_output@@AAE_NXZ 0043406f f i libucrt:output.obj
 0001:000330d2       ?type_case_a@?$output_processor@DV?$stream_output_adapter@D@__crt_stdio_output@@V?$standard_base@DV?$stream_output_adapter@D@__crt_stdio_output@@@2@@__crt_stdio_output@@AAE_NXZ 004340d2 f i libucrt:output.obj
 0001:000330d2       ?type_case_a@?$output_processor@DV?$string_output_adapter@D@__crt_stdio_output@@V?$standard_base@DV?$string_output_adapter@D@__crt_stdio_output@@@2@@__crt_stdio_output@@AAE_NXZ 004340d2 f i libucrt:output.obj
 0001:00033263       ?type_case_c_tchar@?$output_processor@DV?$stream_output_adapter@D@__crt_stdio_output@@V?$standard_base@DV?$stream_output_adapter@D@__crt_stdio_output@@@2@@__crt_stdio_output@@AAE_ND@Z 00434263 f i libucrt:output.obj
 0001:00033263       ?type_case_c_tchar@?$output_processor@DV?$string_output_adapter@D@__crt_stdio_output@@V?$standard_base@DV?$string_output_adapter@D@__crt_stdio_output@@@2@@__crt_stdio_output@@AAE_ND@Z 00434263 f i libucrt:output.obj
 0001:000332f8       ?type_case_n@?$output_processor@DV?$stream_output_adapter@D@__crt_stdio_output@@V?$standard_base@DV?$stream_output_adapter@D@__crt_stdio_output@@@2@@__crt_stdio_output@@AAE_NXZ 004342f8 f i libucrt:output.obj
 0001:000332f8       ?type_case_n@?$output_processor@DV?$string_output_adapter@D@__crt_stdio_output@@V?$standard_base@DV?$string_output_adapter@D@__crt_stdio_output@@@2@@__crt_stdio_output@@AAE_NXZ 004342f8 f i libucrt:output.obj
 0001:0003337d       ?type_case_o@?$output_processor@DV?$stream_output_adapter@D@__crt_stdio_output@@V?$standard_base@DV?$stream_output_adapter@D@__crt_stdio_output@@@2@@__crt_stdio_output@@AAE_NXZ 0043437d f i libucrt:output.obj
 0001:0003337d       ?type_case_o@?$output_processor@DV?$string_output_adapter@D@__crt_stdio_output@@V?$standard_base@DV?$string_output_adapter@D@__crt_stdio_output@@@2@@__crt_stdio_output@@AAE_NXZ 0043437d f i libucrt:output.obj
 0001:0003339a       ?type_case_p@?$output_processor@DV?$stream_output_adapter@D@__crt_stdio_output@@V?$standard_base@DV?$stream_output_adapter@D@__crt_stdio_output@@@2@@__crt_stdio_output@@AAE_NXZ 0043439a f i libucrt:output.obj
 0001:0003339a       ?type_case_p@?$output_processor@DV?$string_output_adapter@D@__crt_stdio_output@@V?$standard_base@DV?$string_output_adapter@D@__crt_stdio_output@@@2@@__crt_stdio_output@@AAE_NXZ 0043439a f i libucrt:output.obj
 0001:000333b0       ?type_case_s@?$output_processor@DV?$stream_output_adapter@D@__crt_stdio_output@@V?$standard_base@DV?$stream_output_adapter@D@__crt_stdio_output@@@2@@__crt_stdio_output@@AAE_NXZ 004343b0 f i libucrt:output.obj
 0001:000333b0       ?type_case_s@?$output_processor@DV?$string_output_adapter@D@__crt_stdio_output@@V?$standard_base@DV?$string_output_adapter@D@__crt_stdio_output@@@2@@__crt_stdio_output@@AAE_NXZ 004343b0 f i libucrt:output.obj
 0001:00033422       ?unget@?$c_string_character_source@D@__crt_strtox@@QAEXD@Z 00434422 f i libucrt:output.obj
 0001:0003344b       ?unget@?$c_string_character_source@_W@__crt_strtox@@QAEX_W@Z 0043444b f i libucrt:output.obj
 0001:00033480       ?update_locale_slow@__crt_cached_ptd_host@@AAEXXZ 00434480 f i libucrt:output.obj
 0001:000334db       ?validate@?$c_string_character_source@D@__crt_strtox@@QBE_NXZ 004344db f i libucrt:output.obj
 0001:000334db       ?validate@?$c_string_character_source@_W@__crt_strtox@@QBE_NXZ 004344db f i libucrt:output.obj
 0001:000334f6       ?validate@?$stream_output_adapter@D@__crt_stdio_output@@QBE_NAAV__crt_cached_ptd_host@@@Z 004344f6 f i libucrt:output.obj
 0001:0003352e       ?validate@?$string_output_adapter@D@__crt_stdio_output@@QBE_NAAV__crt_cached_ptd_host@@@Z 0043452e f i libucrt:output.obj
 0001:0003355f       ?validate_stream_is_ansi_if_required@?$__acrt_stdio_char_traits@D@@SA_NQAU_iobuf@@@Z 0043455f f i libucrt:output.obj
 0001:000335e6       ?write_character@?$output_adapter_common@DV?$stream_output_adapter@D@__crt_stdio_output@@@__crt_stdio_output@@QBEXDQAHAAV__crt_cached_ptd_host@@@Z 004345e6 f i libucrt:output.obj
 0001:00033608       ?write_character_without_count_update@?$stream_output_adapter@D@__crt_stdio_output@@QBE_NDAAV__crt_cached_ptd_host@@@Z 00434608 f i libucrt:output.obj
 0001:00033642       ?write_string@?$stream_output_adapter@D@__crt_stdio_output@@QBEXQBDHQAHAAV__crt_cached_ptd_host@@@Z 00434642 f i libucrt:output.obj
 0001:0003366e       ?write_string@?$string_output_adapter@D@__crt_stdio_output@@QBEXQBDHQAHAAV__crt_cached_ptd_host@@@Z 0043466e f i libucrt:output.obj
 0001:000336d5       ?write_string_impl@?$output_adapter_common@DV?$stream_output_adapter@D@__crt_stdio_output@@@__crt_stdio_output@@IBEXQBDHQAHAAV__crt_cached_ptd_host@@@Z 004346d5 f i libucrt:output.obj
 0001:00033754       ___acrt_locale_get_ctype_array_value 00434754 f i libucrt:output.obj
 0001:00033776       ___stdio_common_vfprintf   00434776 f   libucrt:output.obj
 0001:0003381a       ___stdio_common_vsprintf   0043481a f   libucrt:output.obj
 0001:0003385b       ??0_LocaleUpdate@@QAE@QAU__crt_locale_pointers@@@Z 0043485b f i libucrt:stricmp.obj
 0001:000338dd       ___ascii_stricmp           004348dd f   libucrt:stricmp.obj
 0001:00033916       __stricmp                  00434916 f   libucrt:stricmp.obj
 0001:0003395f       __stricmp_l                0043495f f   libucrt:stricmp.obj
 0001:000339f0       _strncpy                   004349f0 f   libucrt:strncpy.obj
 0001:00033b14       __time64                   00434b14 f   libucrt:time.obj
 0001:00033b80       _isalnum                   00434b80 f   libucrt:_ctype.obj
 0001:00033c10       _isalpha                   00434c10 f   libucrt:_ctype.obj
 0001:00033ca0       _isdigit                   00434ca0 f   libucrt:_ctype.obj
 0001:00033d30       _islower                   00434d30 f   libucrt:_ctype.obj
 0001:00033dc0       _isprint                   00434dc0 f   libucrt:_ctype.obj
 0001:00033e50       _ispunct                   00434e50 f   libucrt:_ctype.obj
 0001:00033ee0       _isspace                   00434ee0 f   libucrt:_ctype.obj
 0001:00033f70       _isupper                   00434f70 f   libucrt:_ctype.obj
 0001:00033ff4       ??$is_overflow_condition@_K@__crt_strtox@@YA_NI_K@Z 00434ff4 f i libucrt:strtox.obj
 0001:00034035       ??$parse_integer@KV?$c_string_character_source@D@__crt_strtox@@$00@__crt_strtox@@YAKAAV__crt_cached_ptd_host@@V?$c_string_character_source@D@0@H_N@Z 00435035 f i libucrt:strtox.obj
 0001:0003427c       ??$parse_integer@KV?$c_string_character_source@_W@__crt_strtox@@$00@__crt_strtox@@YAKAAV__crt_cached_ptd_host@@V?$c_string_character_source@_W@0@H_N@Z 0043527c f i libucrt:strtox.obj
 0001:0003488a       ??$parse_integer@_KV?$c_string_character_source@D@__crt_strtox@@$00@__crt_strtox@@YA_KAAV__crt_cached_ptd_host@@V?$c_string_character_source@D@0@H_N@Z 0043588a f i libucrt:strtox.obj
 0001:00034b52       __ischartype_l             00435b52 f i libucrt:strtox.obj
 0001:00034ba9       _strtol                    00435ba9 f   libucrt:strtox.obj
 0001:00034bef       _strtoul                   00435bef f   libucrt:strtox.obj
 0001:00034c35       _strtoull                  00435c35 f   libucrt:strtox.obj
 0001:00034c81       _wcstol                    00435c81 f   libucrt:strtox.obj
 0001:00034cd0       _strncmp                   00435cd0 f   libucrt:strncmp.obj
 0001:00034d48       ??$assemble_floating_point_snan@N@__crt_strtox@@YAX_NAAN@Z 00435d48 f i libucrt:atof.obj
 0001:00034d69       ??$assemble_floating_point_value_t@M@__crt_strtox@@YA?AW4SLD_STATUS@@_NH_KAAM@Z 00435d69 f i libucrt:atof.obj
 0001:00034d99       ??$assemble_floating_point_value_t@N@__crt_strtox@@YA?AW4SLD_STATUS@@_NH_KAAN@Z 00435d99 f i libucrt:atof.obj
 0001:00034e3f       ??$convert_decimal_string_to_floating_type@M@__crt_strtox@@YA?AW4SLD_STATUS@@ABUfloating_point_string@0@AAM@Z 00435e3f f i libucrt:atof.obj
 0001:00034e60       ??$convert_decimal_string_to_floating_type@N@__crt_strtox@@YA?AW4SLD_STATUS@@ABUfloating_point_string@0@AAN@Z 00435e60 f i libucrt:atof.obj
 0001:00034e81       ??$convert_hexadecimal_string_to_floating_type@M@__crt_strtox@@YA?AW4SLD_STATUS@@ABUfloating_point_string@0@AAM@Z 00435e81 f i libucrt:atof.obj
 0001:00034ea2       ??$convert_hexadecimal_string_to_floating_type@N@__crt_strtox@@YA?AW4SLD_STATUS@@ABUfloating_point_string@0@AAN@Z 00435ea2 f i libucrt:atof.obj
 0001:00034ec3       ??$parse_floating_point@V?$c_string_character_source@D@__crt_strtox@@N@__crt_strtox@@YA?AW4SLD_STATUS@@QAU__crt_locale_pointers@@V?$c_string_character_source@D@0@QAN@Z 00435ec3 f i libucrt:atof.obj
 0001:00034f43       ??$parse_floating_point_from_source@V?$c_string_character_source@D@__crt_strtox@@@__crt_strtox@@YA?AW4floating_point_parse_result@0@QAU__crt_locale_pointers@@AAV?$c_string_character_source@D@0@AAUfloating_point_string@0@@Z 00435f43 f i libucrt:atof.obj
 0001:0003535b       ??$parse_floating_point_possible_infinity@DV?$c_string_character_source@D@__crt_strtox@@PBD@__crt_strtox@@YA?AW4floating_point_parse_result@0@AADAAV?$c_string_character_source@D@0@PBD@Z 0043635b f i libucrt:atof.obj
 0001:0003540e       ??$parse_floating_point_possible_nan@DV?$c_string_character_source@D@__crt_strtox@@PBD@__crt_strtox@@YA?AW4floating_point_parse_result@0@AADAAV?$c_string_character_source@D@0@PBD@Z 0043640e f i libucrt:atof.obj
 0001:00035512       ??$parse_floating_point_possible_nan_is_ind@DV?$c_string_character_source@D@__crt_strtox@@@__crt_strtox@@YA_NAADAAV?$c_string_character_source@D@0@@Z 00436512 f i libucrt:atof.obj
 0001:0003554e       ??$parse_floating_point_possible_nan_is_snan@DV?$c_string_character_source@D@__crt_strtox@@@__crt_strtox@@YA_NAADAAV?$c_string_character_source@D@0@@Z 0043654e f i libucrt:atof.obj
 0001:0003558a       ??$parse_floating_point_write_result@M@__crt_strtox@@YA?AW4SLD_STATUS@@W4floating_point_parse_result@0@ABUfloating_point_string@0@QAM@Z 0043658a f i libucrt:atof.obj
 0001:000356f6       ??$parse_floating_point_write_result@N@__crt_strtox@@YA?AW4SLD_STATUS@@W4floating_point_parse_result@0@ABUfloating_point_string@0@QAN@Z 004366f6 f i libucrt:atof.obj
 0001:0003581a       ??R<lambda_32aa245da1b5b882fa96db788295c8b2>@@QBE@XZ 0043681a f i libucrt:atof.obj
 0001:0003581a       ??R<lambda_690cf26ff5d754c94c32cf642e9f01bc>@@QBE@XZ 0043681a f i libucrt:atof.obj
 0001:0003581a       ??R<lambda_e51f7abad2595a5950d3223319845217>@@QBE@XZ 0043681a f i libucrt:atof.obj
 0001:00035840       ?as_double@floating_point_value@__crt_strtox@@QBEAANXZ 00436840 f i libucrt:atof.obj
 0001:00035865       ?as_float@floating_point_value@__crt_strtox@@QBEAAMXZ 00436865 f i libucrt:atof.obj
 0001:0003588a       ?assemble_floating_point_infinity@__crt_strtox@@YAX_NABVfloating_point_value@1@@Z 0043688a f i libucrt:atof.obj
 0001:000358ca       ?assemble_floating_point_value@__crt_strtox@@YA?AW4SLD_STATUS@@_KH_N1ABVfloating_point_value@1@@Z 004368ca f i libucrt:atof.obj
 0001:00035c23       ?assemble_floating_point_value_from_big_integer@__crt_strtox@@YA?AW4SLD_STATUS@@ABUbig_integer@1@I_N1ABVfloating_point_value@1@@Z 00436c23 f i libucrt:atof.obj
 0001:00035db5       ?assemble_floating_point_zero@__crt_strtox@@YAX_NABVfloating_point_value@1@@Z 00436db5 f i libucrt:atof.obj
 0001:00035dea       ?convert_decimal_string_to_floating_type_common@__crt_strtox@@YA?AW4SLD_STATUS@@ABUfloating_point_string@1@ABVfloating_point_value@1@@Z 00436dea f i libucrt:atof.obj
 0001:00037b90       ?convert_hexadecimal_string_to_floating_type_common@__crt_strtox@@YA?AW4SLD_STATUS@@ABUfloating_point_string@1@ABVfloating_point_value@1@@Z 00438b90 f i libucrt:atof.obj
 0001:00037c36       ?denormal_mantissa_mask@floating_point_value@__crt_strtox@@QBE_KXZ 00438c36 f i libucrt:atof.obj
 0001:00037c50       ?divide@__crt_strtox@@YA_KAAUbig_integer@1@ABU21@@Z 00438c50 f i libucrt:atof.obj
 0001:000380fb       ?normal_mantissa_mask@floating_point_value@__crt_strtox@@QBE_KXZ 004390fb f i libucrt:atof.obj
 0001:00038112       _atof                      00439112 f   libucrt:atof.obj
 0001:000381b0       _qsort                     004391b0 f   libucrt:qsort.obj
 0001:000386a0       _strcspn                   004396a0 f   libucrt:strcspn.obj
 0001:000386e6       __strnicmp                 004396e6 f   libucrt:strnicmp.obj
 0001:00038753       __strnicmp_l               00439753 f   libucrt:strnicmp.obj
 0001:0003881e       __tolower_l                0043981e f   libucrt:tolower_toupper.obj
 0001:0003891c       __toupper_l                0043991c f   libucrt:tolower_toupper.obj
 0001:00038a1a       _tolower                   00439a1a f   libucrt:tolower_toupper.obj
 0001:00038a4a       _toupper                   00439a4a f   libucrt:tolower_toupper.obj
 0001:00038a7a       __wtol                     00439a7a f   libucrt:atox.obj
 0001:00038ab9       _atoi                      00439ab9 f   libucrt:atox.obj
 0001:00038b45       ??$__crt_fast_decode_pointer@P6AHI@Z@@YAP6AHI@ZQ6AHI@Z@Z 00439b45 f i libucrt:new_handler.obj
 0001:00038b45       ??$__crt_fast_decode_pointer@P6AXH@Z@@YAP6AXH@ZQ6AXH@Z@Z 00439b45 f i libucrt:signal.obj
 0001:00038b45       ??$__crt_fast_decode_pointer@P6GXPAXK0@Z@@YAP6GXPAXK0@ZQ6GX0K0@Z@Z 00439b45 f i libucrt:exit.obj
 0001:00038b60       ??$__crt_fast_encode_pointer@P6AHPAU_exception@@@Z@@YAP6AHPAU_exception@@@ZQ6AH0@Z@Z 00439b60 f i libucrt:matherr.obj
 0001:00038b60       ??$__crt_fast_encode_pointer@P6AHXZ@@YAP6AHXZQ6AHXZ@Z 00439b60 f i libucrt:onexit.obj
 0001:00038b60       ??$__crt_fast_encode_pointer@P6AXH@Z@@YAP6AXH@ZQ6AXH@Z@Z 00439b60 f i libucrt:signal.obj
 0001:00038b60       ??$__crt_fast_encode_pointer@P6GHPA_WKJ@Z@@YAP6GHPA_WKJ@ZQ6GH0KJ@Z@Z 00439b60 f i libucrt:winapi_thunks.obj
 0001:00038b60       ??$__crt_fast_encode_pointer@P6GXPAXK0@Z@@YAP6GXPAXK0@ZQ6GX0K0@Z@Z 00439b60 f i libucrt:exit.obj
 0001:00038b60       ??$__crt_fast_encode_pointer@PAP6AXXZ@@YAPAP6AXXZQAP6AXXZ@Z 00439b60 f i libucrt:onexit.obj
 0001:00038b60       ??$__crt_fast_encode_pointer@PAX@@YAPAXQAX@Z 00439b60 f i libucrt:initialization.obj
 0001:00038dca       ___acrt_initialize_thread_local_exit_callback 00439dca f   libucrt:exit.obj
 0001:00038dd9       __c_exit                   00439dd9 f   libucrt:exit.obj
 0001:00038de8       __cexit                    00439de8 f   libucrt:exit.obj
 0001:00038df7       __exit                     00439df7 f   libucrt:exit.obj
 0001:00038e0d       __register_thread_local_exe_atexit_callback 00439e0d f   libucrt:exit.obj
 0001:00038e33       _exit                      00439e33 f   libucrt:exit.obj
 0001:00038f00       _fopen                     00439f00 f   libucrt:fopen.obj
 0001:00038fbe       __fwrite_internal          00439fbe f   libucrt:fwrite.obj
 0001:00039035       __fwrite_nolock_internal   0043a035 f   libucrt:fwrite.obj
 0001:000391dc       _fwrite                    0043a1dc f   libucrt:fwrite.obj
 0001:0003933b       _fclose                    0043a33b f   libucrt:fclose.obj
 0001:00039370       _strspn                    0043a370 f   libucrt:strspn.obj
 0001:0003946a       ??$make_input_adapter_character_source@V?$string_input_adapter@D@__crt_stdio_input@@@__crt_strtox@@YA?AV?$input_adapter_character_source@V?$string_input_adapter@D@__crt_stdio_input@@@0@QAV?$string_input_adapter@D@__crt_stdio_input@@_KQA_N@Z 0043a46a f i libucrt:input.obj
 0001:00039488       ??$parse_floating_point@V?$input_adapter_character_source@V?$string_input_adapter@D@__crt_stdio_input@@@__crt_strtox@@M@__crt_strtox@@YA?AW4SLD_STATUS@@QAU__crt_locale_pointers@@V?$input_adapter_character_source@V?$string_input_adapter@D@__crt_stdio_input@@@0@QAM@Z 0043a488 f i libucrt:input.obj
 0001:00039512       ??$parse_floating_point@V?$input_adapter_character_source@V?$string_input_adapter@D@__crt_stdio_input@@@__crt_strtox@@N@__crt_strtox@@YA?AW4SLD_STATUS@@QAU__crt_locale_pointers@@V?$input_adapter_character_source@V?$string_input_adapter@D@__crt_stdio_input@@@0@QAN@Z 0043a512 f i libucrt:input.obj
 0001:0003959c       ??$parse_floating_point_from_source@V?$input_adapter_character_source@V?$string_input_adapter@D@__crt_stdio_input@@@__crt_strtox@@@__crt_strtox@@YA?AW4floating_point_parse_result@0@QAU__crt_locale_pointers@@AAV?$input_adapter_character_source@V?$string_input_adapter@D@__crt_stdio_input@@@0@AAUfloating_point_string@0@@Z 0043a59c f i libucrt:input.obj
 0001:000399fe       ??$parse_floating_point_possible_infinity@DV?$input_adapter_character_source@V?$string_input_adapter@D@__crt_stdio_input@@@__crt_strtox@@_K@__crt_strtox@@YA?AW4floating_point_parse_result@0@AADAAV?$input_adapter_character_source@V?$string_input_adapter@D@__crt_stdio_input@@@0@_K@Z 0043a9fe f i libucrt:input.obj
 0001:00039abd       ??$parse_floating_point_possible_nan@DV?$input_adapter_character_source@V?$string_input_adapter@D@__crt_stdio_input@@@__crt_strtox@@_K@__crt_strtox@@YA?AW4floating_point_parse_result@0@AADAAV?$input_adapter_character_source@V?$string_input_adapter@D@__crt_stdio_input@@@0@_K@Z 0043aabd f i libucrt:input.obj
 0001:00039bc5       ??$parse_floating_point_possible_nan_is_ind@DV?$input_adapter_character_source@V?$string_input_adapter@D@__crt_stdio_input@@@__crt_strtox@@@__crt_strtox@@YA_NAADAAV?$input_adapter_character_source@V?$string_input_adapter@D@__crt_stdio_input@@@0@@Z 0043abc5 f i libucrt:input.obj
 0001:00039bff       ??$parse_floating_point_possible_nan_is_snan@DV?$input_adapter_character_source@V?$string_input_adapter@D@__crt_stdio_input@@@__crt_strtox@@@__crt_strtox@@YA_NAADAAV?$input_adapter_character_source@V?$string_input_adapter@D@__crt_stdio_input@@@0@@Z 0043abff f i libucrt:input.obj
 0001:00039c39       ??$parse_integer@_KV?$input_adapter_character_source@V?$string_input_adapter@D@__crt_stdio_input@@@__crt_strtox@@$00@__crt_strtox@@YA_KAAV__crt_cached_ptd_host@@V?$input_adapter_character_source@V?$string_input_adapter@D@__crt_stdio_input@@@0@H_N@Z 0043ac39 f i libucrt:input.obj
 0001:00039f3d       ??$parse_integer@_KV?$input_adapter_character_source@V?$string_input_adapter@D@__crt_stdio_input@@@__crt_strtox@@@__crt_strtox@@YA_KQAU__crt_locale_pointers@@V?$input_adapter_character_source@V?$string_input_adapter@D@__crt_stdio_input@@@0@H_N@Z 0043af3d f i libucrt:input.obj
 0001:00039f99       ??$process_floating_point_specifier_t@M@?$input_processor@DV?$string_input_adapter@D@__crt_stdio_input@@@__crt_stdio_input@@AAE_NXZ 0043af99 f i libucrt:input.obj
 0001:0003a002       ??$process_floating_point_specifier_t@N@?$input_processor@DV?$string_input_adapter@D@__crt_stdio_input@@@__crt_stdio_input@@AAE_NXZ 0043b002 f i libucrt:input.obj
 0001:0003a06b       ??$process_string_specifier_tchar@D@?$input_processor@DV?$string_input_adapter@D@__crt_stdio_input@@@__crt_stdio_input@@AAE_NW4conversion_mode@1@D@Z 0043b06b f i libucrt:input.obj
 0001:0003a1cd       ??$process_string_specifier_tchar@_W@?$input_processor@DV?$string_input_adapter@D@__crt_stdio_input@@@__crt_stdio_input@@AAE_NW4conversion_mode@1@_W@Z 0043b1cd f i libucrt:input.obj
 0001:0003a33b       ??$skip_whitespace@Vstring_input_adapter@__crt_stdio_input@@D@__crt_stdio_input@@YAHAAV?$string_input_adapter@D@0@QAU__crt_locale_pointers@@@Z 0043b33b f i libucrt:input.obj
 0001:0003a36a       ??$write_floating_point@M@?$input_processor@DV?$string_input_adapter@D@__crt_stdio_input@@@__crt_stdio_input@@AAE_NABM@Z 0043b36a f i libucrt:input.obj
 0001:0003a39f       ??$write_floating_point@N@?$input_processor@DV?$string_input_adapter@D@__crt_stdio_input@@@__crt_stdio_input@@AAE_NABN@Z 0043b39f f i libucrt:input.obj
 0001:0003a3da       ??0?$format_string_parser@D@__crt_stdio_input@@QAE@_KQBE@Z 0043b3da f i libucrt:input.obj
 0001:0003a424       ??0?$input_adapter_character_source@V?$string_input_adapter@D@__crt_stdio_input@@@__crt_strtox@@QAE@$$QAV01@@Z 0043b424 f i libucrt:input.obj
 0001:0003a461       ??0?$input_adapter_character_source@V?$string_input_adapter@D@__crt_stdio_input@@@__crt_strtox@@QAE@QAV?$string_input_adapter@D@__crt_stdio_input@@_KQA_N@Z 0043b461 f i libucrt:input.obj
 0001:0003a492       ??0?$input_processor@DV?$string_input_adapter@D@__crt_stdio_input@@@__crt_stdio_input@@QAE@ABV?$string_input_adapter@D@1@_KQBDQAU__crt_locale_pointers@@QAD@Z 0043b492 f i libucrt:input.obj
 0001:0003a4d6       ??R<lambda_644f8ab42ed3fd1d660977a2364b3a7d>@@QBE@XZ 0043b4d6 f i libucrt:input.obj
 0001:0003a4d6       ??R<lambda_f1fa4c266c18b246f3ed9c36247dab4f>@@QBE@XZ 0043b4d6 f i libucrt:input.obj
 0001:0003a4d6       ??R<lambda_f765c90ab33e8386abf09c0f079d37e9>@@QBE@XZ 0043b4d6 f i libucrt:input.obj
 0001:0003a500       ?advance@?$format_string_parser@D@__crt_stdio_input@@QAE_NXZ 0043b500 f i libucrt:input.obj
 0001:0003a618       ?get@?$input_adapter_character_source@V?$string_input_adapter@D@__crt_stdio_input@@@__crt_strtox@@QAEDXZ 0043b618 f i libucrt:input.obj
 0001:0003a64f       ?get@?$string_input_adapter@D@__crt_stdio_input@@QAEHXZ 0043b64f f i libucrt:input.obj
 0001:0003a665       ?is_character_allowed_in_string@?$input_processor@DV?$string_input_adapter@D@__crt_stdio_input@@@__crt_stdio_input@@ABE_NW4conversion_mode@2@H@Z 0043b665 f i libucrt:input.obj
 0001:0003a6b5       ?length@?$format_string_parser@D@__crt_stdio_input@@QBEIXZ 0043b6b5 f i libucrt:input.obj
 0001:0003a703       ?process@?$input_processor@DV?$string_input_adapter@D@__crt_stdio_input@@@__crt_stdio_input@@QAEHXZ 0043b703 f i libucrt:input.obj
 0001:0003a787       ?process_character_count_specifier@?$input_processor@DV?$string_input_adapter@D@__crt_stdio_input@@@__crt_stdio_input@@AAE_NXZ 0043b787 f i libucrt:input.obj
 0001:0003a79f       ?process_conversion_specifier@?$input_processor@DV?$string_input_adapter@D@__crt_stdio_input@@@__crt_stdio_input@@AAE_NXZ 0043b79f f i libucrt:input.obj
 0001:0003a813       ?process_floating_point_specifier@?$input_processor@DV?$string_input_adapter@D@__crt_stdio_input@@@__crt_stdio_input@@AAE_NXZ 0043b813 f i libucrt:input.obj
 0001:0003a843       ?process_integer_specifier@?$input_processor@DV?$string_input_adapter@D@__crt_stdio_input@@@__crt_stdio_input@@AAE_NI_N@Z 0043b843 f i libucrt:input.obj
 0001:0003a8a8       ?process_literal_character@?$input_processor@DV?$string_input_adapter@D@__crt_stdio_input@@@__crt_stdio_input@@AAE_NXZ 0043b8a8 f i libucrt:input.obj
 0001:0003a8de       ?process_literal_character_tchar@?$input_processor@DV?$string_input_adapter@D@__crt_stdio_input@@@__crt_stdio_input@@AAE_ND@Z 0043b8de f i libucrt:input.obj
 0001:0003a92c       ?process_state@?$input_processor@DV?$string_input_adapter@D@__crt_stdio_input@@@__crt_stdio_input@@AAE_NXZ 0043b92c f i libucrt:input.obj
 0001:0003a96e       ?process_string_specifier@?$input_processor@DV?$string_input_adapter@D@__crt_stdio_input@@@__crt_stdio_input@@AAE_NW4conversion_mode@2@@Z 0043b96e f i libucrt:input.obj
 0001:0003a9b6       ?process_whitespace@?$input_processor@DV?$string_input_adapter@D@__crt_stdio_input@@@__crt_stdio_input@@AAE_NXZ 0043b9b6 f i libucrt:input.obj
 0001:0003a9d3       ?restore_state@?$input_adapter_character_source@V?$string_input_adapter@D@__crt_stdio_input@@@__crt_strtox@@QAE_N_K@Z 0043b9d3 f i libucrt:input.obj
 0001:0003a9f8       ?scan_conversion_specifier@?$format_string_parser@D@__crt_stdio_input@@AAE_NXZ 0043b9f8 f i libucrt:input.obj
 0001:0003ab74       ?scan_optional_field_width@?$format_string_parser@D@__crt_stdio_input@@AAE_NXZ 0043bb74 f i libucrt:input.obj
 0001:0003ac08       ?scan_optional_length_modifier@?$format_string_parser@D@__crt_stdio_input@@AAEXXZ 0043bc08 f i libucrt:input.obj
 0001:0003ad28       ?scan_optional_literal_character_trail_bytes_tchar@?$format_string_parser@D@__crt_stdio_input@@AAE_ND@Z 0043bd28 f i libucrt:input.obj
 0001:0003ad7a       ?scan_optional_wide_modifier@?$format_string_parser@D@__crt_stdio_input@@AAEXXZ 0043bd7a f i libucrt:input.obj
 0001:0003ad98       ?scan_scanset_range@?$format_string_parser@D@__crt_stdio_input@@AAE_NXZ 0043bd98 f i libucrt:input.obj
 0001:0003aed1       ?set@?$scanset_buffer@E@__crt_stdio_input@@QAEXE@Z 0043bed1 f i libucrt:input.obj
 0001:0003aefc       ?set_wide_for_c_s_or_scanset@?$format_string_parser@D@__crt_stdio_input@@AAEXXZ 0043befc f i libucrt:input.obj
 0001:0003af1d       ?to_floating_point_length@__crt_stdio_input@@YAIW4length_modifier@1@@Z 0043bf1d f i libucrt:input.obj
 0001:0003af40       ?to_integer_length@__crt_stdio_input@@YAIW4length_modifier@1@@Z 0043bf40 f i libucrt:input.obj
 0001:0003af93       ?unget@?$input_adapter_character_source@V?$string_input_adapter@D@__crt_stdio_input@@@__crt_strtox@@QAEXD@Z 0043bf93 f i libucrt:input.obj
 0001:0003afda       ?unget@?$string_input_adapter@D@__crt_stdio_input@@QAEXH@Z 0043bfda f i libucrt:input.obj
 0001:0003aff9       ?validate@?$format_string_parser@D@__crt_stdio_input@@QBE_NXZ 0043bff9 f i libucrt:input.obj
 0001:0003b015       ?validate@?$input_adapter_character_source@V?$string_input_adapter@D@__crt_stdio_input@@@__crt_strtox@@QBE_NXZ 0043c015 f i libucrt:input.obj
 0001:0003b036       ?validate@?$string_input_adapter@D@__crt_stdio_input@@QAE_NXZ 0043c036 f i libucrt:input.obj
 0001:0003b058       ?write_character@?$input_processor@DV?$string_input_adapter@D@__crt_stdio_input@@@__crt_stdio_input@@AAE_NQA_WIAAPA_WAAID@Z 0043c058 f i libucrt:input.obj
 0001:0003b0c5       ?write_integer@?$input_processor@DV?$string_input_adapter@D@__crt_stdio_input@@@__crt_stdio_input@@AAE_N_K@Z 0043c0c5 f i libucrt:input.obj
 0001:0003b134       ___stdio_common_vsscanf    0043c134 f   libucrt:input.obj
 0001:0003b158       ??$__acrt_convert_wcs_mbs_cp@D_WV<lambda_62f6974d9771e494a5ea317cc32e971c>@@U__crt_win32_buffer_internal_dynamic_resizing@@@@YAHQBDAAV?$__crt_win32_buffer@_WU__crt_win32_buffer_internal_dynamic_resizing@@@@ABV<lambda_62f6974d9771e494a5ea317cc32e971c>@@I@Z 0043c158 f i libucrt:unlink.obj
 0001:0003b20a       ??$__acrt_mbs_to_wcs_cp@U__crt_win32_buffer_internal_dynamic_resizing@@@@YAHQBDAAV?$__crt_win32_buffer@_WU__crt_win32_buffer_internal_dynamic_resizing@@@@I@Z 0043c20a f i libucrt:unlink.obj
 0001:0003b227       ?__acrt_get_utf8_acp_compatibility_codepage@@YAIXZ 0043c227 f i libucrt:unlink.obj
 0001:0003b266       ?_deallocate@?$__crt_win32_buffer@DU__crt_win32_buffer_internal_dynamic_resizing@@@@AAEXXZ 0043c266 f i libucrt:argv_wildcards.obj
 0001:0003b266       ?_deallocate@?$__crt_win32_buffer@_WU__crt_win32_buffer_internal_dynamic_resizing@@@@AAEXXZ 0043c266 f i libucrt:unlink.obj
 0001:0003b280       ?allocate@?$__crt_win32_buffer@_WU__crt_win32_buffer_internal_dynamic_resizing@@@@QAEHI@Z 0043c280 f i libucrt:unlink.obj
 0001:0003b2bf       ?allocate@__crt_win32_buffer_internal_dynamic_resizing@@SAHQAPAXIABV__crt_win32_buffer_empty_debug_info@@@Z 0043c2bf f i libucrt:unlink.obj
 0001:0003b2de       _remove                    0043c2de f   libucrt:unlink.obj
 0001:0003b348       _frexp                     0043c348 f   libucrt:frexp.obj
 0001:0003b442       ___acrt_initialize_stdio   0043c442 f   libucrt:_file.obj
 0001:0003b50a       ___acrt_iob_func           0043c50a f   libucrt:_file.obj
 0001:0003b51a       ___acrt_uninitialize_stdio 0043c51a f   libucrt:_file.obj
 0001:0003b566       __lock_file                0043c566 f   libucrt:_file.obj
 0001:0003b57a       __unlock_file              0043c57a f   libucrt:_file.obj
 0001:0003b740       ___acrt_get_sigabrt_handler 0043c740 f   libucrt:signal.obj
 0001:0003b767       ___acrt_initialize_signal_handlers 0043c767 f   libucrt:signal.obj
 0001:0003b785       _raise                     0043c785 f   libucrt:signal.obj
 0001:0003b977       _signal                    0043c977 f   libucrt:signal.obj
 0001:0003bb3b       _bsearch                   0043cb3b f   libucrt:bsearch.obj
 0001:0003bd5a       __beginthreadex            0043cd5a f   libucrt:thread.obj
 0001:0003bddd       __endthreadex              0043cddd f   libucrt:thread.obj
 0001:0003bdeb       _malloc                    0043cdeb f   libucrt:malloc.obj
 0001:0003be00       _modf                      0043ce00 f   libucrt:modf_pentium4.obj
 0001:0003be40       __modf_pentium4            0043ce40 f   libucrt:modf_pentium4.obj
 0001:0003c124       _puts                      0043d124 f   libucrt:puts.obj
 0001:0003c154       _free                      0043d154 f   libucrt:free.obj
 0001:0003c16f       __get_printf_count_output  0043d16f f   libucrt:printf_count_output.obj
 0001:0003c184       __set_printf_count_output  0043d184 f   libucrt:printf_count_output.obj
 0001:0003c403       _setlocale                 0043d403 f   libucrt:setlocale.obj
 0001:0003c440       _strpbrk                   0043d440 f   libucrt:strpbrk.obj
 0001:0003c480       _rename                    0043d480 f   libucrt:rename.obj
 0001:0003c52e       _feof                      0043d52e f   libucrt:feoferr.obj
 0001:0003cb74       __ftelli64_nolock_internal 0043db74 f   libucrt:ftell.obj
 0001:0003cb7f       _ftell                     0043db7f f   libucrt:ftell.obj
 0001:0003cbaf       ?LongLongSub@@YAJ_J0PA_J@Z 0043dbaf f i libucrt:fseek.obj
 0001:0003ce98       _fseek                     0043de98 f   libucrt:fseek.obj
 0001:0003d10b       ___acrt_stdio_flush_nolock 0043e10b f   libucrt:fflush.obj
 0001:0003d174       __fflush_nolock            0043e174 f   libucrt:fflush.obj
 0001:0003d1d9       __flushall                 0043e1d9 f   libucrt:fflush.obj
 0001:0003d1e2       _fflush                    0043e1e2 f   libucrt:fflush.obj
 0001:0003d235       __fread_nolock_s           0043e235 f   libucrt:fread.obj
 0001:0003d40e       _fread                     0043e40e f   libucrt:fread.obj
 0001:0003d42b       _fread_s                   0043e42b f   libucrt:fread.obj
 0001:0003d4c8       __fgetc_nolock             0043e4c8 f   libucrt:fgetc.obj
 0001:0003d504       __getc_nolock              0043e504 f   libucrt:fgetc.obj
 0001:0003d50f       _fgetc                     0043e50f f   libucrt:fgetc.obj
 0001:0003d75c       __fputc_nolock_internal    0043e75c f   libucrt:fputc.obj
 0001:0003d789       _fputc                     0043e789 f   libucrt:fputc.obj
 0001:0003d88f       _fgets                     0043e88f f   libucrt:fgets.obj
 0001:0003da59       _fputs                     0043ea59 f   libucrt:fputs.obj
 0001:0003dd1e       __localtime64              0043ed1e f   libucrt:localtime.obj
 0001:0003dd45       ??$__crt_time_elapsed_leap_years@H@@YAHH@Z 0043ed45 f i libucrt:gmtime.obj
 0001:0003dd7f       ??$__crt_time_is_leap_year@H@@YA_NH@Z 0043ed7f f i libucrt:gmtime.obj
 0001:0003dfc5       ___getgmtimebuf            0043efc5 f   libucrt:gmtime.obj
 0001:0003e003       __gmtime64                 0043f003 f   libucrt:gmtime.obj
 0001:0003e02a       __gmtime64_s               0043f02a f   libucrt:gmtime.obj
 0001:0003e035       ??$__acrt_convert_wcs_mbs_cp@_WDV<lambda_0fec1a7b3f42a53036604e18c2d5e07e>@@U__crt_win32_buffer_no_resizing@@@@YAHQB_WAAV?$__crt_win32_buffer@DU__crt_win32_buffer_no_resizing@@@@ABV<lambda_0fec1a7b3f42a53036604e18c2d5e07e>@@I@Z 0043f035 f i libucrt:strftime.obj
 0001:0003e0f7       ??$__acrt_wcs_to_mbs_cp@U__crt_win32_buffer_no_resizing@@@@YAHQB_WAAV?$__crt_win32_buffer@DU__crt_win32_buffer_no_resizing@@@@I@Z 0043f0f7 f i libucrt:strftime.obj
 0001:0003e114       ??R<lambda_0fec1a7b3f42a53036604e18c2d5e07e>@@QBE@IQB_WQADI@Z 0043f114 f i libucrt:strftime.obj
 0001:0003e114       ??R<lambda_28bda7af82a03b66c1cb3803a755f95d>@@QBE@IQB_WQADI@Z 0043f114 f i libucrt:argv_wildcards.obj
 0001:0003e138       ?allocate@?$__crt_win32_buffer@DU__crt_win32_buffer_no_resizing@@@@QAEHI@Z 0043f138 f i libucrt:strftime.obj
 0001:0003e15f       ?set_to_nullptr@?$__crt_win32_buffer@DU__crt_win32_buffer_no_resizing@@@@QAEXXZ 0043f15f f i libucrt:strftime.obj
 0001:0003e173       __Strftime_l               0043f173 f   libucrt:strftime.obj
 0001:0003e26e       _strftime                  0043f26e f   libucrt:strftime.obj
 0001:0003e341       __get_sys_err_msg          0043f341 f i libucrt:perror.obj
 0001:0003e399       _perror                    0043f399 f   libucrt:perror.obj
 0001:0003e3c3       _abort                     0043f3c3 f   libucrt:abort.obj
 0001:0003e407       __seh_filter_exe           0043f407 f   libucrt:exception_filter.obj
 0001:0003e7fe       ___acrt_allocate_buffer_for_argv 0043f7fe f   libucrt:argv_parsing.obj
 0001:0003e84d       __configure_narrow_argv    0043f84d f   libucrt:argv_parsing.obj
 0001:0003ec19       ___dcrt_get_or_create_wide_environment_nolock 0043fc19 f   libucrt:environment_initialization.obj
 0001:0003ec1e       ___dcrt_uninitialize_environments_nolock 0043fc1e f   libucrt:environment_initialization.obj
 0001:0003ec6f       __initialize_narrow_environment 0043fc6f f   libucrt:environment_initialization.obj
 0001:0003ef06       __crt_atexit               0043ff06 f   libucrt:onexit.obj
 0001:0003ef1c       __execute_onexit_table     0043ff1c f   libucrt:onexit.obj
 0001:0003ef5a       __initialize_onexit_table  0043ff5a f   libucrt:onexit.obj
 0001:0003ef83       __register_onexit_function 0043ff83 f   libucrt:onexit.obj
 0001:0003f0b1       ___acrt_initialize         004400b1 f   libucrt:initialization.obj
 0001:0003f0c3       ___acrt_uninitialize       004400c3 f   libucrt:initialization.obj
 0001:0003f0f3       ___acrt_initialize_new_handler 004400f3 f   libucrt:new_handler.obj
 0001:0003f102       __callnewh                 00440102 f   libucrt:new_handler.obj
 0001:0003f12e       __query_new_handler        0044012e f   libucrt:new_handler.obj
 0001:0003f185       __query_app_type           00440185 f   libucrt:report_runtime_error.obj
 0001:0003f18b       __set_app_type             0044018b f   libucrt:report_runtime_error.obj
 0001:0003f19a       ___acrt_has_user_matherr   0044019a f   libucrt:matherr.obj
 0001:0003f1b7       ___acrt_initialize_user_matherr 004401b7 f   libucrt:matherr.obj
 0001:0003f1c6       ___acrt_invoke_user_matherr 004401c6 f   libucrt:matherr.obj
 0001:0003f1fc       ___setusermatherr          004401fc f   libucrt:matherr.obj
 0001:0003f211       __get_narrow_winmain_command_line 00440211 f   libucrt:argv_winmain.obj
 0001:0003f264       __initterm                 00440264 f   libucrt:initterm.obj
 0001:0003f28f       __initterm_e               0044028f f   libucrt:initterm.obj
 0001:0003f2bd       __get_fmode                004402bd f   libucrt:setmode.obj
 0001:0003f2ea       __set_fmode                004402ea f   libucrt:setmode.obj
 0001:0003f327       __setmode_nolock           00440327 f   libucrt:setmode.obj
 0001:0003f4f6       ??0_expandlocale_locale_name_cache@@QAE@QA_WIQAU__crt_qualified_locale_data@@@Z 004404f6 f i libucrt:wsetlocale.obj
 0001:0003f540       ??1_expandlocale_locale_name_cache@@QAE@XZ 00440540 f i libucrt:wsetlocale.obj
 0001:0003f6d8       ?commit_locale_name@_expandlocale_locale_name_cache@@QAEXQB_WI@Z 004406d8 f i libucrt:wsetlocale.obj
 0001:0003f71c       ?commit_locale_name_cache_already_updated@_expandlocale_locale_name_cache@@QAEXQB_WI@Z 0044071c f i libucrt:wsetlocale.obj
 0001:0003f751       ___acrt_copy_locale_name   00440751 f   libucrt:wsetlocale.obj
 0001:0003f7b1       ___acrt_set_locale_changed 004407b1 f   libucrt:wsetlocale.obj
 0001:0003f7bc       ___acrt_uninitialize_locale 004407bc f   libucrt:wsetlocale.obj
 0001:0003f7e3       ___lc_lctowcs              004407e3 f   libucrt:wsetlocale.obj
 0001:0003f853       ___lc_wcstolc              00440853 f   libucrt:wsetlocale.obj
 0001:0003f990       __configthreadlocale       00440990 f   libucrt:wsetlocale.obj
 0001:0003fde7       __wcscats                  00440de7 f   libucrt:wsetlocale.obj
 0001:0003fe28       __wsetlocale               00440e28 f   libucrt:wsetlocale.obj
 0001:00040b1d       __query_new_mode           00441b1d f   libucrt:new_mode.obj
 0001:00040b24       __set_new_mode             00441b24 f   libucrt:new_mode.obj
 0001:00040b53       ___p__commode              00441b53 f   libucrt:ncommode.obj
 0001:00040b59       _terminate                 00441b59 f   libucrt:terminate.obj
 0001:00040b95       __controlfp_s              00441b95 f   libucrt:contrlfp.obj
 0001:00040bf4       _strcpy_s                  00441bf4 f   libucrt:strcpy_s.obj
 0001:00040c4e       _calloc                    00441c4e f   libucrt:calloc.obj
 0001:00040c59       _wcsncmp                   00441c59 f   libucrt:wcsncmp.obj
 0001:00040c93       ?check_synchronize_global_state_index@__crt_cached_ptd_host@@AAEIXZ 00441c93 f i libucrt:invalid_parameter.obj
 0001:00040cbc       ___acrt_call_reportfault   00441cbc f   libucrt:invalid_parameter.obj
 0001:00040df5       ___acrt_initialize_invalid_parameter_handler 00441df5 f   libucrt:invalid_parameter.obj
 0001:00040e04       __invalid_parameter        00441e04 f   libucrt:invalid_parameter.obj
 0001:00040e3b       __invalid_parameter_internal 00441e3b f   libucrt:invalid_parameter.obj
 0001:00040eb8       __invalid_parameter_noinfo 00441eb8 f   libucrt:invalid_parameter.obj
 0001:00040ec8       __invoke_watson            00441ec8 f   libucrt:invalid_parameter.obj
 0001:00040efc       ___acrt_errno_from_os_error 00441efc f   libucrt:errno.obj
 0001:00040f3f       ___acrt_errno_map_os_error 00441f3f f   libucrt:errno.obj
 0001:00040f62       ___acrt_errno_map_os_error_ptd 00441f62 f   libucrt:errno.obj
 0001:00040f86       ___doserrno                00441f86 f   libucrt:errno.obj
 0001:00040f99       __errno                    00441f99 f   libucrt:errno.obj
 0001:00040fac       __free_base                00441fac f   libucrt:free_base.obj
 0001:00040fe6       __malloc_base              00441fe6 f   libucrt:malloc_base.obj
 0001:00041034       _strnlen                   00442034 f   libucrt:strnlen.obj
 0001:00041156       _wcsnlen                   00442156 f   libucrt:strnlen.obj
 0001:00041306       ___acrt_update_locale_info 00442306 f   libucrt:locale_update.obj
 0001:00041333       ___acrt_update_locale_info_explicit 00442333 f   libucrt:locale_update.obj
 0001:00041364       ___acrt_update_multibyte_info 00442364 f   libucrt:locale_update.obj
 0001:00041391       ___acrt_update_multibyte_info_explicit 00442391 f   libucrt:locale_update.obj
 0001:000413c2       ?__acrt_fp_classify@@YA?AW4__acrt_fp_class@@ABN@Z 004423c2 f i libucrt:cvt.obj
 0001:00041d9a       ___acrt_fp_format          00442d9a f   libucrt:cvt.obj
 0001:00041f1b       __wctomb_internal          00442f1b f   libucrt:wctomb.obj
 0001:00042085       __mbtowc_internal          00443085 f   libucrt:mbtowc.obj
 0001:000421b8       __mbtowc_l                 004431b8 f   libucrt:mbtowc.obj
 0001:000421f0       __fileno                   004431f0 f   libucrt:fileno.obj
 0001:00042217       ___acrt_should_use_temporary_buffer 00443217 f   libucrt:_sftbuf.obj
 0001:00042255       ___acrt_stdio_begin_temporary_buffering_nolock 00443255 f   libucrt:_sftbuf.obj
 0001:00042300       ___acrt_stdio_end_temporary_buffering_nolock 00443300 f   libucrt:_sftbuf.obj
 0001:0004267c       ___acrt_getptd             0044367c f   libucrt:per_thread_data.obj
 0001:00042737       ___acrt_getptd_head        00443737 f   libucrt:per_thread_data.obj
 0001:000427cd       ___acrt_getptd_noexit      004437cd f   libucrt:per_thread_data.obj
 0001:0004287e       ___acrt_getptd_noexit_explicit 0044387e f   libucrt:per_thread_data.obj
 0001:00042921       ___acrt_initialize_ptd     00443921 f   libucrt:per_thread_data.obj
 0001:0004294d       ___acrt_uninitialize_ptd   0044394d f   libucrt:per_thread_data.obj
 0001:00042acd       ___acrt_initialize_lowio   00443acd f   libucrt:ioinit.obj
 0001:00042b2d       ___acrt_uninitialize_lowio 00443b2d f   libucrt:ioinit.obj
 0001:00042e83       ___acrt_AppPolicyGetProcessTerminationMethodInternal@4 00443e83 f   libucrt:winapi_thunks.obj
 0001:00042ec3       ___acrt_AppPolicyGetThreadInitializationTypeInternal@4 00443ec3 f   libucrt:winapi_thunks.obj
 0001:00042f03       ___acrt_AreFileApisANSI@0  00443f03 f   libucrt:winapi_thunks.obj
 0001:00042f22       ___acrt_CompareStringEx@36 00443f22 f   libucrt:winapi_thunks.obj
 0001:00042f7f       ___acrt_EnumSystemLocalesEx@16 00443f7f f   libucrt:winapi_thunks.obj
 0001:00042fd3       ___acrt_FlsAlloc@4         00443fd3 f   libucrt:winapi_thunks.obj
 0001:00043012       ___acrt_FlsFree@4          00444012 f   libucrt:winapi_thunks.obj
 0001:00043051       ___acrt_FlsGetValue@4      00444051 f   libucrt:winapi_thunks.obj
 0001:00043090       ___acrt_FlsSetValue@8      00444090 f   libucrt:winapi_thunks.obj
 0001:000430d2       ___acrt_GetDateFormatEx@28 004440d2 f   libucrt:winapi_thunks.obj
 0001:00043129       ___acrt_GetLocaleInfoEx@16 00444129 f   libucrt:winapi_thunks.obj
 0001:00043168       ___acrt_GetTimeFormatEx@24 00444168 f   libucrt:winapi_thunks.obj
 0001:000431ad       ___acrt_GetUserDefaultLocaleName@8 004441ad f   libucrt:winapi_thunks.obj
 0001:000431e9       ___acrt_InitializeCriticalSectionEx@12 004441e9 f   libucrt:winapi_thunks.obj
 0001:00043234       ___acrt_IsValidLocaleName@4 00444234 f   libucrt:winapi_thunks.obj
 0001:0004326c       ___acrt_LCIDToLocaleName@16 0044426c f   libucrt:winapi_thunks.obj
 0001:000432ab       ___acrt_LCMapStringEx@36   004442ab f   libucrt:winapi_thunks.obj
 0001:00043308       ___acrt_LocaleNameToLCID@8 00444308 f   libucrt:winapi_thunks.obj
 0001:00043339       ___acrt_RoInitialize@4     00444339 f   libucrt:winapi_thunks.obj
 0001:00043374       ___acrt_RoUninitialize@0   00444374 f   libucrt:winapi_thunks.obj
 0001:000433a2       ___acrt_can_use_vista_locale_apis 004443a2 f   libucrt:winapi_thunks.obj
 0001:000433ad       ___acrt_eagerly_load_locale_apis 004443ad f   libucrt:winapi_thunks.obj
 0001:000433e4       ___acrt_initialize_winapi_thunks 004443e4 f   libucrt:winapi_thunks.obj
 0001:000433f8       ___acrt_uninitialize_winapi_thunks 004443f8 f   libucrt:winapi_thunks.obj
 0001:0004342e       __isctype_l                0044442e f   libucrt:isctype.obj
 0001:000434f9       ___pctype_func             004444f9 f   libucrt:ctype.obj
 0001:0004351d       _iswctype                  0044451d f   libucrt:iswctype.obj
 0001:00043586       _fegetround                00444586 f   libucrt:fegetround.obj
 0001:000435a0       ___ascii_strnicmp          004445a0 f   libucrt:_strnicm.obj
 0001:000437f0       ___acrt_LCMapStringA       004447f0 f   libucrt:lcmapstringa.obj
 0001:00043839       __freea_crt                00444839 f i libucrt:lcmapstringa.obj
 0001:00043859       ___acrt_initialize_locks   00444859 f   libucrt:locks.obj
 0001:0004389a       ___acrt_lock               0044489a f   libucrt:locks.obj
 0001:000438b1       ___acrt_uninitialize_locks 004448b1 f   libucrt:locks.obj
 0001:000438e2       ___acrt_unlock             004448e2 f   libucrt:locks.obj
 0001:000438f9       ___acrt_app_verifier_enabled 004448f9 f   libucrt:peb_access.obj
 0001:0004390b       ___acrt_is_secure_process  0044490b f   libucrt:peb_access.obj
 0001:0004391e       ___acrt_get_begin_thread_init_policy 0044491e f   libucrt:win_policies.obj
 0001:00043958       ___acrt_get_process_end_policy 00444958 f   libucrt:win_policies.obj
 0001:0004397f       ?__acrt_stdio_allocate_stream@@YA?AV__crt_stdio_stream@@XZ 0044497f f   libucrt:stream.obj
 0001:000439e8       ?__acrt_stdio_free_stream@@YAXV__crt_stdio_stream@@@Z 004449e8 f   libucrt:stream.obj
 0001:00043ae5       ??$__acrt_stdio_parse_mode@D@@YA?AU__acrt_stdio_stream_mode@@QBD@Z 00444ae5 f i libucrt:openfile.obj
 0001:00043d92       ?__acrt_stdio_parse_mode_D@@YA_NAAU__acrt_stdio_stream_mode@@@Z 00444d92 f i libucrt:openfile.obj
 0001:00043dad       ?__acrt_stdio_parse_mode_T@@YA_NAAU__acrt_stdio_stream_mode@@@Z 00444dad f i libucrt:openfile.obj
 0001:00043dcc       ?__acrt_stdio_parse_mode_b@@YA_NAAU__acrt_stdio_stream_mode@@@Z 00444dcc f i libucrt:openfile.obj
 0001:00043dec       ?__acrt_stdio_parse_mode_c@@YA_NAAU__acrt_stdio_stream_mode@@AA_N@Z 00444dec f i libucrt:openfile.obj
 0001:00043e0e       ?__acrt_stdio_parse_mode_n@@YA_NAAU__acrt_stdio_stream_mode@@AA_N@Z 00444e0e f i libucrt:openfile.obj
 0001:00043e30       ?__acrt_stdio_parse_mode_plus@@YA_NAAU__acrt_stdio_stream_mode@@AA_N@Z 00444e30 f i libucrt:openfile.obj
 0001:00043e66       ?__acrt_stdio_parse_mode_t@@YA_NAAU__acrt_stdio_stream_mode@@@Z 00444e66 f i libucrt:openfile.obj
 0001:00043e86       ?__acrt_stdio_parse_mode_x@@YA_NAAU__acrt_stdio_stream_mode@@@Z 00444e86 f i libucrt:openfile.obj
 0001:00043ea6       __openfile                 00444ea6 f   libucrt:openfile.obj
 0001:00044653       __write                    00445653 f   libucrt:write.obj
 0001:0004468a       __write_internal           0044568a f   libucrt:write.obj
 0001:0004479b       __write_nolock             0044579b f   libucrt:write.obj
 0001:00044c04       ___acrt_stdio_flush_and_write_narrow_nolock 00445c04 f   libucrt:_flsbuf.obj
 0001:00044ca0       __close_internal           00445ca0 f   libucrt:close.obj
 0001:00044d43       __close_nolock             00445d43 f   libucrt:close.obj
 0001:00044d73       __close_nolock_internal    00445d73 f   libucrt:close.obj
 0001:00044e13       ___acrt_stdio_free_buffer_nolock 00445e13 f   libucrt:_freebuf.obj
 0001:00044e53       __calloc_base              00445e53 f   libucrt:calloc_base.obj
 0001:00044f48       ___acrt_MultiByteToWideChar 00445f48 f   libucrt:multibytetowidechar.obj
 0001:00044f72       __wremove                  00445f72 f   libucrt:wunlink.obj
 0001:00044f9a       __dsign                    00445f9a f   libucrt:nan.obj
 0001:00044faa       __errcode                  00445faa f   libucrt:fpexcept.obj
 0001:00044fde       __except1                  00445fde f   libucrt:fpexcept.obj
 0001:000450ac       __handle_exc               004460ac f   libucrt:fpexcept.obj
 0001:0004532c       __raise_exc                0044632c f   libucrt:fpexcept.obj
 0001:0004534f       __raise_exc_ex             0044634f f   libucrt:fpexcept.obj
 0001:00045640       __set_errno_from_matherr   00446640 f   libucrt:fpexcept.obj
 0001:00045671       __umatherr                 00446671 f   libucrt:fpexcept.obj
 0001:00045711       __decomp                   00446711 f   libucrt:util.obj
 0001:000457e3       __set_exp                  004467e3 f   libucrt:util.obj
 0001:00045810       __sptype                   00446810 f   libucrt:util.obj
 0001:00045873       ___set_fpsr_sse2           00446873 f   libucrt:fpctrl.obj
 0001:000458f3       __clrfp                    004468f3 f   libucrt:fpctrl.obj
 0001:00045904       __ctrlfp                   00446904 f   libucrt:fpctrl.obj
 0001:0004592e       __set_statfp               0044692e f   libucrt:fpctrl.obj
 0001:00045987       __statfp                   00446987 f   libucrt:fpctrl.obj
 0001:00045997       __fcloseall                00446997 f   libucrt:closeall.obj
 0001:00045a42       ___acrt_initialize_sse2    00446a42 f   libucrt:mathfcns.obj
 0001:00045a52       __modf_default             00446a52 f   libucrt:modf.obj
 0001:00045b56       ___libm_error_support      00446b56 f   libucrt:libm_error.obj
 0001:00045fed       _mbstowcs_s                00446fed f   libucrt:mbstowcs.obj
 0001:000463a6       __wcstombs_s_l             004473a6 f   libucrt:wcstombs.obj
 0001:000463e4       __wrename                  004473e4 f   libucrt:wrename.obj
 0001:000465b9       __lseeki64                 004475b9 f   libucrt:lseek.obj
 0001:000465f9       __lseeki64_internal        004475f9 f   libucrt:lseek.obj
 0001:00046617       __lseeki64_nolock          00447617 f   libucrt:lseek.obj
 0001:00046657       __lseeki64_nolock_internal 00447657 f   libucrt:lseek.obj
 0001:00046b51       __read                     00447b51 f   libucrt:read.obj
 0001:00046c6a       __read_nolock              00447c6a f   libucrt:read.obj
 0001:00047097       __commit                   00448097 f   libucrt:commit.obj
 0001:000472a3       ___acrt_stdio_refill_and_read_narrow_nolock 004482a3 f   libucrt:_filbuf.obj
 0001:000472ae       ___acrt_initialize_timeset 004482ae f   libucrt:timeset.obj
 0001:000472e3       ___daylight                004482e3 f   libucrt:timeset.obj
 0001:000472e9       ___dstbias                 004482e9 f   libucrt:timeset.obj
 0001:000472ef       ___timezone                004482ef f   libucrt:timeset.obj
 0001:000472f5       ___tzname                  004482f5 f   libucrt:timeset.obj
 0001:000472fb       ___wide_tzname             004482fb f   libucrt:timeset.obj
 0001:00047301       __get_daylight             00448301 f   libucrt:timeset.obj
 0001:0004732d       __get_dstbias              0044832d f   libucrt:timeset.obj
 0001:00047359       __get_timezone             00448359 f   libucrt:timeset.obj
 0001:00047c44       ___tzset                   00448c44 f   libucrt:tzset.obj
 0001:00047ca1       __isindst                  00448ca1 f   libucrt:tzset.obj
 0001:00047d85       ___acrt_WideCharToMultiByte 00448d85 f   libucrt:widechartomultibyte.obj
 0001:00048e4c       __Wcsftime_l               00449e4c f   libucrt:wcsftime.obj
 0001:00048fac       ___sys_errlist             00449fac f   libucrt:syserr.obj
 0001:00048fb2       ___sys_nerr                00449fb2 f   libucrt:syserr.obj
 0001:00048fb8       ___acrt_lowio_create_handle_array 00449fb8 f   libucrt:osfinfo.obj
 0001:00049033       ___acrt_lowio_destroy_handle_array 0044a033 f   libucrt:osfinfo.obj
 0001:00049068       ___acrt_lowio_ensure_fh_exists 0044a068 f   libucrt:osfinfo.obj
 0001:00049106       ___acrt_lowio_lock_fh      0044a106 f   libucrt:osfinfo.obj
 0001:00049129       ___acrt_lowio_set_os_handle 0044a129 f   libucrt:osfinfo.obj
 0001:000491bb       ___acrt_lowio_unlock_fh    0044a1bb f   libucrt:osfinfo.obj
 0001:000491de       __alloc_osfhnd             0044a1de f   libucrt:osfinfo.obj
 0001:000492f1       __free_osfhnd              0044a2f1 f   libucrt:osfinfo.obj
 0001:00049382       __get_osfhandle            0044a382 f   libucrt:osfinfo.obj
 0001:00049404       ??$__acrt_convert_wcs_mbs_cp@_WDV<lambda_28bda7af82a03b66c1cb3803a755f95d>@@U__crt_win32_buffer_internal_dynamic_resizing@@@@YAHQB_WAAV?$__crt_win32_buffer@DU__crt_win32_buffer_internal_dynamic_resizing@@@@ABV<lambda_28bda7af82a03b66c1cb3803a755f95d>@@I@Z 0044a404 f i libucrt:argv_wildcards.obj
 0001:000499a2       ?allocate@?$__crt_win32_buffer@DU__crt_win32_buffer_internal_dynamic_resizing@@@@QAEHI@Z 0044a9a2 f i libucrt:argv_wildcards.obj
 0001:00049a65       ___acrt_expand_narrow_argv_wildcards 0044aa65 f   libucrt:argv_wildcards.obj
 0001:00049a70       ___acrt_GetModuleFileNameA 0044aa70 f   libucrt:getmodulefilenamea.obj
 0001:0004a08d       ___acrt_initialize_multibyte 0044b08d f   libucrt:mbctype.obj
 0001:0004a0d5       ___acrt_update_thread_multibyte_data 0044b0d5 f   libucrt:mbctype.obj
 0001:0004a0e8       __setmbcp_nolock           0044b0e8 f   libucrt:mbctype.obj
 0001:0004a33d       __ismbblead                0044b33d f   libucrt:ismbbyte.obj
 0001:0004a355       ___acrt_initialize_command_line 0044b355 f   libucrt:argv_data.obj
 0001:0004a36e       _wcscpy_s                  0044b36e f   libucrt:wcscpy_s.obj
 0001:0004a409       ___dcrt_get_narrow_environment_from_os 0044b409 f   libucrt:get_environment_from_os.obj
 0001:0004a4a9       ___dcrt_get_wide_environment_from_os 0044b4a9 f   libucrt:get_environment_from_os.obj
 0001:0004a8b2       ___dcrt_set_variable_in_wide_environment_nolock 0044b8b2 f   libucrt:setenv.obj
 0001:0004a8bd       __recalloc_base            0044b8bd f   libucrt:recalloc.obj
 0001:0004a92a       ___acrt_initialize_heap    0044b92a f   libucrt:heap_handle.obj
 0001:0004a93b       ___acrt_uninitialize_heap  0044b93b f   libucrt:heap_handle.obj
 0001:0004a945       ___acrt_execute_initializers 0044b945 f   libucrt:shared_initialization.obj
 0001:0004a9ad       ___acrt_execute_uninitializers 0044b9ad f   libucrt:shared_initialization.obj
 0001:0004a9de       _wcscat_s                  0044b9de f   libucrt:wcscat_s.obj
 0001:0004ab1b       _wcsncpy_s                 0044bb1b f   libucrt:wcsncpy_s.obj
 0001:0004ab26       ___acrt_initialize_fmode   0044bb26 f   libucrt:txtmode.obj
 0001:0004ab3c       ____lc_codepage_func       0044bb3c f   libucrt:initctype.obj
 0001:0004ab61       ___acrt_locale_initialize_ctype 0044bb61 f   libucrt:initctype.obj
 0001:0004afbe       ___acrt_locale_free_monetary 0044bfbe f   libucrt:initmon.obj
 0001:0004b0bc       ___acrt_locale_initialize_monetary 0044c0bc f   libucrt:initmon.obj
 0001:0004b41d       ___acrt_locale_free_numeric 0044c41d f   libucrt:initnum.obj
 0001:0004b486       ___acrt_locale_initialize_numeric 0044c486 f   libucrt:initnum.obj
 0001:0004b944       ___acrt_locale_free_time   0044c944 f   libucrt:inittime.obj
 0001:0004ba28       ___acrt_locale_initialize_time 0044ca28 f   libucrt:inittime.obj
 0001:0004bb8b       _wcsncat_s                 0044cb8b f   libucrt:wcsncat_s.obj
 0001:0004bb96       _wcscspn                   0044cb96 f   libucrt:wcscspn.obj
 0001:0004bbef       _wcspbrk                   0044cbef f   libucrt:wcspbrk.obj
 0001:0004bc3d       ___acrt_GetStringTypeA     0044cc3d f   libucrt:getstringtypea.obj
 0001:0004bd3e       ___acrt_add_locale_ref     0044cd3e f   libucrt:locale_refcounting.obj
 0001:0004bdbb       ___acrt_free_locale        0044cdbb f   libucrt:locale_refcounting.obj
 0001:0004bf03       ___acrt_locale_add_lc_time_reference 0044cf03 f   libucrt:locale_refcounting.obj
 0001:0004bf2c       ___acrt_locale_free_lc_time_if_unreferenced 0044cf2c f   libucrt:locale_refcounting.obj
 0001:0004bf5d       ___acrt_locale_release_lc_time_reference 0044cf5d f   libucrt:locale_refcounting.obj
 0001:0004bf86       ___acrt_release_locale_ref 0044cf86 f   libucrt:locale_refcounting.obj
 0001:0004c007       ___acrt_update_thread_locale_data 0044d007 f   libucrt:locale_refcounting.obj
 0001:0004c088       __updatetlocinfoEx_nolock  0044d088 f   libucrt:locale_refcounting.obj
 0001:0004c7cf       ___acrt_get_qualified_locale 0044d7cf f   libucrt:get_qualified_locale.obj
 0001:0004d144       ___acrt_get_qualified_locale_downlevel 0044e144 f   libucrt:getqloc_downlevel.obj
 0001:0004d3db       __clearfp                  0044e3db f   libucrt:ieee87.obj
 0001:0004d4b9       __control87                0044e4b9 f   libucrt:ieee87.obj
 0001:0004d909       ___acrt_fp_strflt_to_string 0044e909 f   libucrt:_fptostr.obj
 0001:0004da03       ___acrt_fltout             0044ea03 f   libucrt:cfout.obj
 0001:0004efeb       ?__c32rtomb_utf8@__crt_mbstring@@YAIPAD_UPAU_Mbstatet@@AAV__crt_cached_ptd_host@@@Z 0044ffeb f   libucrt:c32rtomb.obj
 0001:0004f0c7       ?__mbrtowc_utf8@__crt_mbstring@@YAIPA_WPBDIPAU_Mbstatet@@AAV__crt_cached_ptd_host@@@Z 004500c7 f   libucrt:mbrtowc.obj
 0001:0004f10a       ?__mbsrtowcs_utf8@__crt_mbstring@@YAIPA_WPAPBDIPAU_Mbstatet@@AAV__crt_cached_ptd_host@@@Z 0045010a f   libucrt:mbrtowc.obj
 0001:0004f212       __isatty                   00450212 f   libucrt:isatty.obj
 0001:0004f2b8       ___acrt_DownlevelLCIDToLocaleName 004502b8 f   libucrt:lcidtoname_downlevel.obj
 0001:0004f35b       ___acrt_DownlevelLocaleNameToLCID 0045035b f   libucrt:lcidtoname_downlevel.obj
 0001:0004f387       ___acrt_GetStringTypeW     00450387 f   libucrt:getstringtypew.obj
 0001:0004f669       ___acrt_fenv_get_common_round_control 00450669 f   libucrt:_fenvutils.obj
 0001:0004f68b       ___acrt_fenv_get_control   0045068b f   libucrt:_fenvutils.obj
 0001:0004f70b       ___acrt_fenv_get_status    0045070b f   libucrt:_fenvutils.obj
 0001:0004f7b5       ___acrt_fenv_set_control   004507b5 f   libucrt:_fenvutils.obj
 0001:0004f830       ___acrt_fenv_set_status    00450830 f   libucrt:_fenvutils.obj
 0001:0004f92c       ___strncnt                 0045092c f   libucrt:strncnt.obj
 0001:0004f948       ___ascii_wcsnicmp          00450948 f   libucrt:wcsnicmp.obj
 0001:0004f997       __towlower_internal        00450997 f i libucrt:wcsnicmp.obj
 0001:0004f9d6       __wcsnicmp                 004509d6 f   libucrt:wcsnicmp.obj
 0001:0004fa22       __wcsnicmp_l               00450a22 f   libucrt:wcsnicmp.obj
 0001:000500df       __sopen_nolock             004510df f   libucrt:open.obj
 0001:0005014d       __sopen_s                  0045114d f   libucrt:open.obj
 0001:0005016d       __wsopen_nolock            0045116d f   libucrt:open.obj
 0001:00050497       __putwch_nolock            00451497 f   libucrt:putwch.obj
 0001:000504c9       ___acrt_stdio_allocate_buffer_nolock 004514c9 f   libucrt:_getbuf.obj
 0001:00050525       __copysign                 00451525 f   libucrt:ieeemisc.obj
 0001:00050548       __fpclass                  00451548 f   libucrt:ieeemisc.obj
 0001:000505ec       __frnd                     004515ec f   libucrt:frnd.obj
 0001:00050600       ?__wcsrtombs_utf8@__crt_mbstring@@YAIPADPAPB_WIPAU_Mbstatet@@AAV__crt_cached_ptd_host@@@Z 00451600 f   libucrt:wcrtomb.obj
 0001:000508a0       __wgetenv_s                004518a0 f   libucrt:getenv.obj
 0001:000508ab       ___ascii_wcsicmp           004518ab f   libucrt:wcsicmp.obj
 0001:000508e8       __wcsicmp                  004518e8 f   libucrt:wcsicmp.obj
 0001:00050931       __wcsicmp_l                00451931 f   libucrt:wcsicmp.obj
 0001:00050aa0       _strncpy_s                 00451aa0 f   libucrt:strncpy_s.obj
 0001:00050aab       __mbsdec                   00451aab f   libucrt:mbsdec.obj
 0001:00050ac2       __mbsdec_l                 00451ac2 f   libucrt:mbsdec.obj
 0001:00050b5e       __wcsnicoll                00451b5e f   libucrt:wcsnicol.obj
 0001:00050bcb       __wcsnicoll_l              00451bcb f   libucrt:wcsnicol.obj
 0001:00050c8b       __msize_base               00451c8b f   libucrt:msize.obj
 0001:00050cbe       __realloc_base             00451cbe f   libucrt:realloc_base.obj
 0001:00050e06       ___acrt_GetLocaleInfoA     00451e06 f   libucrt:getlocaleinfoa.obj
 0001:000510e4       __itow_s                   004520e4 f   libucrt:xtoa.obj
 0001:00051117       _fegetenv                  00452117 f   libucrt:fegetenv.obj
 0001:00051134       _fesetenv                  00452134 f   libucrt:fesetenv.obj
 0001:00051180       _feholdexcept              00452180 f   libucrt:feholdexcept.obj
 0001:000511d0       __CIlog10                  004521d0 f   libucrt:log10_impl.obj
 0001:0005120b       __CIlog10_default          0045220b f   libucrt:log10_impl.obj
 0001:0005121f       __log10_default            0045221f     libucrt:log10_impl.obj
 0001:000512e0       _ceil                      004522e0 f   libucrt:ceil_pentium4.obj
 0001:00051320       __ceil_pentium4            00452320 f   libucrt:ceil_pentium4.obj
 0001:000513fd       ?reset_and_return@__crt_mbstring@@YAIIPAU_Mbstatet@@@Z 004523fd f   libucrt:common_utf8.obj
 0001:00051411       ?return_illegal_sequence@__crt_mbstring@@YAIPAU_Mbstatet@@AAV__crt_cached_ptd_host@@@Z 00452411 f   libucrt:common_utf8.obj
 0001:00051433       ?__mbrtoc32_utf8@__crt_mbstring@@YAIPA_UPBDIPAU_Mbstatet@@AAV__crt_cached_ptd_host@@@Z 00452433 f   libucrt:mbrtoc32.obj
 0001:000515e4       __towlower_l               004525e4 f   libucrt:towlower.obj
 0001:000516b8       ??0__crt_seek_guard@@QAE@H_J@Z 004526b8 f i libucrt:chsize.obj
 0001:00051705       __chsize_nolock            00452705 f   libucrt:chsize.obj
 0001:0005173c       __chsize_nolock_internal   0045273c f   libucrt:chsize.obj
 0001:000518f2       ___dcrt_lowio_ensure_console_output_initialized 004528f2 f   libucrt:initcon.obj
 0001:00051911       ___dcrt_terminate_console_output 00452911 f   libucrt:initcon.obj
 0001:00051928       ___dcrt_write_console      00452928 f   libucrt:initcon.obj
 0001:0005197d       ?__c16rtomb_utf8@__crt_mbstring@@YAIPAD_SPAU_Mbstatet@@AAV__crt_cached_ptd_host@@@Z 0045297d f   libucrt:c16rtomb.obj
 0001:00051a27       ___acrt_CompareStringW     00452a27 f   libucrt:comparestringw.obj
 0001:00051a90       __CIlog10_pentium4         00452a90 f   libucrt:log10_pentium4.obj
 0001:00051aa8       __log10_pentium4           00452aa8     libucrt:log10_pentium4.obj
 0001:00051d40       __fFEXP                    00452d40 f   libucrt:87tran.obj
 0001:00051d97       __rtinfpopse               00452d97     libucrt:87tran.obj
 0001:00051d99       __rtinfnpopse              00452d99     libucrt:87tran.obj
 0001:00051da9       __fFLN                     00452da9     libucrt:87tran.obj
 0001:00051e5e       __rtinfpop                 00452e5e     libucrt:87tran.obj
 0001:00051e60       __rtinfnpop                00452e60     libucrt:87tran.obj
 0001:00051e70       __rtforexpinf              00452e70 f   libucrt:87tran.obj
 0001:00051e7d       __ffexpm1                  00452e7d     libucrt:87tran.obj
 0001:00051f30       __trandisp1                00452f30 f   libucrt:87disp.obj
 0001:00051fa5       __trandisp2                00452fa5 f   libucrt:87disp.obj
 0001:0005203f       __rttospopde               0045303f     libucrt:87disp.obj
 0001:00052044       __rttospop                 00453044     libucrt:87disp.obj
 0001:00052050       __rtnospop                 00453050 f   libucrt:87disp.obj
 0001:00052060       __rttosnpop                00453060 f   libucrt:87disp.obj
 0001:00052061       __rtnospopde               00453061     libucrt:87disp.obj
 0001:00052068       __rtzeropop                00453068     libucrt:87disp.obj
 0001:0005206a       __rtzeronpop               0045306a     libucrt:87disp.obj
 0001:00052070       __rtzerospop               00453070 f   libucrt:87disp.obj
 0001:0005207d       __rtonepop                 0045307d     libucrt:87disp.obj
 0001:00052080       __rtonenpop                00453080 f   libucrt:87disp.obj
 0001:00052090       __tosnan1                  00453090 f   libucrt:87disp.obj
 0001:000520c0       __nosnan2                  004530c0 f   libucrt:87disp.obj
 0001:000520d0       __tosnan2                  004530d0 f   libucrt:87disp.obj
 0001:00052100       __nan2                     00453100 f   libucrt:87disp.obj
 0001:00052140       __rtindfpop                00453140 f   libucrt:87disp.obj
 0001:00052142       __rtindfnpop               00453142     libucrt:87disp.obj
 0001:00052153       __rttosnpopde              00453153     libucrt:87disp.obj
 0001:00052160       __rtatan2inf               00453160 f   libucrt:87disp.obj
 0001:0005217d       __rtchsifneg               0045317d     libucrt:87disp.obj
 0001:00052190       __twoToTOS                 00453190 f   libucrt:common.obj
 0001:000521a5       __load_CW                  004531a5 f   libucrt:common.obj
 0001:000521bc       __convertTOStoQNaN         004531bc f   libucrt:common.obj
 0001:000521d5       __fload_withFB             004531d5 f   libucrt:common.obj
 0001:00052218       __checkTOS_withFB          00453218 f   libucrt:common.obj
 0001:0005222e       __fast_exit                0045322e f   libucrt:common.obj
 0001:0005223b       __math_exit                0045323b f   libucrt:common.obj
 0001:00052265       __check_overflow_exit      00453265 f   libucrt:common.obj
 0001:00052279       __check_range_exit         00453279 f   libucrt:common.obj
 0001:00052320       __startTwoArgErrorHandling 00453320 f   libucrt:genexcep.obj
 0001:00052337       __startOneArgErrorHandling 00453337 f   libucrt:genexcep.obj
 0001:00052373       __ceil_default             00453373 f   libucrt:ceil.obj
 0001:00052431       ___acrt_LCMapStringW       00453431 f   libucrt:lcmapstringw.obj
 0001:0005246f       __d_inttype                0045346f f   libucrt:powhlp.obj
 0001:000524d7       __powhlp                   004534d7 f   libucrt:powhlp.obj
 0001:00052602       __87except                 00453602 f   libucrt:87except.obj
 0001:00052720       __FindPESection            00453720 f   LIBCMT:pesect.obj
 0001:00052770       __IsNonwritableInCurrentImage 00453770 f   LIBCMT:pesect.obj
 0001:00052830       __ValidateImageBase        00453830 f   LIBCMT:pesect.obj
 0001:00052861       __EH_epilog3               00453861 f   LIBCMT:ehprolg3.obj
 0001:00052875       __EH_prolog3               00453875 f   LIBCMT:ehprolg3.obj
 0001:000528a8       __EH_prolog3_catch         004538a8 f   LIBCMT:ehprolg3.obj
 0001:000528e0       @_guard_check_icall@4      004538e0 f i LIBCMT:checkcfg.obj
 0001:000528f0       __aulldiv                  004538f0 f   LIBCMT:ulldiv.obj
 0001:00052960       __aullrem                  00453960 f   LIBCMT:ullrem.obj
 0001:000529e0       __alldiv                   004539e0 f   LIBCMT:lldiv.obj
 0001:00052a90       __allrem                   00453a90 f   LIBCMT:llrem.obj
 0001:00052b50       __allmul                   00453b50 f   LIBCMT:llmul.obj
 0001:00052b90       __allshl                   00453b90 f   LIBCMT:llshl.obj
 0001:00052bb0       __aullshr                  00453bb0 f   LIBCMT:ullshr.obj
 0001:00052bd0       __alloca_probe             00453bd0 f   LIBCMT:chkstk.obj
 0001:00052bd0       __chkstk                   00453bd0 f   LIBCMT:chkstk.obj
 0001:00052c00       __alloca_probe_16          00453c00 f   LIBCMT:alloca16.obj
 0001:00052c16       __alloca_probe_8           00453c16     LIBCMT:alloca16.obj
 0001:00052c30       __ftol2_sse                00453c30 f   LIBCMT:ftol2.obj
 0001:00052c40       __ftoi2                    00453c40 f   LIBCMT:ftol2.obj
 0001:00052cbc       _memcmp                    00453cbc f   libvcruntime:memcmp.obj
 0001:00054344       _wcschr                    00455344 f   libvcruntime:wcschr.obj
 0001:000543e5       _SDL_ShowSimpleMessageBox  004553e5 f   SDL2:SDL2.dll
 0001:000543eb       _SDL_SetMainReady          004553eb f   SDL2:SDL2.dll
 0001:000543f1       _SDL_iconv_string          004553f1 f   SDL2:SDL2.dll
 0001:000543f7       _SDL_wcslen                004553f7 f   SDL2:SDL2.dll
 0001:000543fd       _SDL_calloc                004553fd f   SDL2:SDL2.dll
 0001:00054403       __filter_x86_sse2_floating_point_exception 00455403 f   LIBCMT:x86_exception_filter.obj
 0001:00054403       __filter_x86_sse2_floating_point_exception_default 00455403 f   LIBCMT:x86_exception_filter.obj
 0001:00054520       ?rendershadow@@YAXHHHHABUvec@@0@Z 00455520 f   rendercubes.obj
 0001:00054f70       ?rendershadow_tris@@YAXHH_NPAUsqr@@1@Z 00455f70 f   rendercubes.obj
 0001:00054ff0       ?rendershadow_tri@@YAXPAUsqr@@HHHHHH@Z 00455ff0 f   rendercubes.obj
 0001:00055360       ?resetcubes@@YAXXZ         00456360 f   rendercubes.obj
 0001:000553c0       ?render_square@@YAXHMMMMHHHHHPAUsqr@@0_NH@Z 004563c0 f   rendercubes.obj
 0001:000559d0       ?render_tris@@YAXHHH_NPAUsqr@@11111@Z 004569d0 f   rendercubes.obj
 0001:00055a90       ?render_2tris@@YAXPAUsqr@@0HHHHHH000@Z 00456a90 f   rendercubes.obj
 0001:00055ef0       ?render_flatdelta@@YAXHHHHMMMMPAUsqr@@000_N@Z 00456ef0 f   rendercubes.obj
 0001:00056480       ?render_flat@@YAXHHHHHPAUsqr@@000_N@Z 00457480 f   rendercubes.obj
 0001:00056b00       ?finishstrips@@YAXXZ       00457b00 f   rendercubes.obj
 0001:00056bb0       ?editfocusdetails@@YA_NPAUsqr@@@Z 00457bb0 f   rendercubes.obj
 0001:00056c40       ?mipstats@@YAXQBH@Z        00457c40 f   rendercubes.obj
 0001:00056c80       ?cubetypename@@YAPBDH@Z    00457c80 f   rendercubes.obj
 0001:00056cc0       ?addstrip@@YAXHHHH@Z       00457cc0 f   rendercubes.obj
 0001:00056e60       ?renderstrips@@YAXXZ       00457e60 f   rendercubes.obj
 0001:00057010       ?renderstripssky@@YAXXZ    00458010 f   rendercubes.obj
 0001:000571e0       ?setupstrips@@YAXXZ        004581e0 f   rendercubes.obj
 0001:00057310       ?gl_drawframe@@YAXHHMMH@Z  00458310 f   rendergl.obj
 0001:00058260       ?readdepth@@YAXHHAAUvec@@@Z 00459260 f   rendergl.obj
 0001:000583e0       ?depthcorrect@@YAMM@Z      004593e0 f   rendergl.obj
 0001:00058400       ?readmatrices@@YAXXZ       00459400 f   rendergl.obj
 0001:00058670       ?outsidemap@@YA_NPAVphysent@@@Z 00459670 f   rendergl.obj
 0001:00058730       ?drawhudgun@@YAXXZ         00459730 f   rendergl.obj
 0001:00058810       ?sethudgunperspective@@YAX_N@Z 00459810 f   rendergl.obj
 0001:00058890       ?setperspective@@YAXMMMM@Z 00459890 f   rendergl.obj
 0001:000589e0       ?resetzones@@YAXXZ         004599e0 f   rendergl.obj
 0001:00058a00       ?drawzone@@YAXPAH0000@Z    00459a00 f   rendergl.obj
 0001:00058ae0       ?cleanupgl@@YAXXZ          00459ae0 f   rendergl.obj
 0001:00058b50       ?drawminimap@@YAXHH@Z      00459b50 f   rendergl.obj
 0001:00059370       ?var_minimapres@@YAXXZ     0045a370 f   rendergl.obj
 0001:00059380       ?clearminimap@@YAXXZ       0045a380 f   rendergl.obj
 0001:00059390       ?renderzones@@YAXM@Z       0045a390 f   rendergl.obj
 0001:00059550       ?drawreflection@@YAXMHHM_N@Z 0045a550 f   rendergl.obj
 0001:00059fc0       ?genclipmatrix@@YAXMMMM@Z  0045afc0 f   rendergl.obj
 0001:0005a120       ?transplayer@@YAXXZ        0045b120 f   rendergl.obj
 0001:0005a240       ?recomputecamera@@YAXXZ    0045b240 f   rendergl.obj
 0001:0005a5a0       ?resetcamera@@YAXXZ        0045b5a0 f   rendergl.obj
 0001:0005a5b0       ?var_fogcolour@@YAXXZ      0045b5b0 f   rendergl.obj
 0001:0005a5d0       ?var_fog@@YAXXZ            0045b5d0 f   rendergl.obj
 0001:0005a5f0       ?dynfov@@YAMXZ             0045b5f0 f   rendergl.obj
 0001:0005a6c0       ?fovchanged@@YAXXZ         0045b6c0 f   rendergl.obj
 0001:0005a740       ?var_scopefov@@YAXXZ       0045b740 f   rendergl.obj
 0001:0005a7c0       ?var_fov@@YAXXZ            0045b7c0 f   rendergl.obj
 0001:0005a840       ?fixresizedscreen@@YAXXZ   0045b840 f   rendergl.obj
 0001:0005a900       ?rendercursor@@YAXHHH@Z    0045b900 f   rendergl.obj
 0001:0005a980       ?renderaboveheadicon@@YAXPAVplayerent@@@Z 0045b980 f   rendergl.obj
 0001:0005abe0       ?framedquadtexture@@YAXIHHHHHH_N@Z 0045bbe0 f   rendergl.obj
 0001:0005ad80       ?blendbox@@YAXHHHH_NHPAUcolor@@@Z 0045bd80 f   rendergl.obj
 0001:0005b3c0       ?dot@@YAXHHM@Z             0045c3c0 f   rendergl.obj
 0001:0005b4e0       ?circle@@YAXIMMMMMMH@Z     0045c4e0 f   rendergl.obj
 0001:0005b610       ?quad@@YAXIABUvec@@0MMMM@Z 0045c610 f   rendergl.obj
 0001:0005b730       ?quad@@YAXIMMMMMMM@Z       0045c730 f   rendergl.obj
 0001:0005b8b0       ?box2d@@YAXHHHHH@Z         0045c8b0 f   rendergl.obj
 0001:0005b960       ?box@@YAXAAUblock@@MMMM@Z  0045c960 f   rendergl.obj
 0001:0005bab0       ?linestyle@@YAXMHHH@Z      0045cab0 f   rendergl.obj
 0001:0005bae0       ?line@@YAXHHHHPAUcolor@@@Z 0045cae0 f   rendergl.obj
 0001:0005bb70       ?line@@YAXHHMHHM@Z         0045cb70 f   rendergl.obj
 0001:0005bc60       ?disable@varray@@YAXXZ     0045cc60 f   rendergl.obj
 0001:0005bce0       ?end@varray@@YAHXZ         0045cce0 f   rendergl.obj
 0001:0005c270       ?defattrib@varray@@YAXHHI@Z 0045d270 f   rendergl.obj
 0001:0005c380       ?begin@varray@@YAXI@Z      0045d380 f   rendergl.obj
 0001:0005c390       ?enable@varray@@YAXXZ      0045d390 f   rendergl.obj
 0001:0005c3d0       ?disablepolygonoffset@@YAXI_N@Z 0045d3d0 f   rendergl.obj
 0001:0005c430       ?enablepolygonoffset@@YAXI@Z 0045d430 f   rendergl.obj
 0001:0005c4f0       ?gl_init@@YAXHHHH@Z        0045d4f0 f   rendergl.obj
 0001:0005c660       ?gl_checkextensions@@YAXXZ 0045d660 f   rendergl.obj
 0001:0005c8b0       ?glext@@YAXPAD@Z           0045d8b0 f   rendergl.obj
 0001:0005c930       ?hasext@@YA_NPBD0@Z        0045d930 f   rendergl.obj
 0001:0005c9a0       ?getprocaddress@@YAPAXPBD@Z 0045d9a0 f   rendergl.obj
 0001:0005c9f0       ?show_out_of_renderloop_progress@@YAXMPBDM0@Z 0045d9f0 f   renderhud.obj
 0001:0005ce70       ?loadingscreen@@YAXPBDZZ   0045de70 f   renderhud.obj
 0001:0005d0e0       ?damageblend@@YAXHPAX@Z    0045e0e0 f   renderhud.obj
 0001:0005d130       ?var_damagescreen@@YAXXZ   0045e130 f   renderhud.obj
 0001:0005d150       ?drawteamicons@@YAXHH_N@Z  0045e150 f   renderhud.obj
 0001:0005d240       ?drawradar@@YAXPAVplayerent@@HH@Z 0045e240 f   renderhud.obj
 0001:0005d260       ?drawradar_vicinity@@YAXPAVplayerent@@HH@Z 0045e260 f   renderhud.obj
 0001:0005e060       ?drawradar_showmap@@YAXPAVplayerent@@HH@Z 0045f060 f   renderhud.obj
 0001:0005ebc0       ?getradarpos@@YA?AUvec@@XZ 0045fbc0 f   renderhud.obj
 0001:0005ebf0       ?isattacking@@YA_NPAVplayerent@@@Z 0045fbf0 f   renderhud.obj
 0001:0005ec10       ?hudoutf@@YAXPBDZZ         0045fc10 f   renderhud.obj
 0001:0005ec60       ?drawradarent@@YAXMMMHHM_NPBDZZ 0045fc60 f   renderhud.obj
 0001:0005ef20       ?drawequipicons@@YAXPAVplayerent@@@Z 0045ff20 f   renderhud.obj
 0001:0005f0a0       ?getprevweaponsel@@YAHPAVplayerent@@@Z 004600a0 f   renderhud.obj
 0001:0005f0c0       ?drawktfindicator@@YAXPAVplayerent@@@Z 004600c0 f   renderhud.obj
 0001:0005f350       ?drawdmgindicator@@YAXPAVplayerent@@@Z 00460350 f   renderhud.obj
 0001:0005f590       ?updatedmgindicator@@YAXPAVplayerent@@AAUvec@@@Z 00460590 f   renderhud.obj
 0001:0005f650       ?drawcrosshair@@YAXPAVplayerent@@HPAUcolor@@M@Z 00460650 f   renderhud.obj
 0001:0005fd10       ?testkilleffect@@YAXXZ     00460d10 f   renderhud.obj
 0001:0005fd20       ?testnonlethalheadshot@@YAXXZ 00460d20 f   renderhud.obj
 0001:0005fd30       ?testheadshoteffect@@YAXXZ 00460d30 f   renderhud.obj
 0001:0005fd40       ?triggerheadshoteffect@@YAXXZ 00460d40 f   renderhud.obj
 0001:0005fd50       ?loadcrosshair@@YAXPBD0@Z  00460d50 f   renderhud.obj
 0001:0005fef0       ?loadcrosshairtexture@@YAPAUTexture@@PBD@Z 00460ef0 f   renderhud.obj
 0001:0005ff90       ?drawscope@@YAX_N@Z        00460f90 f   renderhud.obj
 0001:00060530       ?drawvoteicon@@YAXMMHH_N@Z 00461530 f   renderhud.obj
 0001:00060620       ?drawctficon@@YAXMMMHHMH@Z 00461620 f   renderhud.obj
 0001:00060770       ?drawradaricon@@YAXMMMHH@Z 00461770 f   renderhud.obj
 0001:00060850       ?drawequipicon@@YAXMMHH@Z  00461850 f   renderhud.obj
 0001:00060950       ?drawicon@@YAXPAUTexture@@MMMHHM@Z 00461950 f   renderhud.obj
 0001:000609b0       ?gl_drawhud@@YAXHHHHH_NH@Z 004619b0 f   renderhud.obj
 0001:000639a0       ?hudeditf@@YAXHPBDZZ       004649a0 f   renderhud.obj
 0001:00063bf0       ?loadallmapmodels@@YAXXZ   00464bf0 f   rendermodel.obj
 0001:00063d60       ?renderclientp@@YAXPAVplayerent@@@Z 00464d60 f   rendermodel.obj
 0001:00063fe0       ?updateclientname@@YAXPAVplayerent@@@Z 00464fe0 f   rendermodel.obj
 0001:00064060       ?getclientskin@@YAPBDPBD0@Z 00465060 f   rendermodel.obj
 0001:00064190       ?renderclient@@YAXPAVplayerent@@PBD1H@Z 00465190 f   rendermodel.obj
 0001:00064810       ?preload_mapmodels@@YA_N_N@Z 00465810 f   rendermodel.obj
 0001:00064940       ?preload_entmodels@@YAXXZ  00465940 f   rendermodel.obj
 0001:00064ce0       ?preload_playermodels@@YAXXZ 00465ce0 f   rendermodel.obj
 0001:00065090       ?loadskin@@YAXPBD0AAPAUTexture@@@Z 00466090 f   rendermodel.obj
 0001:000651c0       ?findanim@@YAHPBD@Z        004661c0 f   rendermodel.obj
 0001:000652f0       ?rendermodel@@YAXPBDHHMABUvec@@MMMMHPAVplayerent@@PAUmodelattach@@M@Z 004662f0 f   rendermodel.obj
 0001:00065ab0       ?clearmodelbatches@@YAXXZ  00466ab0 f   rendermodel.obj
 0001:00065b10       ?renderbatchedmodelshadow@@YAXPAUmodel@@AAUbatchedmodel@@@Z 00466b10 f   rendermodel.obj
 0001:00065cb0       ?renderbatchedmodel@@YAXPAUmodel@@AAUbatchedmodel@@@Z 00466cb0 f   rendermodel.obj
 0001:00065f10       ?addbatchedmodel@@YAAAUbatchedmodel@@PAUmodel@@@Z 00466f10 f   rendermodel.obj
 0001:00065f90       ?listallmapmodelattributes@@YAXPAPADH@Z 00466f90 f   rendermodel.obj
 0001:00066520       ?writemapmodelattributes@@YAXXZ 00467520 f   rendermodel.obj
 0001:000667a0       ?mmasort2@@YAHPAPAUmapmodelattributes@@0@Z 004677a0 f   rendermodel.obj
 0001:00066820       ?mmasort@@YAHPAPAUmapmodelattributes@@0@Z 00467820 f   rendermodel.obj
 0001:00066860       ?updatemapmodeldependencies@@YAXXZ 00467860 f   rendermodel.obj
 0001:00066b80       ?getmapmodelattributes@@YAXPAD0@Z 00467b80 f   rendermodel.obj
 0001:00066cc0       ?resetmdlnotfound@@YAXXZ   00467cc0 f   rendermodel.obj
 0001:00066d80       ?cleanupmodels@@YAXXZ      00467d80 f   rendermodel.obj
 0001:00066dd0       ?loadmodel@@YAPAUmodel@@PBDH_N@Z 00467dd0 f   rendermodel.obj
 0001:00067180       ?mapmodelregistryclear@@YAXXZ 00468180 f   rendermodel.obj
 0001:000672a0       ?mapmodelregister_@@YAXPAPADH@Z 004682a0 f   rendermodel.obj
 0001:00067380       ?setmodelattributes@@YAXPBDAAUmapmodelattributes@@@Z 00468380 f   rendermodel.obj
 0001:00067550       ?sortmapmodelslots@@YAXPAPADH@Z 00468550 f   rendermodel.obj
 0001:00067c80       ?tempmmunsort@@YAHPAUtempmmslot@@0@Z 00468c80 f   rendermodel.obj
 0001:00067ca0       ?tempmmsort@@YAHPAUtempmmslot@@0@Z 00468ca0 f   rendermodel.obj
 0001:00067cd0       ?tempmmcmp@@YAHPAUtempmmslot@@0@Z 00468cd0 f   rendermodel.obj
 0001:00067d60       ?editmapmodelslot@@YAXPAHPAD1111@Z 00468d60 f   rendermodel.obj
 0001:00067fd0       ?deletemapmodelslot@@YAXPAHPAD@Z 00468fd0 f   rendermodel.obj
 0001:00068220       ?mapmodelslotusage@@YAXPAH@Z 00469220 f   rendermodel.obj
 0001:00068480       ?getmminfo@@YAPAUmapmodelinfo@@H@Z 00469480 f   rendermodel.obj
 0001:000684a0       ?mapmodelreset@@YAXXZ      004694a0 f   rendermodel.obj
 0001:000684d0       ?mapmodel@@YAXPAH00PAD11@Z 004694d0 f   rendermodel.obj
 0001:00068720       ?mmshortname@@YAPBDPBD@Z   00469720 f   rendermodel.obj
 0001:00068740       ?mdlattribute@@YAXPAD0@Z   00469740 f   rendermodel.obj
 0001:00068820       ?mdlcachelimit@@YAXPAH@Z   00469820 f   rendermodel.obj
 0001:00068860       ?mdlshadowdist@@YAXPAH@Z   00469860 f   rendermodel.obj
 0001:000688b0       ?mdltrans@@YAXPAM00@Z      004698b0 f   rendermodel.obj
 0001:00068920       ?mdlscale@@YAXPAH@Z        00469920 f   rendermodel.obj
 0001:00068990       ?mdlalphablend@@YAXPAH@Z   00469990 f   rendermodel.obj
 0001:000689e0       ?mdlalphatest@@YAXPAH@Z    004699e0 f   rendermodel.obj
 0001:00068a30       ?mdltranslucent@@YAXPAH@Z  00469a30 f   rendermodel.obj
 0001:00068a80       ?mdlvertexlight@@YAXPAH@Z  00469a80 f   rendermodel.obj
 0001:00068ad0       ?mdlcullface@@YAXPAH@Z     00469ad0 f   rendermodel.obj
 0001:00068b20       ?md3emit@@YAXPAD0PAH1@Z    00469b20 f   rendermodel.obj
 0001:00068bd0       ?md3link@@YAXPAH0PAD@Z     00469bd0 f   rendermodel.obj
 0001:00068c60       ?md3anim@@YAXPADPAH1PAM@Z  00469c60 f   rendermodel.obj
 0001:00068cf0       ?md3skin@@YAXPAD0@Z        00469cf0 f   rendermodel.obj
 0001:00068ed0       ?md3load@@YAXPAD@Z         00469ed0 f   rendermodel.obj
 0001:00069000       ?md2emit@@YAXPAD0PAH1@Z    0046a000 f   rendermodel.obj
 0001:000690b0       ?md2tag@@YAXPAD0000@Z      0046a0b0 f   rendermodel.obj
 0001:000693e0       ?md2anim@@YAXPADPAH1PAM@Z  0046a3e0 f   rendermodel.obj
 0001:00069470       ?var_mdlstatcache@@YAXXZ   0046a470 f   rendermodel.obj
 0001:00069490       ?var_mdldyncache@@YAXXZ    0046a490 f   rendermodel.obj
 0001:000694b0       ?var_shadowyaw@@YAXXZ      0046a4b0 f   rendermodel.obj
 0001:00069500       ?renderclients@@YAXXZ      0046a500 f   rendermodel.obj
 0001:000695a0       ?startmodelbatches@@YAXXZ  0046a5a0 f   rendermodel.obj
 0001:000695c0       ?endmodelbatches@@YAX_N@Z  0046a5c0 f   rendermodel.obj
 0001:00069ad0       ?addshotline@@YAXPAVdynent@@ABUvec@@1@Z 0046aad0 f   renderparticles.obj
 0001:00069e80       ?addscorchmark@@YA_NAAUvec@@M@Z 0046ae80 f   renderparticles.obj
 0001:00069f70       ?addbullethole@@YA_NPAVdynent@@ABUvec@@1M_N@Z 0046af70 f   renderparticles.obj
 0001:0006a290       ?particle_fireball@@YAXHABUvec@@@Z 0046b290 f   renderparticles.obj
 0001:0006a2f0       ?particle_trail@@YAXHHABUvec@@0@Z 0046b2f0 f   renderparticles.obj
 0001:0006a4d0       ?particle_cube@@YAXHHHHH@Z 0046b4d0 f   renderparticles.obj
 0001:0006a670       ?particle_splash@@YAXHHHABUvec@@@Z 0046b670 f   renderparticles.obj
 0001:0006a790       ?particle_flash@@YAXHMMABUvec@@@Z 0046b790 f   renderparticles.obj
 0001:0006a7f0       ?newparticle@@YAXABUvec@@0HH@Z 0046b7f0 f   renderparticles.obj
 0001:0006a8f0       ?particlereset@@YAXXZ      0046b8f0 f   renderparticles.obj
 0001:0006a930       ?cleanupparticles@@YAXXZ   0046b930 f   renderparticles.obj
 0001:0006a960       ?particleinit@@YAXXZ       0046b960 f   renderparticles.obj
 0001:0006aa80       ?cleanupexplosion@@YAXXZ   0046ba80 f   renderparticles.obj
 0001:0006ab00       ?drawexplosion@@YAX_NMMMM@Z 0046bb00 f   renderparticles.obj
 0001:0006acc0       ?setupexplosion@@YAXXZ     0046bcc0 f   renderparticles.obj
 0001:0006b220       ?createexpmodtex@@YAIHM@Z  0046c220 f   renderparticles.obj
 0001:0006b770       ?particle_emit@@YAXHPAHHHABUvec@@@Z 0046c770 f   renderparticles.obj
 0001:0006b8b0       ?render_particles@@YAXHH@Z 0046c8b0 f   renderparticles.obj
 0001:0006dc70       ?enumigraphs@@YAXAAU?$vector@PBD@@PBDH@Z 0046ec70 f   rendertext.obj
 0001:0006dd90       ?_getigraph@@YAXPAD@Z      0046ed90 f   rendertext.obj
 0001:0006de20       ?getigraph@@YAHPBD@Z       0046ee20 f   rendertext.obj
 0001:0006de70       ?getusedigraph@@YAPAUigraph@@H@Z 0046ee70 f   rendertext.obj
 0001:0006de90       ?updateigraphs@@YAXXZ      0046ee90 f   rendertext.obj
 0001:0006e050       ?addigraph@@YAXPAD@Z       0046f050 f   rendertext.obj
 0001:0006e4a0       ?filterunrenderables@@YA_NPAD@Z 0046f4a0 f   rendertext.obj
 0001:0006e4f0       ?cutcolorstring@@YAXPADH@Z 0046f4f0 f   rendertext.obj
 0001:0006e590       ?reloadfonts@@YAXXZ        0046f590 f   rendertext.obj
 0001:0006e690       ?text_endcolumns@@YAXXZ    0046f690 f   rendertext.obj
 0001:0006e6d0       ?text_startcolumns@@YAXXZ  0046f6d0 f   rendertext.obj
 0001:0006eb00       ?render_igraphs@@YAXXZ     0046fb00 f   rendertext.obj
 0001:0006edf0       ?queue_igraph@@YAXHHH@Z    0046fdf0 f   rendertext.obj
 0001:0006efc0       ?getfont@@YAPAUfont@@PBD@Z 0046ffc0 f   rendertext.obj
 0001:0006f020       ?setfont@@YA_NPBD@Z        00470020 f   rendertext.obj
 0001:0006f040       ?fontskip@@YAXPAH@Z        00470040 f   rendertext.obj
 0001:0006f060       ?fontchar@@YAXPAH000@Z     00470060 f   rendertext.obj
 0001:0006f1d0       ?newfont@@YAXPAD0PAH11111@Z 004701d0 f   rendertext.obj
 0001:0006f3a0       ?draw_text@@YAXPBDHHHHHHHH@Z 004703a0 f   rendertext.obj
 0001:0006f8e0       ?text_width@@YAHPBD@Z      004708e0 f   rendertext.obj
 0001:0006f900       ?pushfont@@YAXPBD@Z        00470900 f   rendertext.obj
 0001:0006f9c0       ?popfont@@YAXXZ            004709c0 f   rendertext.obj
 0001:0006f9e0       ?text_bounds@@YAXPBDAAH1H@Z 004709e0 f   rendertext.obj
 0001:0006fcb0       ?draw_textf@@YAXPBDHHZZ    00470cb0 f   rendertext.obj
 0001:0006fd20       ?encodeigraphs@@YAXPADPBDH@Z 00470d20 f   rendertext.obj
 0001:000709d0       ?addshadowbox@@YA_NABUvec@@00ABUglmatrixf@@@Z 004719d0 f   shadow.obj
 0001:00071670       ?drawstencilshadows@@YAXXZ 00472670 f   shadow.obj
 0001:00071b40       ?sorttextureslots@@YAXPAPADH@Z 00472b40 f   texture.obj
 0001:00072720       ?tempslotunsort@@YAHPAUtemptexslot@@0@Z 00473720 f   texture.obj
 0001:00072740       ?tempslotsort@@YAHPAUtemptexslot@@0@Z 00473740 f   texture.obj
 0001:000727c0       ?texconfig_paste@@YAPAEPAXPAE@Z 004737c0 f   texture.obj
 0001:00072a30       ?texconfig_delete@@YAXPAX@Z 00473a30 f   texture.obj
 0001:00072a70       ?texconfig_copy@@YAPAXXZ   00473a70 f   texture.obj
 0001:00072b70       ?textureslotbyname@@YAXPAD@Z 00473b70 f   texture.obj
 0001:00072c60       ?gettextureorigin@@YAXPAD@Z 00473c60 f   texture.obj
 0001:00072d40       ?edittextureslot@@YAXPAHPAD1@Z 00473d40 f   texture.obj
 0001:00072ee0       ?deletetextureslot@@YAXPAHPAD1@Z 00473ee0 f   texture.obj
 0001:000732d0       ?textureslotusage@@YAXPAH@Z 004742d0 f   texture.obj
 0001:000733d0       ?testworldtexusage@@YA_NH@Z 004743d0 f   texture.obj
 0001:00073420       ?textureslotusagelist@@YAXPAD@Z 00474420 f   texture.obj
 0001:000735b0       ?textureslotusagegeometry@@YAXPAH00@Z 004745b0 f   texture.obj
 0001:000737d0       ?textureslotusagemapmodels@@YAXPAH@Z 004747d0 f   texture.obj
 0001:00073810       ?gettexturelist@@YAXPAD00@Z 00474810 f   texture.obj
 0001:00073fe0       ?guidetoggle@@YAXXZ        00474fe0 f   texture.obj
 0001:00074110       ?cleanuptmus@@YAXXZ        00475110 f   texture.obj
 0001:000742a0       ?colortmu@@YAXHMMMM@Z      004752a0 f   texture.obj
 0001:00074320       ?committmu@@YAXHAAUtmu@@@Z 00475320 f   texture.obj
 0001:000743f0       ?committmufunc@@YAX_NAAUtmufunc@@1@Z 004753f0 f   texture.obj
 0001:000744e0       ?parsetmufunc@@YAXAAUtmufunc@@PBD@Z 004754e0 f   texture.obj
 0001:000746b0       ?draw_envbox_face@@YAXMMMMMMMMMMMMMMMMMMMMPAUTexture@@@Z 004756b0 f   texture.obj
 0001:00074860       ?loadnotexture@@YAXPAD@Z   00475860 f   texture.obj
 0001:00074940       ?loadskymap@@YA_N_N@Z      00475940 f   texture.obj
 0001:00074b10       ?var_loadsky@@YAXXZ        00475b10 f   texture.obj
 0001:00074b20       ?reloadtextures@@YAXXZ     00475b20 f   texture.obj
 0001:00074c20       ?cleanuptextures@@YAXXZ    00475c20 f   texture.obj
 0001:00074e00       ?checktexturefilename@@YAXPBD@Z 00475e00 f   texture.obj
 0001:00074e60       ?_texture@@YAXAAUSlot@@PAMPAD@Z 00475e60 f   texture.obj
 0001:00075000       ?loadsurface@@YAIPBDAAH11H_N2M2@Z 00476000 f   texture.obj
 0001:000754d0       ?var_hirestextures@@YAXXZ  004764d0 f   texture.obj
 0001:000754f0       ?scalesurface@@YAXPAUSDL_Surface@@M@Z 004764f0 f   texture.obj
 0001:00075570       ?texdecal@@YAPAUSDL_Surface@@PAU1@@Z 00476570 f   texture.obj
 0001:000755f0       ?texformat@@YAIH@Z         004765f0 f   texture.obj
 0001:00075660       ?fixsurfaceformat@@YAPAUSDL_Surface@@PAU1@@Z 00476660 f   texture.obj
 0001:000757b0       ?fixcl@@YAHPAUSDL_Surface@@H@Z 004767b0 f   texture.obj
 0001:00075970       ?checkgrayscale@@YA_NPAUSDL_Surface@@@Z 00476970 f   texture.obj
 0001:000759e0       ?forcergbasurface@@YAPAUSDL_Surface@@PAU1@@Z 004769e0 f   texture.obj
 0001:00075a40       ?forcergbsurface@@YAPAUSDL_Surface@@PAU1@@Z 00476a40 f   texture.obj
 0001:00075a90       ?creatergbsurface@@YAPAUSDL_Surface@@HH@Z 00476a90 f   texture.obj
 0001:00075ac0       ?uploadtexture@@YAXIIHHIIPAXHH_N@Z 00476ac0 f   texture.obj
 0001:00075c60       ?resizetexture@@YAXHH_N0IAAH1@Z 00476c60 f   texture.obj
 0001:00075d80       ?formatsize@@YAHI@Z        00476d80 f   texture.obj
 0001:00075dc0       ?var_aniso@@YAXXZ          00476dc0 f   texture.obj
 0001:00075de0       ?var_bilinear@@YAXXZ       00476de0 f   texture.obj
 0001:00075e00       ?var_trilinear@@YAXXZ      00476e00 f   texture.obj
 0001:00075e20       ?var_texreduce@@YAXXZ      00476e20 f   texture.obj
 0001:00075e40       ?var_maxtexsize@@YAXXZ     00476e40 f   texture.obj
 0001:000774b0       ?reloadtexture@@YA_NAAUTexture@@@Z 004784b0 f   texture.obj
 0001:00077540       ?scaletexture@@YAXPAEIII0II@Z 00478540 f   texture.obj
 0001:00077cb0       ?gettextureslot@@YAPBDH@Z  00478cb0 f   texture.obj
 0001:00077d70       ?inittmus@@YAXXZ           00478d70 f   texture.obj
 0001:00077e10       ?textureload@@YAPAUTexture@@PBDH_N1M1@Z 00478e10 f   texture.obj
 0001:00077fc0       ?createtexture@@YAXHHHPAXH_N1I@Z 00478fc0 f   texture.obj
 0001:000781f0       ?draw_envbox@@YAXH@Z       004791f0 f   texture.obj
 0001:000786d0       ?setuptmu@@YAXHPBD0@Z      004796d0 f   texture.obj
 0001:00078790       ?resettmu@@YAXH@Z          00479790 f   texture.obj
 0001:000787f0       ?lookuptexture@@YAPAUTexture@@HPAU1@_N@Z 004797f0 f   texture.obj
 0001:00078b90       ?rewinddemo@@YAXPAD@Z      00479b90 f   client.obj
 0001:00078bd0       ?setminutesremaining@@YAXPAD@Z 00479bd0 f   client.obj
 0001:00078c00       ?shiftgametime@@YAXH@Z     00479c00 f   client.obj
 0001:00078c90       ?listdemos@@YAXXZ          00479c90 f   client.obj
 0001:00078cd0       ?getdemo@@YAXPAHPAD@Z      00479cd0 f   client.obj
 0001:00078d80       ?deleteservermap@@YAXPAD@Z 00479d80 f   client.obj
 0001:00078dd0       ?getmap@@YAXPAD0@Z         00479dd0 f   client.obj
 0001:00078f20       ?sendmap@@YAXPAD@Z         00479f20 f   client.obj
 0001:00079360       ?securemapcheck@@YA_NPBD_N@Z 0047a360 f   client.obj
 0001:000794c0       ?gets2c@@YAXXZ             0047a4c0 f   client.obj
 0001:000797a0       ?sendintro@@YAXXZ          0047a7a0 f   client.obj
 0001:000799f0       ?getbuildtype@@YAHXZ       0047a9f0 f   client.obj
 0001:00079a40       ?c2sinfo@@YAXPAVplayerent@@@Z 0047aa40 f   client.obj
 0001:0007a3e0       ?sendpackettoserv@@YAXHPAU_ENetPacket@@@Z 0047b3e0 f   client.obj
 0001:0007a410       ?addmsg@@YAXHPBDZZ         0047b410 f   client.obj
 0001:0007a780       ?cleanupclient@@YAXXZ      0047b780 f   client.obj
 0001:0007a7e0       ?current_version@@YAXPAD@Z 0047b7e0 f   client.obj
 0001:0007a820       ?whereami@@YAXXZ           0047b820 f   client.obj
 0001:0007a860       ?hudecho@@YAXPAD@Z         0047b860 f   client.obj
 0001:0007a910       ?echo@@YAXPAD@Z            0047b910 f   client.obj
 0001:0007a9a0       ?pm@@YAXPAD@Z              0047b9a0 f   client.obj
 0001:0007aa30       ?toserverme@@YAXPAD@Z      0047ba30 f   client.obj
 0001:0007aa50       ?toserver@@YAXPAD@Z        0047ba50 f   client.obj
 0001:0007aa70       ?_toserver@@YAXPADHH@Z     0047ba70 f   client.obj
 0001:0007ab70       ?trydisconnect@@YAXXZ      0047bb70 f   client.obj
 0001:0007ac00       ?disconnect@@YAXHH@Z       0047bc00 f   client.obj
 0001:0007ae50       ?modlanconnect@@YAXXZ      0047be50 f   client.obj
 0001:0007ae70       ?modconnectadmin@@YAXPADPAH0@Z 0047be70 f   client.obj
 0001:0007ae90       ?modconnectserv@@YAXPADPAH0@Z 0047be90 f   client.obj
 0001:0007aeb0       ?lanconnect@@YAXXZ         0047beb0 f   client.obj
 0001:0007aed0       ?connectadmin@@YAXPADPAH0@Z 0047bed0 f   client.obj
 0001:0007aef0       ?connectserv@@YAXPADPAH0@Z 0047bef0 f   client.obj
 0001:0007b080       ?connectserv_@@YAXPBDH0H@Z 0047c080 f   client.obj
 0001:0007b250       ?abortconnect@@YAXXZ       0047c250 f   client.obj
 0001:0007b290       ?throttle@@YAXXZ           0047c290 f   client.obj
 0001:0007b2c0       ?var_throttle_decel@@YAXXZ 0047c2c0 f   client.obj
 0001:0007b2f0       ?var_throttle_accel@@YAXXZ 0047c2f0 f   client.obj
 0001:0007b320       ?var_throttle_interval@@YAXXZ 0047c320 f   client.obj
 0001:0007b350       ?allowedittoggle@@YA_NXZ   0047c350 f   client.obj
 0001:0007b380       ?getclientnum@@YAHXZ       0047c380 f   client.obj
 0001:0007b3a0       ?multiplayer@@YA_NPBD@Z    0047c3a0 f   client.obj
 0001:0007b3f0       ?c2skeepalive@@YAXXZ       0047c3f0 f   client.obj
 0001:0007b490       ?serverextension@@YAXPAD0@Z 0047c490 f   clientgame.obj
 0001:0007b4f0       ?spectatecn@@YAXXZ         0047c4f0 f   clientgame.obj
 0001:0007b580       ?changefollowplayer@@YAXPAH@Z 0047c580 f   clientgame.obj
 0001:0007b590       ?togglespect@@YAXXZ        0047c590 f   clientgame.obj
 0001:0007b5f0       ?spectatemode@@YAXH@Z      0047c5f0 f   clientgame.obj
 0001:0007b980       ?setfollowplayer@@YAXH@Z   0047c980 f   clientgame.obj
 0001:0007ba70       ?spectate@@YAXXZ           0047ca70 f   clientgame.obj
 0001:0007bab0       ?refreshsopmenu@@YAXPAX_N@Z 0047cab0 f   clientgame.obj
 0001:0007bd00       ?setadmin@@YAXPAHPAD@Z     0047cd00 f   clientgame.obj
 0001:0007bd90       ?findcn@@YAXPAD@Z          0047cd90 f   clientgame.obj
 0001:0007bed0       ?getvita@@YAXPAH@Z         0047ced0 f   clientgame.obj
 0001:0007bef0       ?whois@@YAXPAH@Z           0047cef0 f   clientgame.obj
 0001:0007bfe0       ?cleanplayervotes@@YAXPAVplayerent@@@Z 0047cfe0 f   clientgame.obj
 0001:0007c010       ?cmd_pause@@YAXPAH@Z       0047d010 f   clientgame.obj
 0001:0007c0a0       ?gonext@@YAXPAH@Z          0047d0a0 f   clientgame.obj
 0001:0007c1b0       ?setnext@@YAXPAD0@Z        0047d1b0 f   clientgame.obj
 0001:0007c2d0       ?voteresult@@YAXH@Z        0047d2d0 f   clientgame.obj
 0001:0007c360       ?votecount@@YAXH@Z         0047d360 f   clientgame.obj
 0001:0007c380       ?callvoteerr@@YAXH@Z       0047d380 f   clientgame.obj
 0001:0007c3c0       ?callvotesuc@@YAXXZ        0047d3c0 f   clientgame.obj
 0001:0007c3f0       ?displayvote@@YAXPAUvotedisplayinfo@@@Z 0047d3f0 f   clientgame.obj
 0001:0007c4a0       ?vote@@YAHH@Z              0047d4a0 f   clientgame.obj
 0001:0007c570       ?scallvote@@YAXPAHPBD1@Z   0047d570 f   clientgame.obj
 0001:0007c750       ?newvotedisplayinfo@@YAPAUvotedisplayinfo@@PAVplayerent@@HPBD11@Z 0047d750 f   clientgame.obj
 0001:0007c7f0       ?votestring@@YAPADHPBD00@Z 0047d7f0 f   clientgame.obj
 0001:0007cc00       ?dropflag@@YAXXZ           0047dc00 f   clientgame.obj
 0001:0007cda0       ?flagmsg@@YAXHHHH@Z        0047dda0 f   clientgame.obj
 0001:0007d310       ?suicide@@YAXXZ            0047e310 f   clientgame.obj
 0001:0007d360       ?startmap@@YAXPBD_N1@Z     0047e360 f   clientgame.obj
 0001:0007d980       ?resetmap@@YAX_N@Z         0047e980 f   clientgame.obj
 0001:0007dc00       ?gamemodedesc@@YAXPAHPAD@Z 0047ec00 f   clientgame.obj
 0001:0007dce0       ?preparectf@@YAX_N@Z       0047ece0 f   clientgame.obj
 0001:0007deb0       ?zapplayerflags@@YAXPAVplayerent@@@Z 0047eeb0 f   clientgame.obj
 0001:0007df60       ?initflag@@YAXH@Z          0047ef60 f   clientgame.obj
 0001:0007e010       ?initclient@@YAXXZ         0047f010 f   clientgame.obj
 0001:0007e030       ?newclient@@YAPAVplayerent@@H@Z 0047f030 f   clientgame.obj
 0001:0007e150       ?timeupdate@@YAXHH@Z       0047f150 f   clientgame.obj
 0001:0007e2d0       ?silenttimeupdate@@YAXHH@Z 0047f2d0 f   clientgame.obj
 0001:0007e310       ?pstat_weap@@YAXPAH@Z      0047f310 f   clientgame.obj
 0001:0007e3e0       ?dokill@@YAXPAVplayerent@@0_NH@Z 0047f3e0 f   clientgame.obj
 0001:0007e780       ?dodamage@@YAXHPAVplayerent@@0H_N1@Z 0047f780 f   clientgame.obj
 0001:0007ea80       ?killmessage@@YAPBDH_N@Z   0047fa80 f   clientgame.obj
 0001:0007eb50       ?setkillmessage@@YAXPBD_N0@Z 0047fb50 f   clientgame.obj
 0001:0007eca0       ?tryrespawn@@YA_NXZ        0047fca0 f   clientgame.obj
 0001:0007edf0       ?respawnself@@YAXXZ        0047fdf0 f   clientgame.obj
 0001:0007efb0       ?spawnplayer@@YAXPAVplayerent@@@Z 0047ffb0 f   clientgame.obj
 0001:0007f010       ?findplayerstart@@YAXPAVplayerent@@_NH@Z 00480010 f   clientgame.obj
 0001:0007f420       ?gotoplayerstart@@YAXPAVplayerent@@PAUentity@@@Z 00480420 f   clientgame.obj
 0001:0007f490       ?nearestenemy@@YAMUvec@@H@Z 00480490 f   clientgame.obj
 0001:0007f590       ?updateworld@@YAXHH@Z      00480590 f   clientgame.obj
 0001:0007fb30       ?resetsleep@@YAX_N@Z       00480b30 f   clientgame.obj
 0001:0007fc00       ?addsleep_@@YAXPAHPAD0@Z   00480c00 f   clientgame.obj
 0001:0007fc20       ?addsleep@@YAXHPBD_N@Z     00480c20 f   clientgame.obj
 0001:0007fd40       ?showrespawntimer@@YAXXZ   00480d40 f   clientgame.obj
 0001:0007fe80       ?showhudtimer@@YA_NHHPBD_N@Z 00480e80 f   clientgame.obj
 0001:00080040       ?moveotherplayers@@YAXXZ   00481040 f   clientgame.obj
 0001:00080300       ?predictplayer@@YAXPAVplayerent@@_N@Z 00481300 f   clientgame.obj
 0001:00080490       ?movelocalplayer@@YAXXZ    00481490 f   clientgame.obj
 0001:00080520       ?freebotent@@YAXPAVbotent@@@Z 00481520 f   clientgame.obj
 0001:000805c0       ?newbotent@@YAPAVbotent@@XZ 004815c0 f   clientgame.obj
 0001:00080730       ?newplayerent@@YAPAVplayerent@@XZ 00481730 f   clientgame.obj
 0001:00080790       ?spawnstate@@YAXPAVplayerent@@@Z 00481790 f   clientgame.obj
 0001:00080820       ?deathstate@@YAXPAVplayerent@@@Z 00481820 f   clientgame.obj
 0001:00080a50       ?currentserver@@YAPBDH@Z   00481a50 f   clientgame.obj
 0001:00080c80       ?teaminfo@@YAXPBD0@Z       00481c80 f   clientgame.obj
 0001:00081080       ?playerinfolocal@@YAXPBD@Z 00482080 f   clientgame.obj
 0001:000810a0       ?playerinfo@@YAXPAHPBD@Z   004820a0 f   clientgame.obj
 0001:00081af0       ?stopdemo@@YAXXZ           00482af0 f   clientgame.obj
 0001:00081d90       ?curmodeattr@@YAXPAD@Z     00482d90 f   clientgame.obj
 0001:00082120       ?_setskin@@YAHHH@Z         00483120 f   clientgame.obj
 0001:000821b0       ?benchme@@YAXXZ            004831b0 f   clientgame.obj
 0001:00082200       ?newteam@@YAXPAD@Z         00483200 f   clientgame.obj
 0001:000822a0       ?teamatoi@@YAHPBD@Z        004832a0 f   clientgame.obj
 0001:00082300       ?var_checkcurname@@YAXXZ   00483300 f   clientgame.obj
 0001:00082310       ?var_getcurname@@YAXXZ     00483310 f   clientgame.obj
 0001:00082360       ?newname@@YAXPBD@Z         00483360 f   clientgame.obj
 0001:00082450       ?clearmuted@@YAXPAD@Z      00483450 f   clientgame.obj
 0001:000824a0       ?listmuted@@YAXXZ          004834a0 f   clientgame.obj
 0001:00082700       ?muteplayer@@YAXPAH@Z      00483700 f   clientgame.obj
 0001:00082740       ?clearignored@@YAXPAH@Z    00483740 f   clientgame.obj
 0001:00082780       ?listignored@@YAXXZ        00483780 f   clientgame.obj
 0001:000829e0       ?ignore@@YAXPAH@Z          004839e0 f   clientgame.obj
 0001:00082a20       ?highlight@@YAPBDPBD@Z     00483a20 f   clientgame.obj
 0001:00082cf0       ?colorpj@@YAPADH@Z         00483cf0 f   clientgame.obj
 0001:00082d30       ?colorping@@YAPADH@Z       00483d30 f   clientgame.obj
 0001:00082d70       ?duplicatename@@YA_NPAVplayerent@@PAD@Z 00483d70 f   clientgame.obj
 0001:00082e80       ?setskin@@YAXPAVplayerent@@HH@Z 00483e80 f   clientgame.obj
 0001:00082ec0       ?getclientmode@@YAHXZ      00483ec0 f   clientgame.obj
 0001:00082ed0       ?mode@@YAXPAH@Z            00483ed0 f   clientgame.obj
 0001:00082ee0       ?zapplayer@@YAXAAPAVplayerent@@@Z 00483ee0 f   clientgame.obj
 0001:00082f30       ?clearvote@@YAXXZ          00483f30 f   clientgame.obj
 0001:00082f80       ?getclientmap@@YAPADXZ     00483f80 f   clientgame.obj
 0001:00082f90       ?callvote@@YAXHPBD00@Z     00483f90 f   clientgame.obj
 0001:000831f0       ?colorname@@YAPADPAVplayerent@@PADPBD@Z 004841f0 f   clientgame.obj
 0001:000833c0       ?getclient@@YAPAVplayerent@@H@Z 004843c0 f   clientgame.obj
 0001:000833f0       ?smoverviewflyforbidden@@YA_NXZ 004843f0 f   clientgame.obj
 0001:00083410       ?updatefollowplayer@@YAPAVplayerent@@H@Z 00484410 f   clientgame.obj
 0001:00083670       ?localservertoclient@@YAXHPAEH_N@Z 00484670 f   clients2c.obj
 0001:000836d0       ?receivefile@@YAXPAEH@Z    004846d0 f   clients2c.obj
 0001:00083b60       ?parsemessages@@YAXHPAVplayerent@@AAU?$databuf@E@@_N@Z 00484b60 f   clients2c.obj
 0001:000889d0       ?onChangeVote@@YAXHH@Z     004899d0 f   clients2c.obj
 0001:000889f0       ?onCallVote@@YAXHHPAD0@Z   004899f0 f   clients2c.obj
 0001:00088a20       ?parsepositions@@YAXAAU?$databuf@E@@@Z 00489a20 f   clients2c.obj
 0001:00089790       ?updatelagtime@@YAXPAVplayerent@@@Z 0048a790 f   clients2c.obj
 0001:000897e0       ?updateplayerpos@@YAXPAVplayerent@@@Z 0048a7e0 f   clients2c.obj
 0001:000898b0       ?changemapserv@@YA_NPADHHH@Z 0048a8b0 f   clients2c.obj
 0001:00089ac0       ?neterr@@YAXPBD@Z          0048aac0 f   clients2c.obj
 0001:00089af0       ?servertoclient@@YAXHPAEH_N@Z 0048aaf0 f   clients2c.obj
 0001:00089b50       ?clear@packetqueue@@QAEXXZ 0048ab50 f   packetqueue.obj
 0001:00089ba0       ??0packetqueue@@QAE@XZ     0048aba0 f   packetqueue.obj
 0001:00089bc0       ??1packetqueue@@QAE@XZ     0048abc0 f   packetqueue.obj
 0001:00089bd0       ?flushtolog@packetqueue@@QAE_NPBD@Z 0048abd0 f   packetqueue.obj
 0001:00089d50       ?queue@packetqueue@@QAEXPAU_ENetPacket@@@Z 0048ad50 f   packetqueue.obj
 0001:00089f00       ?initserver@@YAX_N@Z       0048af00 f   server.obj
 0001:0008a7a0       ?restartlogging@@YAXXZ     0048b7a0 f   server.obj
 0001:0008a870       ?quitproc@@YAXH@Z          0048b870 f   server.obj
 0001:0008a890       ?processmasterinput@@YAXPBDH0@Z 0048b890 f   server.obj
 0001:0008a8f0       ?extinfo_teamscorebuf@@YAXAAU?$databuf@E@@@Z 0048b8f0 f   server.obj
 0001:0008aad0       ?extinfo_statsbuf@@YAXAAU?$databuf@E@@HHAAIAAU_ENetAddress@@AAUENetBuffer@@HPAH@Z 0048bad0 f   server.obj
 0001:0008adc0       ?extinfo_cnbuf@@YAXAAU?$databuf@E@@H@Z 0048bdc0 f   server.obj
 0001:0008ae30       ?extping_uplinkstats@@YAXAAU?$databuf@E@@@Z 0048be30 f   server.obj
 0001:0008ae80       ?extping_maprot@@YAXAAU?$databuf@E@@@Z 0048be80 f   server.obj
 0001:0008aea0       ?extping_serverinfo@@YAXAAU?$databuf@E@@0@Z 0048bea0 f   server.obj
 0001:0008b020       ?extping_namelist@@YAXAAU?$databuf@E@@@Z 0048c020 f   server.obj
 0001:0008b0a0       ?getpongflags@@YAHI@Z      0048c0a0 f   server.obj
 0001:0008b130       ?cleanupserver@@YAXXZ      0048c130 f   server.obj
 0001:0008b1c0       ?serverslice@@YAXI@Z       0048c1c0 f   server.obj
 0001:0008c1c0       ?linequalitystats@@YAXH@Z  0048d1c0 f   server.obj
 0001:0008c4e0       ?loggamestatus@@YAXPBD@Z   0048d4e0 f   server.obj
 0001:0008cae0       ?sendworldstate@@YAXXZ     0048dae0 f   server.obj
 0001:0008cb50       ?resetserverifempty@@YAXXZ 0048db50 f   server.obj
 0001:0008cbb0       ?checkintermission@@YAXXZ  0048dbb0 f   server.obj
 0001:0008cd40       ?addclient@@YAAAUclient@@XZ 0048dd40 f   server.obj
 0001:0008ce80       ?process@@YAXPAU_ENetPacket@@HH@Z 0048de80 f   server.obj
 0001:00091ea0       ?polldeferredprocessing@@YAXXZ 00492ea0 f   server.obj
 0001:00092180       ?deferredprocessingthread@@YAHPAX@Z 00493180 f   server.obj
 0001:00092280       ?checktype@@YAHHPAUclient@@@Z 00493280 f   server.obj
 0001:00092300       ?forcedeath@@YAXPAUclient@@@Z 00493300 f   server.obj
 0001:00092360       ?sendwelcome@@YAXPAUclient@@H@Z 00493360 f   server.obj
 0001:00092400       ?welcomepacket@@YAXAAUpacketbuf@@H@Z 00493400 f   server.obj
 0001:000928b0       ?welcomeinitclient@@YAXAAUpacketbuf@@H@Z 004938b0 f   server.obj
 0001:00092910       ?sendinitclient@@YAXAAUclient@@@Z 00493910 f   server.obj
 0001:000929a0       ?putinitclient@@YAXAAUclient@@AAUpacketbuf@@@Z 004939a0 f   server.obj
 0001:00092a60       ?sendservinfo@@YAXAAUclient@@@Z 00493a60 f   server.obj
 0001:00092ae0       ?restorescore@@YA_NAAUclient@@@Z 00493ae0 f   server.obj
 0001:00092c20       ?sendresume@@YAXAAUclient@@_N@Z 00493c20 f   server.obj
 0001:00092c90       ?sendiplist@@YAXHH@Z       00493c90 f   server.obj
 0001:00092dc0       ?disconnect_client@@YAXHH@Z 00493dc0 f   server.obj
 0001:00092f50       ?senddisconnectedscores@@YAXH@Z 00493f50 f   server.obj
 0001:000930c0       ?changeclientrole@@YAXHHPAD_N@Z 004940c0 f   server.obj
 0001:000932d0       ?callvotepacket@@YAXHPAUvoteinfo@@@Z 004942d0 f   server.obj
 0001:000934f0       ?scallvote@@YA_NPAUvoteinfo@@PAU_ENetPacket@@@Z 004944f0 f   server.obj
 0001:00093a50       ?scallvoteerr@@YAXPAUvoteinfo@@H@Z 00494a50 f   server.obj
 0001:00093b50       ?scallvotesuc@@YAXPAUvoteinfo@@@Z 00494b50 f   server.obj
 0001:00093c50       ?svote@@YA_NHHPAU_ENetPacket@@@Z 00494c50 f   server.obj
 0001:00093d10       ?kick_abuser@@YAXHAAH0H@Z  00494d10 f   server.obj
 0001:00093d90       ?roleconf@@YAHH@Z          00494d90 f   server.obj
 0001:00093df0       ?sendserveropinfo@@YAXH@Z  00494df0 f   server.obj
 0001:00093e50       ?serveroperator@@YAHXZ     00494e50 f   server.obj
 0001:00093e80       ?getbantype@@YAHH@Z        00494e80 f   server.obj
 0001:00093f80       ?addgban@@YAXPBD@Z         00494f80 f   server.obj
 0001:00094100       ?checkgban@@YA_NI@Z        00495100 f   server.obj
 0001:00094130       ?cleargbans@@YAXXZ         00495130 f   server.obj
 0001:00094150       ?startgame@@YAXPBDHH_N@Z   00495150 f   server.obj
 0001:00094b20       ?startdemoplayback@@YAXPBD@Z 00495b20 f   server.obj
 0001:00094b40       ?resetserver@@YAXPBDHH@Z   00495b40 f   server.obj
 0001:00094d00       ?refillteams@@YA_N_NH@Z    00495d00 f   server.obj
 0001:00095050       ?shuffleteams@@YAXH@Z      00496050 f   server.obj
 0001:00095350       ?calcscores@@YAHXZ         00496350 f   server.obj
 0001:000954c0       ?calcscoresmatch@@YAHXZ    004964c0 f   server.obj
 0001:00095570       ?calcscoresvita@@YAHXZ     00496570 f   server.obj
 0001:00095630       ?updateclientteam@@YA_NHHH@Z 00496630 f   server.obj
 0001:00095b40       ?autospawncheck@@YAXXZ     00496b40 f   server.obj
 0001:00095c00       ?canspawn@@YAHPAUclient@@@Z 00496c00 f   server.obj
 0001:00095e00       ?updatesdesc@@YAXPBDPAU_ENetAddress@@@Z 00496e00 f   server.obj
 0001:00095ea0       ?updatedescallowed@@YA_NXZ 00496ea0 f   server.obj
 0001:00095ec0       ?processevents@@YAXXZ      00496ec0 f   server.obj
 0001:000960c0       ?clearevent@@YAXPAUclient@@@Z 004970c0 f   server.obj
 0001:00096150       ?processevent@@YAXPAUclient@@AAUakimboevent@@@Z 00497150 f   server.obj
 0001:00096190       ?processevent@@YAXPAUclient@@AAUreloadevent@@@Z 00497190 f   server.obj
 0001:00096340       ?processevent@@YAXPAUclient@@AAUpickupevent@@@Z 00497340 f   server.obj
 0001:000963a0       ?processevent@@YAXPAUclient@@AAUsuicideevent@@@Z 004973a0 f   server.obj
 0001:000963e0       ?processevent@@YAXPAUclient@@AAUshotevent@@@Z 004973e0 f   server.obj
 0001:000967c0       ?processevent@@YAXPAUclient@@AAUexplodeevent@@@Z 004977c0 f   server.obj
 0001:000969b0       ?serverdamage@@YAXPAUclient@@0HH_NABUvec@@@Z 004979b0 f   server.obj
 0001:00097060       ?checkitemspawns@@YAXH@Z   00498060 f   server.obj
 0001:000970e0       ?serverpickup@@YA_NHH@Z    004980e0 f   server.obj
 0001:00097410       ?spawntime@@YAHH@Z         00498410 f   server.obj
 0001:000974a0       ?numplayers@@YAHXZ         004984a0 f   server.obj
 0001:000975a0       ?sendvoicecomteam@@YAXHH@Z 004985a0 f   server.obj
 0001:00097710       ?sendteamtext@@YAXPADHH@Z  00498710 f   server.obj
 0001:000978d0       ?spamdetect@@YA_NPAUclient@@PAD@Z 004988d0 f   server.obj
 0001:00097a10       ?arenacheck@@YAXXZ         00498a10 f   server.obj
 0001:00097f40       ?distributespawns@@YAXXZ   00498f40 f   server.obj
 0001:00097fe0       ?distributeteam@@YAXH@Z    00498fe0 f   server.obj
 0001:00098140       ?cmpscore@@YAHPBH0@Z       00499140 f   server.obj
 0001:00098170       ?htf_forceflag@@YAXH@Z     00499170 f   server.obj
 0001:000983b0       ?resetflag@@YAXH@Z         004993b0 f   server.obj
 0001:000983d0       ?sdropflag@@YAXH@Z         004993d0 f   server.obj
 0001:000983f0       ?ctfreset@@YAXXZ           004993f0 f   server.obj
 0001:00098470       ?clienthasflag@@YAHH@Z     00499470 f   server.obj
 0001:000984d0       ?flagaction@@YAXHHH@Z      004994d0 f   server.obj
 0001:00098b40       ?flagmessage@@YAXHHHH@Z    00499b40 f   server.obj
 0001:00098bb0       ?sendflaginfo@@YAXHH@Z     00499bb0 f   server.obj
 0001:00098c70       ?flagdistance@@YA_NAAUsflaginfo@@H@Z 00499c70 f   server.obj
 0001:00098e30       ?check_ffire@@YAXPAUclient@@0H@Z 00499e30 f   server.obj
 0001:00098ee0       ?check_afk@@YAXXZ          00499ee0 f   server.obj
 0001:000990d0       ?putflaginfo@@YAXAAUpacketbuf@@H@Z 0049a0d0 f   server.obj
 0001:00099160       ?readdemo@@YAXXZ           0049a160 f   server.obj
 0001:00099260       ?setupdemoplayback@@YAXXZ  0049a260 f   server.obj
 0001:000995b0       ?checkdemotransmissions@@YAXXZ 0049a5b0 f   server.obj
 0001:00099810       ?senddemo@@YAXHH@Z         0049a810 f   server.obj
 0001:00099a70       ?listdemos@@YAXH@Z         0049aa70 f   server.obj
 0001:00099cd0       ?donedemosort@@YAHPAPAUdemo_s@@0@Z 0049acd0 f   server.obj
 0001:00099cf0       ?setupdemorecord@@YAXXZ    0049acf0 f   server.obj
 0001:0009a0f0       ?enddemorecord@@YAXXZ      0049b0f0 f   server.obj
 0001:0009a450       ?demorecord_beginintermission@@YAXXZ 0049b450 f   server.obj
 0001:0009a4f0       ?recordpacket@@YAXHPAU_ENetPacket@@@Z 0049b4f0 f   server.obj
 0001:0009a520       ?recordpacket@@YAXHPAXH@Z  0049b520 f   server.obj
 0001:0009a540       ?writedemo@@YAXHPAXH@Z     0049b540 f   server.obj
 0001:0009a690       ?demoworkerthread@@YAHPAX@Z 0049b690 f   server.obj
 0001:0009ac40       ?initdemoslot@@YAPAUdemo_s@@XZ 0049bc40 f   server.obj
 0001:0009b030       ?sendspawn@@YAXPAUclient@@@Z 0049c030 f   server.obj
 0001:0009b100       ?sendservmsgverbose@@YAXPBDH@Z 0049c100 f   server.obj
 0001:0009b120       ?sendservmsg@@YAXPBDH@Z    0049c120 f   server.obj
 0001:0009b140       ?sendf@@YAXHHPBDZZ         0049c140 f   server.obj
 0001:0009b900       ?findscore@@YAPAUsavedscore@@AAUclient@@_N@Z 0049c900 f   server.obj
 0001:0009bb30       ?findcnbyaddress@@YAHPAU_ENetAddress@@@Z 0049cb30 f   server.obj
 0001:0009bb70       ?setpausemode@@YAXH@Z      0049cb70 f   server.obj
 0001:0009bbe0       ?changemastermode@@YAXH@Z  0049cbe0 f   server.obj
 0001:0009bca0       ?changematchteamsize@@YAXH@Z 0049cca0 f   server.obj
 0001:0009bdd0       ?sendservermode@@YAH_N@Z   0049cdd0 f   server.obj
 0001:0009be10       ?numteamclients@@YAPAHH@Z  0049ce10 f   server.obj
 0001:0009be80       ?numactiveclients@@YAHXZ   0049ce80 f   server.obj
 0001:0009bed0       ?numnonlocalclients@@YAHXZ 0049ced0 f   server.obj
 0001:0009bee0       ?numlocalclients@@YAHXZ    0049cee0 f   server.obj
 0001:0009bef0       ?numclients@@YAHXZ         0049cef0 f   server.obj
 0001:0009bf00       ?countclients@@YAHH_N@Z    0049cf00 f   server.obj
 0001:0009bf50       ?getclientbysequence@@YAPAUclient@@H@Z 0049cf50 f   server.obj
 0001:0009bf90       ?buildworldstate@@YA_NXZ   0049cf90 f   server.obj
 0001:0009c430       ?sendpacket@@YAXHHPAU_ENetPacket@@H_N@Z 0049d430 f   server.obj
 0001:0009c550       ?cleanworldstate@@YAXPAU_ENetPacket@@@Z 0049d550 f   server.obj
 0001:0009c5f0       ?valid_client@@YA_NH@Z     0049d5f0 f   server.obj
 0001:0009c610       ?getservermap@@YAPAUservermap@@PBD@Z 0049d610 f   server.obj
 0001:0009c6a0       ?recalcgamesuggestions@servermaprot@@QAEPAUservermap@@H@Z 0049d6a0 f   server.obj
 0001:0009cc20       ?randommap@@YAPAUservermap@@XZ 0049dc20 f   server.obj
 0001:0009cc60       ?calcmappenalties@servermaprot@@QAEXXZ 0049dc60 f   server.obj
 0001:0009ce30       ?poll_serverthreads@@YAXXZ 0049de30 f   server.obj
 0001:0009d7b0       ?pushvitasforsaving@@YA_N_N@Z 0049e7b0 f   server.obj
 0001:0009d9e0       ?readvitas@@YAHPBD@Z       0049e9e0 f   server.obj
 0001:0009dae0       ?parsevitas@@YAHPADH@Z     0049eae0 f   server.obj
 0001:0009dfe0       ?addcc@vita_s@@QAEXPBD@Z   0049efe0 f   server.obj
 0001:0009e040       ?addip@vita_s@@QAEXI@Z     0049f040 f   server.obj
 0001:0009e080       ?addname@vita_s@@QAEXPBD@Z 0049f080 f   server.obj
 0001:0009e0e0       ?servparallfun@@YAXXZ      0049f0e0 f   server.obj
 0001:0009e130       ?initserverparameter@@YAXPBD0@Z 0049f130 f   server.obj
 0001:0009e1b0       ?initserverparameter@@YAXPBDH@Z 0049f1b0 f   server.obj
 0001:0009e1e0       ?addservparstr@@YA_NPBDHHH0PAD1P6AXXZ_N30@Z 0049f1e0 f   server.obj
 0001:0009e2a0       ?addservparint@@YAHPBDHHHQAPBDPAH2P6AXXZ_N40@Z 0049f2a0 f   server.obj
 0001:0009e360       ?findpattern@@YA_NPAD0@Z   0049f360 f   server.obj
 0001:0009e460       ?issimilar@@YA_NDD@Z       0049f460 f   server.obj
 0001:0009e520       ?filter_use_hx_modeinfo@@YAXXZ 0049f520 f   server.obj
 0001:0009e650       ?filterconfigset@@YAXPADPAX@Z 0049f650 f   server.obj
 0001:0009e770       ?parse@configsetvalues@@QAE_NPAD@Z 0049f770 f   server.obj
 0001:0009e870       ?add@configsetvalues@@QAEXU1@@Z 0049f870 f   server.obj
 0001:0009e8e0       ?readserverconfigsthread@@YAHPAX@Z 0049f8e0 f   server.obj
 0001:0009ed60       ?process@serverconfigfile@@QAEXXZ 0049fd60 f   server.obj
 0001:0009ee20       ?trypreload@serverconfigfile@@QAEXXZ 0049fe20 f   server.obj
 0001:0009ef30       ?isbusy@serverconfigfile@@QAE_NXZ 0049ff30 f   server.obj
 0001:0009ef50       ?load@serverconfigfile@@UAE_NXZ 0049ff50 f   server.obj
 0001:0009f120       ?init@serverconfigfile@@QAEXPBD_N@Z 004a0120 f   server.obj
 0001:0009f200       ?serverwritemap@@YA_NPBDHHHPAE@Z 004a0200 f   server.obj
 0001:0009f3b0       ?checklocalmap@@YAPBDPBD@Z 004a03b0 f   server.obj
 0001:0009f440       ?readmapsthread@@YAHPAX@Z  004a0440 f   server.obj
 0001:0009f9f0       ?tagmapfile@@YAXPBD0H@Z    004a09f0 f   server.obj
 0001:0009fa20       ?trymapfiles@@YAXPBD0H@Z   004a0a20 f   server.obj
 0001:0009fc00       ?getmapfilenameindex@@YAHPBD0@Z 004a0c00 f   server.obj
 0001:0009fc70       ?updateservermap@@YAXH_N@Z 004a0c70 f   server.obj
 0001:0009fd50       ?servermapsortweight@@YAHPAPAUservermap@@0@Z 004a0d50 f   server.obj
 0001:0009fd70       ?servermapsortname@@YAHPAPAUservermap@@0@Z 004a0d70 f   server.obj
 0001:0009fdb0       ?writevitas@@YAXPAUstream@@AAU?$vector@Uvitakey_s@@@@@Z 004a0db0 f   server.obj
 0001:000a0140       ?enddemoplayback@@YAXXZ    004a1140 f   server.obj
 0001:000a01f0       ?localdisconnect@@YAXXZ    004a11f0 f   server.obj
 0001:000a0240       ?localconnect@@YAXXZ       004a1240 f   server.obj
 0001:000a0320       ?localclienttoserver@@YAXHPAU_ENetPacket@@@Z 004a1320 f   server.obj
 0001:000a0370       ?writeservercfg@@YAXXZ     004a1370 f   serverbrowser.obj
 0001:000a04d0       ?updatefrommaster@@YAXPAH@Z 004a14d0 f   serverbrowser.obj
 0001:000a05e0       ?retrieveservers@@YAXAAU?$vector@D@@@Z 004a15e0 f   serverbrowser.obj
 0001:000a09c0       ?progress_callback_retrieveservers@@YAHPAXM@Z 004a19c0 f   serverbrowser.obj
 0001:000a0a10       ?clearservers@@YAXXZ       004a1a10 f   serverbrowser.obj
 0001:000a0ab0       ?serverinfokey@@YA_NPAXH_N@Z 004a1ab0 f   serverbrowser.obj
 0001:000a0b60       ?serverskey@@YA_NPAXH_N@Z  004a1b60 f   serverbrowser.obj
 0001:000a1120       ?refreshservers@@YAXPAX_N@Z 004a2120 f   serverbrowser.obj
 0001:000a2650       ?assignserverfavourites@@YA_NXZ 004a3650 f   serverbrowser.obj
 0001:000a2ab0       ?serverbrowseralternativeviews@@YAXH@Z 004a3ab0 f   serverbrowser.obj
 0001:000a2d00       ?favcatcheck@@YAPBDAAUserverinfo@@PBDPAD@Z 004a3d00 f   serverbrowser.obj
 0001:000a2ee0       ?favcatcheckkey@@YA_NAAUserverinfo@@PBD@Z 004a3ee0 f   serverbrowser.obj
 0001:000a3240       ?listfavcats@@YAXXZ        004a4240 f   serverbrowser.obj
 0001:000a3290       ?addfavcategory@@YAXPBD@Z  004a4290 f   serverbrowser.obj
 0001:000a36a0       ?favcatargname@@YAPBDPBDH@Z 004a46a0 f   serverbrowser.obj
 0001:000a3700       ?var_showonlyfavourites@@YAXXZ 004a4700 f   serverbrowser.obj
 0001:000a3730       ?matchplayername@@YA_NPBD@Z 004a4730 f   serverbrowser.obj
 0001:000a37a0       ?searchnickname@@YAXPBD@Z  004a47a0 f   serverbrowser.obj
 0001:000a3880       ?sicompare@@YAHPAPAUserverinfo@@0@Z 004a4880 f   serverbrowser.obj
 0001:000a3aa0       ?serversortprepare@@YAXXZ  004a4aa0 f   serverbrowser.obj
 0001:000a3b40       ?checkpings@@YAXXZ         004a4b40 f   serverbrowser.obj
 0001:000a4790       ?checkresolver@@YAXXZ      004a5790 f   serverbrowser.obj
 0001:000a4940       ?pingservers@@YAX_NPAUserverinfo@@@Z 004a5940 f   serverbrowser.obj
 0001:000a4c50       ?chooseextping@@YAHPAUserverinfo@@@Z 004a5c50 f   serverbrowser.obj
 0001:000a4f00       ?findserverinfo@@YAPAUserverinfo@@U_ENetAddress@@@Z 004a5f00 f   serverbrowser.obj
 0001:000a4f50       ?connectwithtimeout@@YAHIPBDAAU_ENetAddress@@@Z 004a5f50 f   serverbrowser.obj
 0001:000a5140       ?connectthread@@YAHPAX@Z   004a6140 f   serverbrowser.obj
 0001:000a5240       ?resolvercheck@@YA_NPAPBDPAU_ENetAddress@@@Z 004a6240 f   serverbrowser.obj
 0001:000a52f0       ?resolverquery@@YAXPBD@Z   004a62f0 f   serverbrowser.obj
 0001:000a5340       ?resolverclear@@YAXXZ      004a6340 f   serverbrowser.obj
 0001:000a5420       ?resolverstop@@YAXAAUresolverthread@@@Z 004a6420 f   serverbrowser.obj
 0001:000a5480       ?resolverinit@@YAXXZ       004a6480 f   serverbrowser.obj
 0001:000a5590       ?resolverloop@@YAHPAX@Z    004a6590 f   serverbrowser.obj
 0001:000a5790       ?getconnectedserverinfo@@YAPAUserverinfo@@XZ 004a6790 f   serverbrowser.obj
 0001:000a57f0       ?addserver@@YAXPBDHH@Z     004a67f0 f   serverbrowser.obj
 0001:000a5aa0       ?resolverwait@@YA_NPBDPAU_ENetAddress@@@Z 004a6aa0 f   serverbrowser.obj
 0001:000a5dd0       ?flushmasterinput@@YAXXZ   004a6dd0 f   serverms.obj
 0001:000a5fc0       ?flushmasteroutput@@YAXXZ  004a6fc0 f   serverms.obj
 0001:000a6040       ?processmasterinput@@YAXXZ 004a7040 f   serverms.obj
 0001:000a61b0       ?requestmasterf@@YA_NPBDZZ 004a71b0 f   serverms.obj
 0001:000a6270       ?requestmaster@@YA_NPBD@Z  004a7270 f   serverms.obj
 0001:000a62f0       ?disconnectmaster@@YAXXZ   004a72f0 f   serverms.obj
 0001:000a6350       ?connectmaster@@YAIXZ      004a7350 f   serverms.obj
 0001:000a6610       ?serverms@@YAXHHHPADHABU_ENetAddress@@PAH22222HPBDH@Z 004a7610 f   serverms.obj
 0001:000a6f40       ?servermsinit@@YAX_N@Z     004a7f40 f   serverms.obj
 0001:000a71c0       ?transformclipentities@@YAXXZ 004a81c0 f   editing.obj
 0001:000a76e0       ?selectionwalk@@YAXPAD00@Z 004a86e0 f   editing.obj
 0001:000a82b0       ?selectionflip@@YAXPAD@Z   004a92b0 f   editing.obj
 0001:000a8380       ?selectionrotate@@YAXPAH@Z 004a9380 f   editing.obj
 0001:000a8450       ?movemap@@YAXPAH00@Z       004a9450 f   editing.obj
 0001:000a8790       ?newent@@YAXPADPAM111111@Z 004a9790 f   editing.obj
 0001:000a8890       ?edittagclip@@YAXPAD@Z     004a9890 f   editing.obj
 0001:000a89a0       ?edittag@@YAXPAH@Z         004a99a0 f   editing.obj
 0001:000a8a50       ?var_fullbright@@YAXXZ     004a9a50 f   editing.obj
 0001:000a8a90       ?perlin@@YAXPAH00@Z        004a9a90 f   editing.obj
 0001:000a8c10       ?stairs@@YAXPAH0@Z         004a9c10 f   editing.obj
 0001:000a8cc0       ?slope@@YAXPAH0@Z          004a9cc0 f   editing.obj
 0001:000a8d90       ?arch@@YAXPAH@Z            004a9d90 f   editing.obj
 0001:000a8ea0       ?archvertex@@YAXPAH0PAD@Z  004a9ea0 f   editing.obj
 0001:000a8f20       ?setvdelta@@YAXPAH@Z       004a9f20 f   editing.obj
 0001:000a8fd0       ?equalize@@YAXPAH@Z        004a9fd0 f   editing.obj
 0001:000a9090       ?corner@@YAXXZ             004aa090 f   editing.obj
 0001:000a90a0       ?solid@@YAXPAH@Z           004aa0a0 f   editing.obj
 0001:000a90c0       ?heightfield@@YAXPAH@Z     004aa0c0 f   editing.obj
 0001:000a90e0       ?edittype@@YAXH@Z          004aa0e0 f   editing.obj
 0001:000a91f0       ?replace@@YAXXZ            004aa1f0 f   editing.obj
 0001:000a9370       ?settex@@YAXPAH0@Z         004aa370 f   editing.obj
 0001:000a9480       ?edittex@@YAXPAH0@Z        004aa480 f   editing.obj
 0001:000a95c0       ?renderhudtexturepreview@@YAXHH_N@Z 004aa5c0 f   editing.obj
 0001:000a9820       ?editheight@@YAXPAH0@Z     004aa820 f   editing.obj
 0001:000a98f0       ?editdrag@@YAX_N@Z         004aa8f0 f   editing.obj
 0001:000a99e0       ?edittexturestack@@YAXPADPAH@Z 004aa9e0 f   editing.obj
 0001:000a9a80       ?tofronttex@@YAXXZ         004aaa80 f   editing.obj
 0001:000a9ad0       ?paste@@YAXXZ              004aaad0 f   editing.obj
 0001:000a9e00       ?copy@@YAXXZ               004aae00 f   editing.obj
 0001:000aa0b0       ?resetcopybuffers@@YAXXZ   004ab0b0 f   editing.obj
 0001:000aa150       ?backupeditundo@@YAHAAU?$vector@E@@HH@Z 004ab150 f   editing.obj
 0001:000aa2a0       ?rlencodeundo@@YAHHAAU?$vector@E@@PAUblock@@@Z 004ab2a0 f   editing.obj
 0001:000aa4c0       ?restoreeditundo@@YAXAAU?$databuf@E@@@Z 004ab4c0 f   editing.obj
 0001:000aa6c0       ?editredo@@YAXXZ           004ab6c0 f   editing.obj
 0001:000aa7b0       ?gotoundolevel@@YAXPAD@Z   004ab7b0 f   editing.obj
 0001:000aa8d0       ?editundo@@YAXXZ           004ab8d0 f   editing.obj
 0001:000aa9c0       ?netblockpaste@@YAXABUblock@@HH_N@Z 004ab9c0 f   editing.obj
 0001:000ab1b0       ?gotoposition@@YAXPAD0000@Z 004ac1b0 f   editing.obj
 0001:000ab4e0       ?gotoentity@@YAXPAH@Z      004ac4e0 f   editing.obj
 0001:000ab620       ?restoreposition@@YAXAAUblock@@@Z 004ac620 f   editing.obj
 0001:000ab660       ?restoreposition@@YAXQAF@Z 004ac660 f   editing.obj
 0001:000ab730       ?makeundo@@YAXAAUblock@@@Z 004ac730 f   editing.obj
 0001:000ab780       ?storeposition@@YAXQAF@Z   004ac780 f   editing.obj
 0001:000ab7d0       ?pruneundos@@YAXH@Z        004ac7d0 f   editing.obj
 0001:000abb30       ?makesel@@YAX_N@Z          004acb30 f   editing.obj
 0001:000abc50       ?checkselections@@YAXXZ    004acc50 f   editing.obj
 0001:000abdb0       ?resetselections@@YAXXZ    004acdb0 f   editing.obj
 0001:000abdd0       ?addselection@@YAXHHHHH@Z  004acdd0 f   editing.obj
 0001:000abf30       ?noselection@@YA_NXZ       004acf30 f   editing.obj
 0001:000abf60       ?correctsel@@YA_NAAUblock@@@Z 004acf60 f   editing.obj
 0001:000abfc0       ?edittoggle@@YAXXZ         004acfc0 f   editing.obj
 0001:000abfd0       ?var_showeditingsettings@@YAXXZ 004acfd0 f   editing.obj
 0001:000ac010       ?var_editingsettingsvisibletime@@YAXXZ 004ad010 f   editing.obj
 0001:000ac070       ?editheightxy@@YAX_NHAAUblock@@@Z 004ad070 f   editing.obj
 0001:000ac1a0       ?edittexxy@@YAXHHAAUblock@@@Z 004ad1a0 f   editing.obj
 0001:000ac370       ?edittypexy@@YAXHAAUblock@@@Z 004ad370 f   editing.obj
 0001:000ac470       ?setvdeltaxy@@YAXHAAUblock@@@Z 004ad470 f   editing.obj
 0001:000ac580       ?editequalisexy@@YAX_NAAUblock@@@Z 004ad580 f   editing.obj
 0001:000ac810       ?edittagxy@@YAXHHAAUblock@@@Z 004ad810 f   editing.obj
 0001:000ac920       ?slopexy@@YAXHHAAUblock@@@Z 004ad920 f   editing.obj
 0001:000aca90       ?stairsxy@@YAXHHAAUblock@@@Z 004ada90 f   editing.obj
 0001:000acc10       ?selfliprotate@@YAXAAUblock@@H@Z 004adc10 f   editing.obj
 0001:000acec0       ?archxy@@YAXHPAHAAUblock@@@Z 004adec0 f   editing.obj
 0001:000ad000       ?netblockpastexy@@YAXPAU?$databuf@E@@HHHHH@Z 004ae000 f   editing.obj
 0001:000ad100       ?reseteditor@@YAXXZ        004ae100 f   editing.obj
 0001:000ad260       ?toggleedit@@YAX_N@Z       004ae260 f   editing.obj
 0001:000ad4a0       ?noteditmode@@YA_NPBD@Z    004ae4a0 f   editing.obj
 0001:000ad4f0       ?editinfo@@YAPADXZ         004ae4f0 f   editing.obj
 0001:000ad780       ?rendereditingsettings@@YAXXZ 004ae780 f   editing.obj
 0001:000adc20       ?renderhudtexturepreviews@@YAXXZ 004aec20 f   editing.obj
 0001:000adcb0       ?cursorupdate@@YAXXZ       004aecb0 f   editing.obj
 0001:000aebe0       ?perlinnoise_2D@@YAMMMHM@Z 004afbe0 f   rndmap.obj
 0001:000aed90       ?interpolatednoise@@YAMMMH@Z 004afd90 f   rndmap.obj
 0001:000aee90       ?interpolate@@YAMMMM@Z     004afe90 f   rndmap.obj
 0001:000aeee0       ?smoothednoise@@YAMHHH@Z   004afee0 f   rndmap.obj
 0001:000af160       ?noise@@YAMHHH@Z           004b0160 f   rndmap.obj
 0001:000af1b0       ?perlinarea@@YAXAAUblock@@HHH@Z 004b01b0 f   rndmap.obj
 0001:000af4b0       ?showmapstats@@YAXXZ       004b04b0 f   world.obj
 0001:000af4f0       ?mapareacheck@@YAXPAD@Z    004b04f0 f   world.obj
 0001:000af720       ?mapmrproper@@YAX_N@Z      004b0720 f   world.obj
 0001:000affd0       ?countperfectmips@@YAXHHHHPAH@Z 004b0fd0 f   world.obj
 0001:000b0090       ?newmap@@YAXPAH@Z          004b1090 f   world.obj
 0001:000b01e0       ?mapshrink@@YAXXZ          004b11e0 f   world.obj
 0001:000b0210       ?mapenlarge@@YAXXZ         004b1210 f   world.obj
 0001:000b0240       ?mapsize@@YAXXZ            004b1240 f   world.obj
 0001:000b02a0       ?sqrdefault@@YAXPAUsqr@@@Z 004b12a0 f   world.obj
 0001:000b02d0       ?setupworld@@YAXH@Z        004b12d0 f   world.obj
 0001:000b0370       ?nextplayerstart@@YAXPAH@Z 004b1370 f   world.obj
 0001:000b0530       ?scalelights@@YAXHH@Z      004b1530 f   world.obj
 0001:000b0680       ?scalecomp@@YAXAAEH@Z      004b1680 f   world.obj
 0001:000b06b0       ?enumtodoentities@@YAXXZ   004b16b0 f   world.obj
 0001:000b0770       ?addtodoentity@@YAXHPBD@Z  004b1770 f   world.obj
 0001:000b07f0       ?cleartodoentities@@YAXPBD@Z 004b17f0 f   world.obj
 0001:000b0930       ?enumentities@@YAXPAD@Z    004b1930 f   world.obj
 0001:000b09e0       ?editentity@@YAXPAPADH@Z   004b19e0 f   world.obj
 0001:000b0cf0       ?addentity@@YAXPAD@Z       004b1cf0 f   world.obj
 0001:000b0dc0       ?deleteentity@@YAXPAD@Z    004b1dc0 f   world.obj
 0001:000b0e90       ?clearents@@YAXPAD@Z       004b1e90 f   world.obj
 0001:000b0fa0       ?entset@@YAXPADPAM111111@Z 004b1fa0 f   world.obj
 0001:000b1040       ?findtype@@YAHPBD@Z        004b2040 f   world.obj
 0001:000b10c0       ?unlistdeletedentity@@YAXPAD@Z 004b20c0 f   world.obj
 0001:000b1190       ?getdeletedentities@@YAXXZ 004b2190 f   world.obj
 0001:000b1230       ?undelent@@YAXPAD@Z        004b2230 f   world.obj
 0001:000b1470       ?delent@@YAXXZ             004b2470 f   world.obj
 0001:000b1540       ?deletesoundentity@@YAXAAUentity@@@Z 004b2540 f   world.obj
 0001:000b15b0       ?getentattr@@YAXPAH0@Z     004b25b0 f   world.obj
 0001:000b16c0       ?getenttype@@YAXXZ         004b26c0 f   world.obj
 0001:000b16f0       ?entproperty@@YAXPAHPAM0@Z 004b26f0 f   world.obj
 0001:000b1960       ?intersectangular@@YA_NABUvec@@U1@1MAAM@Z 004b2960 f   world.obj
 0001:000b1a20       ?var_pointatent@@YAXXZ     004b2a20 f   world.obj
 0001:000b1a70       ?_pointatent@@YAX_N@Z      004b2a70 f   world.obj
 0001:000b1b00       ?closestenttype@@YAXPAD@Z  004b2b00 f   world.obj
 0001:000b1bc0       ?remipmore@@YAXABUblock@@H@Z 004b2bc0 f   world.obj
 0001:000b1c30       ?closestent@@YAHXZ         004b2c30 f   world.obj
 0001:000b1f90       ?remipgenerous@@YAXABUblock@@@Z 004b2f90 f   world.obj
 0001:000b2010       ?newentity@@YAXHHHHPBDMMMMMMM@Z 004b3010 f   world.obj
 0001:000b23e0       ?worldbordercheck@@YA_NHHHHHH@Z 004b33e0 f   world.obj
 0001:000b24a0       ?empty_world@@YA_NH_N@Z    004b34a0 f   world.obj
 0001:000b2b80       ?findentity@@YAHHHE@Z      004b3b80 f   world.obj
 0001:000b2be0       ?findentity@@YAHHH@Z       004b3be0 f   world.obj
 0001:000b2c30       ?calcworldvisibility@@YAXXZ 004b3c30 f   world.obj
 0001:000b3050       ?clearworldvisibility@@YAXXZ 004b4050 f   world.obj
 0001:000b3070       ?remip@@YAXABUblock@@H@Z   004b4070 f   world.obj
 0001:000b3590       ?loadallxmaps@@YAHXZ       004b4590 f   worldio.obj
 0001:000b38e0       ?loadxmap@@YAXPBD@Z        004b48e0 f   worldio.obj
 0001:000b3a50       ?writeallxmaps@@YAXXZ      004b4a50 f   worldio.obj
 0001:000b3ac0       ?writexmap@@YAXPAUxmap@@PBD@Z 004b4ac0 f   worldio.obj
 0001:000b3ba0       ?xmapfilename@@YAPADPBD0@Z 004b4ba0 f   worldio.obj
 0001:000b3bd0       ?restorexmap@@YAXPAPADH@Z  004b4bd0 f   worldio.obj
 0001:000b47a0       ?getxmapbynick@@YAPAUxmap@@PBDPAH_N@Z 004b57a0 f   worldio.obj
 0001:000b4830       ?xmapdescstring@@YAPBDPAUxmap@@_N@Z 004b5830 f   worldio.obj
 0001:000b48a0       ?xmapdelete@@YAXAAPAUxmap@@@Z 004b58a0 f   worldio.obj
 0001:000b48d0       ?validxmapname@@YA_NPBD@Z  004b58d0 f   worldio.obj
 0001:000b4980       ?hexbinwrite@@YAXPAUstream@@PAXH_N@Z 004b5980 f   worldio.obj
 0001:000b4a50       ?enumfiles@@YAXPAD0@Z      004b5a50 f   worldio.obj
 0001:000b4b50       ?getfiledesc@@YAPADPBD00@Z 004b5b50 f   worldio.obj
 0001:000b4f40       ?var_mapoverride_nostencilshadows@@YAXXZ 004b5f40 f   worldio.obj
 0001:000b4f80       ?var_mapoverride_limitwaveheight@@YAXXZ 004b5f80 f   worldio.obj
 0001:000b4fc0       ?var_mapoverride_nowaterreflect@@YAXXZ 004b5fc0 f   worldio.obj
 0001:000b5000       ?changemapflag@@YAXHH@Z    004b6000 f   worldio.obj
 0001:000b50e0       ?showmapdims@@YAXXZ        004b60e0 f   worldio.obj
 0001:000b5140       ?save_world9@@YAXPAD@Z     004b6140 f   worldio.obj
 0001:000b5560       ?cmp_npe@@YAHPBUnumbered_persistent_entity@@0@Z 004b6560 f   worldio.obj
 0001:000b5570       ?rebuildtexlists@@YAXXZ    004b6570 f   worldio.obj
 0001:000b5710       ?var_mapinfo_comment@@YAXXZ 004b6710 f   worldio.obj
 0001:000b5720       ?var_mapinfo_license@@YAXXZ 004b6720 f   worldio.obj
 0001:000b5730       ?mapartist@@YAXPAD@Z       004b6730 f   worldio.obj
 0001:000b5a00       ?modeinfo@@YAXPAD0@Z       004b6a00 f   worldio.obj
 0001:000b6370       ?getvantagepoint@@YA_NQAF@Z 004b7370 f   worldio.obj
 0001:000b6480       ?setvantagepoint@@YAXXZ    004b7480 f   worldio.obj
 0001:000b6700       ?clearvantagepoint@@YA_NXZ 004b7700 f   worldio.obj
 0001:000b6790       ?getcurrentmapconfig@@YAXAAU?$vector@D@@_N@Z 004b7790 f   worldio.obj
 0001:000b6a90       ?extractconfigfile@@YAXXZ  004b7a90 f   worldio.obj
 0001:000b6bc0       ?embedconfigfile@@YA_NXZ   004b7bc0 f   worldio.obj
 0001:000b6d40       ?packheaderextras@@YA?AU?$databuf@E@@H@Z 004b7d40 f   worldio.obj
 0001:000b7090       ?parseheaderextra@@YAX_NH@Z 004b8090 f   worldio.obj
 0001:000b7220       ?unpackheaderextra@@YAXPAEH@Z 004b8220 f   worldio.obj
 0001:000b7300       ?findheaderextra@@YAHH@Z   004b8300 f   worldio.obj
 0001:000b7330       ?listheaderextras@@YAXXZ   004b8330 f   worldio.obj
 0001:000b7390       ?deleteheaderextra@@YAXH@Z 004b8390 f   worldio.obj
 0001:000b73d0       ?voptimize@@YAXXZ          004b83d0 f   worldio.obj
 0001:000b7470       ?xmapbackup@@YAXPBD0@Z     004b8470 f   worldio.obj
 0001:000b7510       ?clearheaderextras@@YAXXZ  004b8510 f   worldio.obj
 0001:000b75a0       ?rldecodecubes@@YA_NAAU?$databuf@E@@PAUsqr@@HH_N@Z 004b85a0 f   worldio.obj
 0001:000b7950       ?rlencodecubes@@YAXAAU?$vector@E@@PAUsqr@@H_N@Z 004b8950 f   worldio.obj
 0001:000b7db0       ?setnames@@YAPAPBDPBD@Z    004b8db0 f   worldio.obj
 0001:000b7e90       ?load_world@@YAHPAD@Z      004b8e90 f   worldio.obj
 0001:000b94c0       ?writemap@@YAXPBDHPAE@Z    004ba4c0 f   worldio.obj
 0001:000b9610       ?writecfggz@@YAXPBDHHPAE@Z 004ba610 f   worldio.obj
 0001:000b96d0       ?gotovantagepoint@@YA_NXZ  004ba6d0 f   worldio.obj
 0001:000b9800       ?setmapinfo@@YAXPBD0@Z     004ba800 f   worldio.obj
 0001:000b98d0       ?save_world@@YAXPAD_N1@Z   004ba8d0 f   worldio.obj
 0001:000ba0f0       ?readmap@@YAPAEPBDPAH1@Z   004bb0f0 f   worldio.obj
 0001:000ba1c0       ?readmcfggz@@YAPAEPBDPAH1@Z 004bb1c0 f   worldio.obj
 0001:000ba300       ?automapconfig@@YAXXZ      004bb300 f   worldio.obj
 0001:000ba330       ?flagmapconfigerror@@YAXH@Z 004bb330 f   worldio.obj
 0001:000ba350       ?flagmapconfigchange@@YAXXZ 004bb350 f   worldio.obj
 0001:000ba3b0       ?adddynlight@@YAXPAVphysent@@ABUvec@@HHHEEE@Z 004bb3b0 f   worldlight.obj
 0001:000ba550       ?preparedynlight@@YAXAAUdlight@@@Z 004bb550 f   worldlight.obj
 0001:000ba6d0       ?var_ambient@@YAXXZ        004bb6d0 f   worldlight.obj
 0001:000ba710       ?postlightarea@@YAXABUblock@@@Z 004bb710 f   worldlight.obj
 0001:000ba7d0       ?postlightarealine@@YAXPAUsqr@@H@Z 004bb7d0 f   worldlight.obj
 0001:000ba9f0       ?calclightsource@@YAXABUpersistent_entity@@M_N@Z 004bb9f0 f   worldlight.obj
 0001:000bab50       ?lightray@@YAXMMABUpersistent_entity@@M_N@Z 004bbb50 f   worldlight.obj
 0001:000bb130       ?freeblockp@@YAXPAUblock@@@Z 004bc130 f   worldlight.obj
 0001:000bb140       ?blockcopy@@YAPAUblock@@ABU1@@Z 004bc140 f   worldlight.obj
 0001:000bb1f0       ?blockpaste@@YAXABUblock@@HH_NPAE@Z 004bc1f0 f   worldlight.obj
 0001:000bb370       ?blockpaste@@YAXABUblock@@@Z 004bc370 f   worldlight.obj
 0001:000bb450       ?freeblock@@YAXAAPAUblock@@@Z 004bc450 f   worldlight.obj
 0001:000bb470       ?blocktexusage@@YAXABUblock@@PAE@Z 004bc470 f   worldlight.obj
 0001:000bb4b0       ?fullbrightlight@@YAXH@Z   004bc4b0 f   worldlight.obj
 0001:000bb4f0       ?calclight@@YAXXZ          004bc4f0 f   worldlight.obj
 0001:000bb6e0       ?removedynlights@@YAXPAVphysent@@@Z 004bc6e0 f   worldlight.obj
 0001:000bb7a0       ?cleardynlights@@YAXXZ     004bc7a0 f   worldlight.obj
 0001:000bb7f0       ?dodynlights@@YAXXZ        004bc7f0 f   worldlight.obj
 0001:000bbac0       ?undodynlights@@YAXXZ      004bcac0 f   worldlight.obj
 0001:000bbc10       ?computeraytable@@YAXMMM@Z 004bcc10 f   worldocull.obj
 0001:000bbf80       ?toggleocull@@YAXXZ        004bcf80 f   worldocull.obj
 0001:000bbf90       ?isoccluded@@YAHMMMMM@Z    004bcf90 f   worldocull.obj
 0001:000bc3c0       ?disableraytable@@YAXXZ    004bd3c0 f   worldocull.obj
 0001:000bc400       ?distlod@@YAXAAH0HM@Z      004bd400 f   worldrender.obj
 0001:000bc470       ?render_seg_new@@YAXMMMHHHHH@Z 004bd470 f   worldrender.obj
 0001:000bd350       ?issemi@@YA_NHHHHHHH@Z     004be350 f   worldrender.obj
 0001:000bd440       ?render_wall@@YAXPAUsqr@@0HHHHH00_NH@Z 004be440 f   worldrender.obj
 0001:000bd820       ?lod_factor@@YAHXZ         004be820 f   worldrender.obj
 0001:000bd830       ?render_world@@YAXMMMMHHMMHH@Z 004be830 f   worldrender.obj
 0001:000bdc70       ?entstats_@@YAXXZ          004bec70 f   entities.obj
 0001:000be040       ?flagscore@@YAXH@Z         004bf040 f   entities.obj
 0001:000be070       ?flagreturn@@YAXH@Z        004bf070 f   entities.obj
 0001:000be0a0       ?flagpickup@@YAXH@Z        004bf0a0 f   entities.obj
 0001:000be120       ?var_nextsecondary@@YAXXZ  004bf120 f   entities.obj
 0001:000be240       ?var_nextprimary@@YAXXZ    004bf240 f   entities.obj
 0001:000be360       ?trypickupflag@@YAXHPAVplayerent@@@Z 004bf360 f   entities.obj
 0001:000be460       ?trypickup@@YAXHPAVplayerent@@@Z 004bf460 f   entities.obj
 0001:000be510       ?renderentarrow@@YAXABUentity@@ABUvec@@M@Z 004bf510 f   entities.obj
 0001:000be530       ?renderentarrow@@YAXABUentity@@ABUvec@@MQAM@Z 004bf530 f   entities.obj
 0001:000bea70       ?renderclip@@YAXHHHMMMMMH@Z 004bfa70 f   entities.obj
 0001:000bede0       ?renderent@@YAXAAUentity@@@Z 004bfde0 f   entities.obj
 0001:000bef30       ?var_edithideentmask@@YAXXZ 004bff30 f   entities.obj
 0001:000bef40       ?clampentityattributes@@YAXAAUpersistent_entity@@@Z 004bff40 f   entities.obj
 0001:000bf070       ?toucheditingsettings@@YAX_N@Z 004c0070 f   entities.obj
 0001:000bf0f0       ?formatentityattributes@@YAPBDABUpersistent_entity@@_N@Z 004c00f0 f   entities.obj
 0001:000bf4a0       ?resetpickups@@YAXH@Z      004c04a0 f   entities.obj
 0001:000bf560       ?setpickupspawn@@YAXH_N@Z  004c0560 f   entities.obj
 0001:000bf590       ?pickupeffects@@YAXHPAVplayerent@@@Z 004c0590 f   entities.obj
 0001:000bf7d0       ?flagstolen@@YAXHH@Z       004c07d0 f   entities.obj
 0001:000bf820       ?flagdropped@@YAXHMMM@Z    004c0820 f   entities.obj
 0001:000bfb20       ?flaginbase@@YAXH@Z        004c0b20 f   entities.obj
 0001:000bfb90       ?flagidle@@YAXH@Z          004c0b90 f   entities.obj
 0001:000bfbb0       ?checkitems@@YAXPAVplayerent@@@Z 004c0bb0 f   entities.obj
 0001:000c0050       ?syncentchanges@@YAX_N@Z   004c1050 f   entities.obj
 0001:000c0110       ?tryflagdrop@@YAX_N@Z      004c1110 f   entities.obj
 0001:000c02b0       ?rendermapmodels@@YAXXZ    004c12b0 f   entities.obj
 0001:000c0420       ?renderentities@@YAXXZ     004c1420 f   entities.obj
 0001:000c0880       ?rendereditentities@@YAXXZ 004c1880 f   entities.obj
 0001:000c1060       ?mousemove@@YAXHH@Z        004c2060 f   physics.obj
 0001:000c1270       ?fixcamerarange@@YAXPAVphysent@@@Z 004c2270 f   physics.obj
 0001:000c12e0       ?sprint@@YAX_N@Z           004c22e0 f   physics.obj
 0001:000c1320       ?crouch@@YAX_N@Z           004c2320 f   physics.obj
 0001:000c1350       ?updatesprint@@YAXPAVplayerent@@_N@Z 004c2350 f   physics.obj
 0001:000c1420       ?jumpn@@YAX_N@Z            004c2420 f   physics.obj
 0001:000c14b0       ?attack@@YAX_N@Z           004c24b0 f   physics.obj
 0001:000c15f0       ?right@@YAX_N@Z            004c25f0 f   physics.obj
 0001:000c1640       ?left@@YAX_N@Z             004c2640 f   physics.obj
 0001:000c16a0       ?forward@@YAX_N@Z          004c26a0 f   physics.obj
 0001:000c1700       ?backward@@YAX_N@Z         004c2700 f   physics.obj
 0001:000c1750       ?movebounceent@@YAXPAVbounceent@@H_N@Z 004c2750 f   physics.obj
 0001:000c1770       ?interppos@@YAXPAVphysent@@@Z 004c2770 f   physics.obj
 0001:000c1820       ?var_maxrolleffect@@YAXXZ  004c2820 f   physics.obj
 0001:000c1840       ?var_maxroll@@YAXXZ        004c2840 f   physics.obj
 0001:000c1860       ?mmcollide@@YA_NPAVphysent@@AAM1@Z 004c2860 f   physics.obj
 0001:000c1e60       ?cornertest@@YAHHHAAH00AAPAUsqr@@1@Z 004c2e60 f   physics.obj
 0001:000c1fd0       ?plcollide@@YA_NPAVphysent@@0AAM11@Z 004c2fd0 f   physics.obj
 0001:000c2120       ?objcollide@@YA_NPAVphysent@@ABUvec@@MM@Z 004c3120 f   physics.obj
 0001:000c21c0       ?resizephysent@@YAXPAVphysent@@HHMM@Z 004c31c0 f   physics.obj
 0001:000c2320       ?updatecrouch@@YAXPAVplayerent@@_N@Z 004c3320 f   physics.obj
 0001:000c23b0       ?moveplayer@@YAXPAVphysent@@H_N@Z 004c33b0 f   physics.obj
 0001:000c2510       ?physicsframe@@YAXXZ       004c3510 f   physics.obj
 0001:000c25a0       ?entinmap@@YAXPAVphysent@@@Z 004c35a0 f   physics.obj
 0001:000c2710       ?collide@@YA_NPAVphysent@@_NMM@Z 004c3710 f   physics.obj
 0001:000c2e30       ?raycube@@YAMABUvec@@0AAU1@@Z 004c3e30 f   physics.obj
 0001:000c32d0       ?raycubelos@@YA_NABUvec@@0M@Z 004c42d0 f   physics.obj
 0001:000c33b0       ?moveplayer@@YAXPAVphysent@@H_NH@Z 004c43b0 f   physics.obj
 0001:000c50d0       ?winners@@YAXXZ            004c60d0 f   scoreboard.obj
 0001:000c54f0       ?asciiscores@@YAPBD_N@Z    004c64f0 f   scoreboard.obj
 0001:000c5e50       ?renderscores@@YAXPAX_N@Z  004c6e50 f   scoreboard.obj
 0001:000c6d50       ?reorderscorecolumns@@YAXXZ 004c7d50 f   scoreboard.obj
 0001:000c6f10       ?renderteamscore@@YAXPAUteamscore@@@Z 004c7f10 f   scoreboard.obj
 0001:000c7080       ?renderscore@@YAXPAVplayerent@@@Z 004c8080 f   scoreboard.obj
 0001:000c7390       ?renderdiscscores@@YAXH@Z  004c8390 f   scoreboard.obj
 0001:000c7760       ?sortcolumns@@YAHPAUcoldata@@0@Z 004c8760 f   scoreboard.obj
 0001:000c7780       ?var_sc_name@@YAXXZ        004c8780 f   scoreboard.obj
 0001:000c7790       ?var_sc_clientnum@@YAXXZ   004c8790 f   scoreboard.obj
 0001:000c77a0       ?var_sc_lag@@YAXXZ         004c87a0 f   scoreboard.obj
 0001:000c77b0       ?var_sc_ratio@@YAXXZ       004c87b0 f   scoreboard.obj
 0001:000c77c0       ?var_sc_deaths@@YAXXZ      004c87c0 f   scoreboard.obj
 0001:000c77d0       ?var_sc_frags@@YAXXZ       004c87d0 f   scoreboard.obj
 0001:000c77e0       ?var_sc_flags@@YAXXZ       004c87e0 f   scoreboard.obj
 0001:000c7820       ?showscores@@YAX_N@Z       004c8820 f   scoreboard.obj
 0001:000c7850       ?consolescores@@YAXXZ      004c8850 f   scoreboard.obj
 0001:000c7870       ?calcteamscores@@YAXQAH@Z  004c8870 f   scoreboard.obj
 0001:000c7ae0       ?checkakimbo@@YAXXZ        004c8ae0 f   weapon.obj
 0001:000c7c80       ?renderstats@hands@@UAEXXZ 004c8c80 f   weapon.obj
 0001:000c7c90       ?attackfx@hands@@UAEXABUvec@@0H@Z 004c8c90 f   weapon.obj
 0001:000c7ca0       ?modelanim@hands@@UAEHXZ   004c8ca0 f   weapon.obj
 0001:000c7cb0       ?attack@hands@@UAE_NAAUvec@@@Z 004c8cb0 f   weapon.obj
 0001:000c7cc0       ?flashtime@hands@@UBEHXZ   004c8cc0 f   weapon.obj
 0001:000c7cd0       ??0hands@@QAE@PAVplayerent@@@Z 004c8cd0 f   weapon.obj
 0001:000c7d20       ?renderstats@knife@@UAEXXZ 004c8d20 f   weapon.obj
 0001:000c7d30       ?attackfx@knife@@UAEXABUvec@@0H@Z 004c8d30 f   weapon.obj
 0001:000c7d40       ?modelanim@knife@@UAEHXZ   004c8d40 f   weapon.obj
 0001:000c7d80       ?attack@knife@@UAE_NAAUvec@@@Z 004c8d80 f   weapon.obj
 0001:000c7fa0       ?flashtime@knife@@UBEHXZ   004c8fa0 f   weapon.obj
 0001:000c7fb0       ??0knife@@QAE@PAVplayerent@@@Z 004c8fb0 f   weapon.obj
 0001:000c8000       ?timerout@akimbo@@QAE_NXZ  004c9000 f   weapon.obj
 0001:000c8020       ?renderhudmodel@akimbo@@UAEXXZ 004c9020 f   weapon.obj
 0001:000c8040       ?reset@akimbo@@UAEXXZ      004c9040 f   weapon.obj
 0001:000c8060       ?updatetimers@akimbo@@UAEXH@Z 004c9060 f   weapon.obj
 0001:000c8090       ?selectable@akimbo@@UAE_NXZ 004c9090 f   weapon.obj
 0001:000c80e0       ?onselecting@akimbo@@UAEX_N@Z 004c90e0 f   weapon.obj
 0001:000c8100       ?onammopicked@akimbo@@UAEXXZ 004c9100 f   weapon.obj
 0001:000c8180       ?attackfx@akimbo@@UAEXABUvec@@0H@Z 004c9180 f   weapon.obj
 0001:000c8260       ??0akimbo@@QAE@PAVplayerent@@@Z 004c9260 f   weapon.obj
 0001:000c82d0       ?selectable@flintlock@@UAE_NXZ 004c92d0 f   weapon.obj
 0001:000c8350       ??0flintlock@@QAE@PAVplayerent@@@Z 004c9350 f   weapon.obj
 0001:000c83a0       ?selectable@pistol@@UAE_NXZ 004c93a0 f   weapon.obj
 0001:000c8420       ??0pistol@@QAE@PAVplayerent@@@Z 004c9420 f   weapon.obj
 0001:000c8470       ?selectable@assaultrifle@@UAE_NXZ 004c9470 f   weapon.obj
 0001:000c84d0       ?dynrecoil@assaultrifle@@UAEMXZ 004c94d0 f   weapon.obj
 0001:000c8510       ?dynspread@assaultrifle@@UAEHXZ 004c9510 f   weapon.obj
 0001:000c8550       ??0assaultrifle@@QAE@PAVplayerent@@@Z 004c9550 f   weapon.obj
 0001:000c85a0       ?selectable@carbine@@UAE_NXZ 004c95a0 f   weapon.obj
 0001:000c8600       ??0carbine@@QAE@PAVplayerent@@@Z 004c9600 f   weapon.obj
 0001:000c8650       ?setscope@sniperrifle@@QAEX_N@Z 004c9650 f   weapon.obj
 0001:000c86a0       ?renderaimhelp@sniperrifle@@UAEX_N@Z 004c96a0 f   weapon.obj
 0001:000c8740       ?renderhudmodel@sniperrifle@@UAEXXZ 004c9740 f   weapon.obj
 0001:000c8760       ?onownerdies@sniperrifle@@UAEXXZ 004c9760 f   weapon.obj
 0001:000c8780       ?ondeselecting@sniperrifle@@UAEXXZ 004c9780 f   weapon.obj
 0001:000c8790       ?onselecting@sniperrifle@@UAEX_N@Z 004c9790 f   weapon.obj
 0001:000c87b0       ?selectable@sniperrifle@@UAE_NXZ 004c97b0 f   weapon.obj
 0001:000c8810       ?dynrecoil@sniperrifle@@UAEMXZ 004c9810 f   weapon.obj
 0001:000c8850       ?dynspread@sniperrifle@@UAEHXZ 004c9850 f   weapon.obj
 0001:000c8890       ?reload@sniperrifle@@UAE_N_N@Z 004c9890 f   weapon.obj
 0001:000c89d0       ?attackfx@sniperrifle@@UAEXABUvec@@0H@Z 004c99d0 f   weapon.obj
 0001:000c8c60       ??0sniperrifle@@QAE@PAVplayerent@@@Z 004c9c60 f   weapon.obj
 0001:000c8cb0       ?dynspread@subgun@@UAEHXZ  004c9cb0 f   weapon.obj
 0001:000c8cf0       ?selectable@subgun@@UAE_NXZ 004c9cf0 f   weapon.obj
 0001:000c8d50       ??0subgun@@QAE@PAVplayerent@@@Z 004c9d50 f   weapon.obj
 0001:000c8da0       ?selectable@shotgun@@UAE_NXZ 004c9da0 f   weapon.obj
 0001:000c8e00       ?attackfx@shotgun@@UAEXABUvec@@0H@Z 004c9e00 f   weapon.obj
 0001:000c8eb0       ?attack@shotgun@@UAE_NAAUvec@@@Z 004c9eb0 f   weapon.obj
 0001:000c8ec0       ?attackphysics@shotgun@@UAEXAAUvec@@0@Z 004c9ec0 f   weapon.obj
 0001:000c8ef0       ??0shotgun@@QAE@PAVplayerent@@@Z 004c9ef0 f   weapon.obj
 0001:000c8f40       ?onownerdies@gun@@UAEXXZ   004c9f40 f   weapon.obj
 0001:000c8f50       ?checkautoreload@gun@@QAEXXZ 004c9f50 f   weapon.obj
 0001:000c8f80       ?modelanim@gun@@UAEHXZ     004c9f80 f   weapon.obj
 0001:000c8fc0       ?attackfx@gun@@UAEXABUvec@@0H@Z 004c9fc0 f   weapon.obj
 0001:000c9080       ?attack@gun@@UAE_NAAUvec@@@Z 004ca080 f   weapon.obj
 0001:000c9290       ??0gun@@QAE@PAVplayerent@@H@Z 004ca290 f   weapon.obj
 0001:000c92e0       ?removebounceent@grenades@@UAEXPAVbounceent@@@Z 004ca2e0 f   weapon.obj
 0001:000c9300       ?onownerdies@grenades@@UAEXXZ 004ca300 f   weapon.obj
 0001:000c9350       ?onselecting@grenades@@UAEX_N@Z 004ca350 f   weapon.obj
 0001:000c93e0       ?reset@grenades@@UAEXXZ    004ca3e0 f   weapon.obj
 0001:000c9400       ?selectable@grenades@@UAE_NXZ 004ca400 f   weapon.obj
 0001:000c9430       ?renderstats@grenades@@UAEXXZ 004ca430 f   weapon.obj
 0001:000c94c0       ?dropnade@grenades@@QAEXXZ 004ca4c0 f   weapon.obj
 0001:000c94f0       ?thrownade@grenades@@QAEXABUvec@@@Z 004ca4f0 f   weapon.obj
 0001:000c9680       ?thrownade@grenades@@QAEXXZ 004ca680 f   weapon.obj
 0001:000c9750       ?activatenade@grenades@@QAEXABUvec@@@Z 004ca750 f   weapon.obj
 0001:000c98c0       ?modelanim@grenades@@UAEHXZ 004ca8c0 f   weapon.obj
 0001:000c9930       ?attackfx@grenades@@UAEXABUvec@@0H@Z 004ca930 f   weapon.obj
 0001:000c99f0       ?attack@grenades@@UAE_NAAUvec@@@Z 004ca9f0 f   weapon.obj
 0001:000c9de0       ?busy@grenades@@UAE_NXZ    004cade0 f   weapon.obj
 0001:000c9df0       ?flashtime@grenades@@UBEHXZ 004cadf0 f   weapon.obj
 0001:000c9e00       ??0grenades@@QAE@PAVplayerent@@@Z 004cae00 f   weapon.obj
 0001:000c9e70       ?onmoved@grenadeent@@UAEXABUvec@@@Z 004cae70 f   weapon.obj
 0001:000c9eb0       ?oncollision@grenadeent@@UAEXXZ 004caeb0 f   weapon.obj
 0001:000c9f40       ?applyphysics@grenadeent@@UAE_NXZ 004caf40 f   weapon.obj
 0001:000c9f50       ?destroy@grenadeent@@UAEXXZ 004caf50 f   weapon.obj
 0001:000ca030       ?moveoutsidebbox@grenadeent@@QAEXABUvec@@PAVplayerent@@@Z 004cb030 f   weapon.obj
 0001:000ca0b0       ?_throw@grenadeent@@QAEXABUvec@@0@Z 004cb0b0 f   weapon.obj
 0001:000ca240       ?activate@grenadeent@@QAEXABUvec@@0@Z 004cb240 f   weapon.obj
 0001:000ca310       ?splash@grenadeent@@QAEXXZ 004cb310 f   weapon.obj
 0001:000ca550       ?explode@grenadeent@@QAEXXZ 004cb550 f   weapon.obj
 0001:000ca630       ??1grenadeent@@UAE@XZ      004cb630 f   weapon.obj
 0001:000ca660       ??0grenadeent@@QAE@PAVplayerent@@H@Z 004cb660 f   weapon.obj
 0001:000ca6e0       ?deselectable@weapon@@UAE_NXZ 004cb6e0 f   weapon.obj
 0001:000ca6f0       ?selectable@weapon@@UAE_NXZ 004cb6f0 f   weapon.obj
 0001:000ca710       ?dynrecoil@weapon@@UAEMXZ  004cb710 f   weapon.obj
 0001:000ca720       ?dynspread@weapon@@UAEHXZ  004cb720 f   weapon.obj
 0001:000ca730       ?renderaimhelp@weapon@@UAEX_N@Z 004cb730 f   weapon.obj
 0001:000ca7b0       ?renderhudmodel@weapon@@UAEXXZ 004cb7b0 f   weapon.obj
 0001:000ca7d0       ?onselecting@weapon@@UAEX_N@Z 004cb7d0 f   weapon.obj
 0001:000ca860       ?updatetimers@weapon@@UAEXH@Z 004cb860 f   weapon.obj
 0001:000ca890       ?renderhudmodel@weapon@@QAEXHH@Z 004cb890 f   weapon.obj
 0001:000caa70       ?attackphysics@weapon@@UAEXAAUvec@@0@Z 004cba70 f   weapon.obj
 0001:000cad10       ?renderstats@weapon@@UAEXXZ 004cbd10 f   weapon.obj
 0001:000cae30       ?reload@weapon@@UAE_N_N@Z  004cbe30 f   weapon.obj
 0001:000caf60       ?attacksound@weapon@@UAEXXZ 004cbf60 f   weapon.obj
 0001:000cafc0       ?modelattacking@weapon@@QAE_NXZ 004cbfc0 f   weapon.obj
 0001:000cb000       ?sendshoot@weapon@@QAEXAAUvec@@0H@Z 004cc000 f   weapon.obj
 0001:000cb090       ?flashtime@weapon@@UBEHXZ  004cc090 f   weapon.obj
 0001:000cb0b0       ??0weapon@@QAE@PAVplayerent@@H@Z 004cc0b0 f   weapon.obj
 0001:000cb100       ?accuracyreset@@YAXXZ      004cc100 f   weapon.obj
 0001:000cb140       ?accuracyinfo@@YAXXZ       004cc140 f   weapon.obj
 0001:000cb330       ?weapstr@@YAPBDH@Z         004cc330 f   weapon.obj
 0001:000cb350       ?raydamage@@YAXAAUvec@@0PAVplayerent@@@Z 004cc350 f   weapon.obj
 0001:000cbb80       ?shorten@@YAXABUvec@@AAU1@M@Z 004ccb80 f   weapon.obj
 0001:000cbc30       ?radialeffect@@YAXPAVplayerent@@AAUvec@@H0H@Z 004ccc30 f   weapon.obj
 0001:000cbd70       ?expdist@@YAMPAVplayerent@@AAUvec@@ABU2@@Z 004ccd70 f   weapon.obj
 0001:000cbe30       ?hitpush@@YAXHPAVplayerent@@0AAUvec@@1H_NH@Z 004cce30 f   weapon.obj
 0001:000cbee0       ?hit@@YAXHPAVplayerent@@0ABUvec@@H_NH@Z 004ccee0 f   weapon.obj
 0001:000cc1c0       ?intersectclosest@@YAPAVplayerent@@ABUvec@@0PBV1@AAMAAH_N@Z 004cd1c0 f   weapon.obj
 0001:000cc360       ?intersect@@YA_NPAUentity@@ABUvec@@1PAU2@@Z 004cd360 f   weapon.obj
 0001:000cc560       ?intersect@@YAHPAVplayerent@@ABUvec@@1PAU2@@Z 004cd560 f   weapon.obj
 0001:000ccf80       ?tryreload@@YAXPAVplayerent@@@Z 004cdf80 f   weapon.obj
 0001:000cd2d0       ?quicknadethrow@@YAX_N@Z   004ce2d0 f   weapon.obj
 0001:000cd3a0       ?shiftweapon@@YAXPAH@Z     004ce3a0 f   weapon.obj
 0001:000cd5e0       ?requestweapon@@YAXPAD@Z   004ce5e0 f   weapon.obj
 0001:000cd690       ?selectweapon@@YAXPAUweapon@@@Z 004ce690 f   weapon.obj
 0001:000cd760       ?checkweaponswitch@@YAXXZ  004ce760 f   weapon.obj
 0001:000cd820       ?updatelastaction@@YAXPAVplayerent@@H@Z 004ce820 f   weapon.obj
 0001:000cd850       ?preload_hudguns@@YAXXZ    004ce850 f   weapon.obj
 0001:000cdba0       ?createrays@@YAXABUvec@@0@Z 004ceba0 f   weapon.obj
 0001:000cdff0       ?setscope@@YAX_N@Z         004ceff0 f   weapon.obj
 0001:000ce050       ?equipplayer@weapon@@SAXPAVplayerent@@@Z 004cf050 f   weapon.obj
 0001:000ce430       ?removebounceents@@YAXPAVplayerent@@@Z 004cf430 f   weapon.obj
 0001:000ce4a0       ?checkweaponstate@@YAXXZ   004cf4a0 f   weapon.obj
 0001:000ce570       ?shoot@@YAXPAVplayerent@@AAUvec@@@Z 004cf570 f   weapon.obj
 0001:000ce5d0       ?movebounceents@@YAXXZ     004cf5d0 f   weapon.obj
 0001:000ce6b0       ?damageeffect@@YAXHPAVplayerent@@@Z 004cf6b0 f   weapon.obj
 0001:000ce6e0       ?addgib@@YAXPAVplayerent@@@Z 004cf6e0 f   weapon.obj
 0001:000ce960       ?clearbounceents@@YAXXZ    004cf960 f   weapon.obj
 0001:000ce9f0       ?playerincrosshair@@YAPAVplayerent@@XZ 004cf9f0 f   weapon.obj
 0001:000cea40       ?r_accuracy@@YAXH@Z        004cfa40 f   weapon.obj
 0001:000cebf0       ?intersectgeometry@@YAXABUvec@@AAU1@@Z 004cfbf0 f   weapon.obj
 0001:000cfb70       ?renderbounceents@@YAXXZ   004d0b70 f   weapon.obj
 0001:000cfdc0       ?debugargs@@YAXPAPADH@Z    004d0dc0 f   command.obj
 0001:000cfe20       ?listoptions@@YAXPAD@Z     004d0e20 f   command.obj
 0001:000cff70       ?cslimiterr@@YAXPBD@Z      004d0f70 f   command.obj
 0001:000cff90       ?dumpexecutionstack@@YAXPAUstream@@@Z 004d0f90 f   command.obj
 0001:000d0030       ?isolatecontext@@YAXPAD@Z  004d1030 f   command.obj
 0001:000d00a0       ?scriptcontext@@YAXPAD0@Z  004d10a0 f   command.obj
 0001:000d00e0       ?identnames@@YAXAAU?$vector@PBD@@_N@Z 004d10e0 f   command.obj
 0001:000d01d0       ?deletecfg@@YAXXZ          004d11d0 f   command.obj
 0001:000d02c0       ?writecfg@@YAXXZ           004d12c0 f   command.obj
 0001:000d0f00       ?enumalias@@YAXPAD@Z       004d1f00 f   command.obj
 0001:000d1060       ?sortident@@YAHPAPAUident@@0@Z 004d2060 f   command.obj
 0001:000d11e0       ?bnot_@@YAXPAH@Z           004d21e0 f   command.obj
 0001:000d1240       ?bxor_@@YAXPAH0@Z          004d2240 f   command.obj
 0001:000d12b0       ?bor_@@YAXPAH0@Z           004d22b0 f   command.obj
 0001:000d1320       ?band_@@YAXPAH0@Z          004d2320 f   command.obj
 0001:000d1390       ?ora_@@YAXPAD0@Z           004d2390 f   command.obj
 0001:000d1440       ?anda_@@YAXPAD0@Z          004d2440 f   command.obj
 0001:000d14f0       ?gtef_@@YAXPAM0@Z          004d24f0 f   command.obj
 0001:000d1560       ?ltef_@@YAXPAM0@Z          004d2560 f   command.obj
 0001:000d15d0       ?gtf_@@YAXPAM0@Z           004d25d0 f   command.obj
 0001:000d1640       ?ltf_@@YAXPAM0@Z           004d2640 f   command.obj
 0001:000d16b0       ?notequalf_@@YAXPAM0@Z     004d26b0 f   command.obj
 0001:000d1730       ?equalf_@@YAXPAM0@Z        004d2730 f   command.obj
 0001:000d17b0       ?floor_@@YAXPAM@Z          004d27b0 f   command.obj
 0001:000d1860       ?ceil_@@YAXPAM@Z           004d2860 f   command.obj
 0001:000d18e0       ?round_@@YAXPAM@Z          004d28e0 f   command.obj
 0001:000d1950       ?gte_@@YAXPAH0@Z           004d2950 f   command.obj
 0001:000d19c0       ?lte_@@YAXPAH0@Z           004d29c0 f   command.obj
 0001:000d1a30       ?gt_@@YAXPAH0@Z            004d2a30 f   command.obj
 0001:000d1aa0       ?lt_@@YAXPAH0@Z            004d2aa0 f   command.obj
 0001:000d1b10       ?notequal_@@YAXPAH0@Z      004d2b10 f   command.obj
 0001:000d1b80       ?equal_@@YAXPAH0@Z         004d2b80 f   command.obj
 0001:000d1bf0       ?not_@@YAXPAH@Z            004d2bf0 f   command.obj
 0001:000d1c60       ?powf_@@YAXPAM0@Z          004d2c60 f   command.obj
 0001:000d1d20       ?modf_@@YAXPAM0@Z          004d2d20 f   command.obj
 0001:000d1e10       ?divf_@@YAXPAM0@Z          004d2e10 f   command.obj
 0001:000d1ed0       ?subf_@@YAXPAM0@Z          004d2ed0 f   command.obj
 0001:000d1f80       ?mod_@@YAXPAH0@Z           004d2f80 f   command.obj
 0001:000d2000       ?div_@@YAXPAH0@Z           004d3000 f   command.obj
 0001:000d2080       ?sub_@@YAXPAH0@Z           004d3080 f   command.obj
 0001:000d20f0       ?mulf_@@YAXPAPADH@Z        004d30f0 f   command.obj
 0001:000d21f0       ?addf_@@YAXPAPADH@Z        004d31f0 f   command.obj
 0001:000d22e0       ?mul_@@YAXPAPADH@Z         004d32e0 f   command.obj
 0001:000d2380       ?add_@@YAXPAPADH@Z         004d3380 f   command.obj
 0001:000d2410       ?diveqf@@YAXPADPAM@Z       004d3410 f   command.obj
 0001:000d2430       ?muleqf@@YAXPADPAM@Z       004d3430 f   command.obj
 0001:000d2450       ?subeqf@@YAXPADPAM@Z       004d3450 f   command.obj
 0001:000d2470       ?addeqf@@YAXPADPAM@Z       004d3470 f   command.obj
 0001:000d2490       ?modifyfvar@@YAXPBDMD@Z    004d3490 f   command.obj
 0001:000d2680       ?diveq@@YAXPADPAH@Z        004d3680 f   command.obj
 0001:000d26a0       ?muleq@@YAXPADPAH@Z        004d36a0 f   command.obj
 0001:000d26c0       ?subeq@@YAXPADPAH@Z        004d36c0 f   command.obj
 0001:000d26e0       ?addeq@@YAXPADPAH@Z        004d36e0 f   command.obj
 0001:000d2700       ?modifyvar@@YAXPBDHD@Z     004d3700 f   command.obj
 0001:000d2920       ?sortlist@@YAXPAD@Z        004d3920 f   command.obj
 0001:000d29b0       ?testchar@@YAXPADPAH@Z     004d39b0 f   command.obj
 0001:000d2b40       ?toany@@YAXPADP6AHH@Z@Z    004d3b40 f   command.obj
 0001:000d2b70       ?addpunct@@YAXPAD0@Z       004d3b70 f   command.obj
 0001:000d2c90       ?strreplace@@YAXPAD00@Z    004d3c90 f   command.obj
 0001:000d2ed0       ?substr_@@YAXPADPAH1@Z     004d3ed0 f   command.obj
 0001:000d31f0       ?find@@YAHPADPBD@Z         004d41f0 f   command.obj
 0001:000d3400       ?indexlist@@YAPADPBDH@Z    004d4400 f   command.obj
 0001:000d35c0       ?looplist@@YAXPAD00_N@Z    004d45c0 f   command.obj
 0001:000d39e0       ?format2@@YAXPAPADH@Z      004d49e0 f   command.obj
 0001:000d3ac0       ?format@@YAXPAPADH@Z       004d4ac0 f   command.obj
 0001:000d3dd0       ?whilea@@YAXPAD0@Z         004d4dd0 f   command.obj
 0001:000d3e70       ?loopa@@YAXPADPAH0@Z       004d4e70 f   command.obj
 0001:000d4000       ?ifthen@@YAXPAD00@Z        004d5000 f   command.obj
 0001:000d4020       ?execdir@@YAXPBD@Z         004d5020 f   command.obj
 0001:000d4380       ?exec@@YAXPBD@Z            004d5380 f   command.obj
 0001:000d43a0       ?cleancubescript@@YAXPAD@Z 004d53a0 f   command.obj
 0001:000d4470       ?complete@@YAXPAD_N@Z      004d5470 f   command.obj
 0001:000d44a0       ?commandcomplete@@YAXPAD_N@Z 004d54a0 f   command.obj
 0001:000d49f0       ?addnickcomplete@@YAXPAD@Z 004d59f0 f   command.obj
 0001:000d4a10       ?addlistcomplete@@YAXPAD0@Z 004d5a10 f   command.obj
 0001:000d4a30       ?addfilecomplete@@YAXPAD00@Z 004d5a30 f   command.obj
 0001:000d4a50       ?addcomplete@@YAXPADH00@Z  004d5a50 f   command.obj
 0001:000d4fb0       ?nickcomplete@@YA_NPAD_N@Z 004d5fb0 f   command.obj
 0001:000d52a0       ?resetcomplete@@YAXXZ      004d62a0 f   command.obj
 0001:000d52c0       ?identhash@@YAXPA_K@Z      004d62c0 f   command.obj
 0001:000d5350       ?parseword@@YAPADAAPBDHPAHH@Z 004d6350 f   command.obj
 0001:000d54b0       ?lookup@@YAPADPADH@Z       004d64b0 f   command.obj
 0001:000d5640       ?parseexp@@YAPADAAPBDHH@Z  004d6640 f   command.obj
 0001:000d5af0       ?getvarrange@@YAXPAD0@Z    004d6af0 f   command.obj
 0001:000d5bd0       ?_getalias@@YAXPAD@Z       004d6bd0 f   command.obj
 0001:000d5e30       ?delalias@@YAXPBD@Z        004d6e30 f   command.obj
 0001:000d5f60       ?pusha@@YAXPBDPAD@Z        004d6f60 f   command.obj
 0001:000d5fc0       ?newident@@YAPAUident@@PBDH@Z 004d6fc0 f   command.obj
 0001:000d6090       ?popident@@YAXAAUident@@@Z 004d7090 f   command.obj
 0001:000d60e0       ?pushident@@YAXAAUident@@PADH@Z 004d70e0 f   command.obj
 0001:000d61c0       ?clearstack@@YAXAAPAUidentstack@@@Z 004d71c0 f   command.obj
 0001:000d6290       ?setcontext@@YAXPBD0@Z     004d7290 f   command.obj
 0001:000d62a0       ?resetcontext@@YAXXZ       004d72a0 f   command.obj
 0001:000d62c0       ?setfvar@@YAXPBDM_N@Z      004d72c0 f   command.obj
 0001:000d6310       ?push@@YAXPBD0@Z           004d7310 f   command.obj
 0001:000d63a0       ?pop@@YAXPBD@Z             004d73a0 f   command.obj
 0001:000d6430       ?identexists@@YA_NPBD@Z    004d7430 f   command.obj
 0001:000d6450       ?exchangestr@@YAPADPADPBD@Z 004d7450 f   command.obj
 0001:000d6490       ?floatret@@YAXM_N@Z        004d7490 f   command.obj
 0001:000d64d0       ?alias@@YAXPBD0_N1@Z       004d74d0 f   command.obj
 0001:000d66b0       ?setvar@@YAXPBDH_N@Z       004d76b0 f   command.obj
 0001:000d66f0       ?exechook@@YA_NHPBD0ZZ     004d76f0 f   command.obj
 0001:000d6940       ?svariable@@YAPADPBD0PAPADP6AXXZ2_N@Z 004d7940 f   command.obj
 0001:000d69e0       ?execfile@@YA_NPBD@Z       004d79e0 f   command.obj
 0001:000d6bd0       ?scripterr@@YAXXZ          004d7bd0 f   command.obj
 0001:000d6c60       ?floatstr@@YAPBDM_N@Z      004d7c60 f   command.obj
 0001:000d6cf0       ?pushscontext@@YAXH@Z      004d7cf0 f   command.obj
 0001:000d6d60       ?popscontext@@YAHXZ        004d7d60 f   command.obj
 0001:000d6ec0       ?execute@@YAHPBD@Z         004d7ec0 f   command.obj
 0001:000d6ef0       ?conc@@YAPADPAPBDH_N@Z     004d7ef0 f   command.obj
 0001:000d7160       ?listlen@@YAHPBD@Z         004d8160 f   command.obj
 0001:000d7220       ?explodelist@@YAXPBDAAU?$vector@PAD@@@Z 004d8220 f   command.obj
 0001:000d73d0       ?resultcharvector@@YAXABU?$vector@D@@H@Z 004d83d0 f   command.obj
 0001:000d7470       ?result@@YAXPBD@Z          004d8470 f   command.obj
 0001:000d74b0       ?getalias@@YAPBDPBD@Z      004d84b0 f   command.obj
 0001:000d74d0       ?executeret@@YAPADPBD@Z    004d84d0 f   command.obj
 0001:000d8ab0       ?intret@@YAXH@Z            004d9ab0 f   command.obj
 0001:000d8b10       ?fvariable@@YAMPBDMMMPAMP6AXXZ_N@Z 004d9b10 f   command.obj
 0001:000d8bd0       ?addcommand@@YA_NPBDP6AXXZ0@Z 004d9bd0 f   command.obj
 0001:000d8c60       ?variable@@YAHPBDHHHPAHP6AXXZ_N@Z 004d9c60 f   command.obj
 0001:000d8d20       ?getmod@@YAXPAD@Z          004d9d20 f   autodownload.obj
 0001:000d8d60       ?writepcksourcecfg@@YAXXZ  004d9d60 f   autodownload.obj
 0001:000d8e90       ?pckserversort@@YAHPAPAUpckserver@@0@Z 004d9e90 f   autodownload.obj
 0001:000d8ef0       ?packagesort_host@@YAHPAPAUpackage@@0@Z 004d9ef0 f   autodownload.obj
 0001:000d8f30       ?packagesort_name@@YAHPAPAUpackage@@0@Z 004d9f30 f   autodownload.obj
 0001:000d8f70       ?packagesort_server@@YAHPAPAUpackage@@0@Z 004d9f70 f   autodownload.obj
 0001:000d8f90       ?dlpackage@@YA_NAAUhttpget@@PAUpackage@@PAUpckserver@@@Z 004d9f90 f   autodownload.obj
 0001:000d9200       ?progress_callback_dlpackage@@YAHPAXM@Z 004da200 f   autodownload.obj
 0001:000d92d0       ?processdownload@@YAXPAUpackage@@PAUstream@@@Z 004da2d0 f   autodownload.obj
 0001:000d97a0       ?pollautodownloadresponse@@YAXXZ 004da7a0 f   autodownload.obj
 0001:000d98b0       ?setupautodownload@@YAXXZ  004da8b0 f   autodownload.obj
 0001:000d98e0       ?pingallpckservers@@YAHPAX@Z 004da8e0 f   autodownload.obj
 0001:000d9b60       ?pingpckserver@@YAHPAX@Z   004dab60 f   autodownload.obj
 0001:000d9f30       ?getpckserver@@YAXXZ       004daf30 f   autodownload.obj
 0001:000da000       ?addpckserver@@YAXPAD0@Z   004db000 f   autodownload.obj
 0001:000da100       ?resetpckservers@@YAXXZ    004db100 f   autodownload.obj
 0001:000da140       ?downloadpackages@@YAH_N@Z 004db140 f   autodownload.obj
 0001:000da720       ?requirepackage@@YA_NHPBD0@Z 004db720 f   autodownload.obj
 0001:000daba0       ?pasteclipboard@textinputbuffer@@QAEXXZ 004dbba0 f   console.obj
 0001:000dabf0       ?say@textinputbuffer@@QAE_NPBD@Z 004dbbf0 f   console.obj
 0001:000dad20       ?keypress@@YAXHH_NW4SDL_Keymod@@@Z 004dbd20 f   console.obj
 0001:000daf00       ?processtextinput@@YAXPBD@Z 004dbf00 f   console.obj
 0001:000daf40       ?consolekey@@YAXH_NW4SDL_Keymod@@@Z 004dbf40 f   console.obj
 0001:000db4b0       ?execbind@@YAXAAUkeym@@_N@Z 004dc4b0 f   console.obj
 0001:000db600       ?loadhistory@@YAXXZ        004dc600 f   console.obj
 0001:000db750       ?savehistory@@YAXXZ        004dc750 f   console.obj
 0001:000db880       ?history_@@YAXPAH@Z        004dc880 f   console.obj
 0001:000db8c0       ?var_checkmapmsg@@YAXXZ    004dc8c0 f   console.obj
 0001:000db920       ?var_getmapmsg@@YAXXZ      004dc920 f   console.obj
 0001:000db970       ?inputcommand@@YAXPAD00PAH@Z 004dc970 f   console.obj
 0001:000dba10       ?saycommand@@YAXPAD@Z      004dca10 f   console.obj
 0001:000dbb30       ?onrelease@@YAXPAD@Z       004dcb30 f   console.obj
 0001:000dbc60       ?searchbinds@@YAXPBDH@Z    004dcc60 f   console.obj
 0001:000dbec0       ?bindc@@YA_NHPBDH@Z        004dcec0 f   console.obj
 0001:000dbf00       ?keybind@@YAXPBDH@Z        004dcf00 f   console.obj
 0001:000dbf50       ?bindk@@YAXPBD0H@Z         004dcf50 f   console.obj
 0001:000dc040       ?bindkey@@YA_NPAUkeym@@PBDH@Z 004dd040 f   console.obj
 0001:000dc280       ?findkeycode@@YAXPBD@Z     004dd280 f   console.obj
 0001:000dc360       ?findkey@@YAXPAH@Z         004dd360 f   console.obj
 0001:000dc3f0       ?autokeymap@@YAPAUkeym@@HH@Z 004dd3f0 f   console.obj
 0001:000dc4c0       ?findbindc@@YAPAUkeym@@H@Z 004dd4c0 f   console.obj
 0001:000dc4f0       ?findbinda@@YAPAPAUkeym@@PBDH@Z 004dd4f0 f   console.obj
 0001:000dc6a0       ?findbind@@YAPAUkeym@@PBD@Z 004dd6a0 f   console.obj
 0001:000dc700       ?keymap@@YAXPAHPAD@Z       004dd700 f   console.obj
 0001:000dc870       ?toggleconsole@@YAXXZ      004dd870 f   console.obj
 0001:000dc8b0       ?setconskip@@YAXPAH@Z      004dd8b0 f   console.obj
 0001:000dc9a0       ?var_maxcon@@YAXXZ         004dd9a0 f   console.obj
 0001:000dc9f0       ?addreleaseaction@@YAPADPBD@Z 004dd9f0 f   console.obj
 0001:000dcae0       ?writebinds@@YAXPAUstream@@@Z 004ddae0 f   console.obj
 0001:000dcc20       ?clientlogf@@YAXPBDZZ      004ddc20 f   console.obj
 0001:000dcd30       ?getcurcommand@@YAPADPAH@Z 004ddd30 f   console.obj
 0001:000dcd60       ?rendercommand@@YAHHHH@Z   004ddd60 f   console.obj
 0001:000dce40       ?renderconsole@@YAXXZ      004dde40 f   console.obj
 0001:000dce50       ?conoutf@@YAXPBDZZ         004dde50 f   console.obj
 0001:000dd0f0       ?listcerts@@YAXXZ          004de0f0 f   crypto.obj
 0001:000dd1d0       ?loadcertdir@@YAXXZ        004de1d0 f   crypto.obj
 0001:000dd330       ?loadcert@@YAXPBD@Z        004de330 f   crypto.obj
 0001:000dd410       ?rebuildcerttree@@YAXXZ    004de410 f   crypto.obj
 0001:000dd760       ?marksuperseded@@YAXPAUcert@@@Z 004de760 f   crypto.obj
 0001:000ddaf0       ?sign@makecert@@QAEPADPBEPBD@Z 004deaf0 f   crypto.obj
 0001:000ddd90       ?addline@makecert@@QAEXPBD00@Z 004ded90 f   crypto.obj
 0001:000ddf50       ??1makecert@@QAE@XZ        004def50 f   crypto.obj
 0001:000ddf80       ??0makecert@@QAE@H@Z       004def80 f   crypto.obj
 0001:000ddfc0       ?movecertfile@cert@@QAEXPBD@Z 004defc0 f   crypto.obj
 0001:000de0e0       ?getnewcertfilename@cert@@QAEPADPBD@Z 004df0e0 f   crypto.obj
 0001:000de180       ?getcertfilename@cert@@QAEPADPBD@Z 004df180 f   crypto.obj
 0001:000de210       ?parse@cert@@QAE_NXZ       004df210 f   crypto.obj
 0001:000de640       ?authkey_@@YAXPAPADH@Z     004df640 f   crypto.obj
 0001:000deb20       ?getauthkey@@YAPBEPBD@Z    004dfb20 f   crypto.obj
 0001:000deb80       ?delauthkey@@YA_NPBD@Z     004dfb80 f   crypto.obj
 0001:000dec70       ??0authkey@@QAE@PBD0@Z     004dfc70 f   crypto.obj
 0001:000dece0       ?mypubkey@@YAXXZ           004dfce0 f   crypto.obj
 0001:000ded60       ?saveprivkey@@YAXPBDPAE1QAEI@Z 004dfd60 f   crypto.obj
 0001:000df0f0       ?savepreprivkey@@YAXPBDPAEE1I@Z 004e00f0 f   crypto.obj
 0001:000df400       ?privkey_from_prepriv@@YAXPAEPBEH0@Z 004e0400 f   crypto.obj
 0001:000df5c0       ?ge25519_scalarmult_base@@YAXPAUge25519@@PBUsc25519@@@Z 004e05c0 f   crypto.obj
 0001:000df840       ?ge25519_double_scalarmult_vartime@@YAXPAUge25519@@PBU1@PBUsc25519@@12@Z 004e0840 f   crypto.obj
 0001:000e03e0       ?ge25519_pack@@YAXQAEPBUge25519@@@Z 004e13e0 f   crypto.obj
 0001:000e04f0       ?ge25519_unpackneg_vartime@@YAHPAUge25519@@QBE@Z 004e14f0 f   crypto.obj
 0001:000e0f70       ?sc25519_2interleave2@@YAXQAEPBUsc25519@@1@Z 004e1f70 f   crypto.obj
 0001:000e1060       ?sc25519_window3@@YAXQACPBUsc25519@@@Z 004e2060 f   crypto.obj
 0001:000e14d0       ?sc25519_mul@@YAXPAUsc25519@@PBU1@1@Z 004e24d0 f   crypto.obj
 0001:000e1840       ?sc25519_add@@YAXPAUsc25519@@PBU1@1@Z 004e2840 f   crypto.obj
 0001:000e1a20       ?sc25519_to32bytes@@YAXQAEPBUsc25519@@@Z 004e2a20 f   crypto.obj
 0001:000e1a90       ?sc25519_from64bytes@@YAXPAUsc25519@@QBE@Z 004e2a90 f   crypto.obj
 0001:000e1d10       ?sc25519_from32bytes@@YAXPAUsc25519@@QBE@Z 004e2d10 f   crypto.obj
 0001:000e22d0       ?fe25519_pow2523@@YAXPAUfe25519@@PBU1@@Z 004e32d0 f   crypto.obj
 0001:000e25a0       ?fe25519_invert@@YAXPAUfe25519@@PBU1@@Z 004e35a0 f   crypto.obj
 0001:000e2a10       ?fe25519_square@@YAXPAUfe25519@@PBU1@@Z 004e3a10 f   crypto.obj
 0001:000e2a20       ?fe25519_mul@@YAXPAUfe25519@@PBU1@1@Z 004e3a20 f   crypto.obj
 0001:000e2c20       ?fe25519_sub@@YAXPAUfe25519@@PBU1@1@Z 004e3c20 f   crypto.obj
 0001:000e2d90       ?fe25519_add@@YAXPAUfe25519@@PBU1@1@Z 004e3d90 f   crypto.obj
 0001:000e2ea0       ?fe25519_neg@@YAXPAUfe25519@@PBU1@@Z 004e3ea0 f   crypto.obj
 0001:000e2fe0       ?fe25519_setzero@@YAXPAUfe25519@@@Z 004e3fe0 f   crypto.obj
 0001:000e3010       ?fe25519_setone@@YAXPAUfe25519@@@Z 004e4010 f   crypto.obj
 0001:000e3050       ?fe25519_getparity@@YAEPBUfe25519@@@Z 004e4050 f   crypto.obj
 0001:000e3080       ?fe25519_cmov@@YAXPAUfe25519@@PBU1@E@Z 004e4080 f   crypto.obj
 0001:000e3110       ?fe25519_iseq_vartime@@YAHPBUfe25519@@0@Z 004e4110 f   crypto.obj
 0001:000e3180       ?fe25519_pack@@YAXQAEPBUfe25519@@@Z 004e4180 f   crypto.obj
 0001:000e3220       ?fe25519_unpack@@YAXPAUfe25519@@QBE@Z 004e4220 f   crypto.obj
 0001:000e32b0       ?fe25519_freeze@@YAXPAUfe25519@@@Z 004e42b0 f   crypto.obj
 0001:000e3450       ?passphrase2key@@YAXPBDPBEHPAEHPAHHH@Z 004e4450 f   crypto.obj
 0001:000e3880       ?entropy_init@@YAXI@Z      004e4880 f   crypto.obj
 0001:000e3b50       ?seedMT_do@@YAXIPAII@Z     004e4b50 f   crypto.obj
 0001:000e3b80       ?sha512@@YAXPAEPBEH@Z      004e4b80 f   crypto.obj
 0001:000e3e20       ?sha512_compress@@YAXPA_KPBE@Z 004e4e20 f   crypto.obj
 0001:000e4c80       ?hash@tiger@@YAXPBEHAAThashval@1@@Z 004e5c80 f   crypto.obj
 0001:000e4cf0       ?hash_finish@tiger@@YAXAAThashval@1@PAUincremental_buffer@1@@Z 004e5cf0 f   crypto.obj
 0001:000e4dc0       ?hash_incremental@tiger@@YAXPBEHAAThashval@1@PAUincremental_buffer@1@@Z 004e5dc0 f   crypto.obj
 0001:000e4e50       ?hash_init@tiger@@YAPAUincremental_buffer@1@AAThashval@1@@Z 004e5e50 f   crypto.obj
 0001:000e4eb0       ?gensboxes@tiger@@YAXXZ    004e5eb0 f   crypto.obj
 0001:000e5090       ?compress@tiger@@YAXPB_KQA_K@Z 004e6090 f   crypto.obj
 0001:000e5ad0       ?authsetup@@YAXPAPADH@Z    004e6ad0 f   crypto.obj
 0001:000e6340       ?seedMT@@YAXI@Z            004e7340 f   crypto.obj
 0001:000e6390       ?popMT@@YAXXZ              004e7390 f   crypto.obj
 0001:000e63b0       ?tigerhash@@YAXPAEPBEH@Z   004e73b0 f   crypto.obj
 0001:000e63c0       ?entropy_add_block@@YAXPBEH@Z 004e73c0 f   crypto.obj
 0001:000e64e0       ?entropy_save@@YAXXZ       004e74e0 f   crypto.obj
 0001:000e65a0       ?hex2bin@@YAHPAEPBDH@Z     004e75a0 f   crypto.obj
 0001:000e6630       ?tigerhash_init@@YAPAXPAE@Z 004e7630 f   crypto.obj
 0001:000e6640       ?tigerhash_finish@@YAXPAEPAX@Z 004e7640 f   crypto.obj
 0001:000e6660       ?tigerhash_add@@YAXPAEPBXHPAX@Z 004e7660 f   crypto.obj
 0001:000e6700       ?entropy_add_byte@@YAXE@Z  004e7700 f   crypto.obj
 0001:000e6750       ?ed25519_pubkey_from_private@@YAXPAEPBE@Z 004e7750 f   crypto.obj
 0001:000e67b0       ?entropy_get@@YAXPAEH@Z    004e77b0 f   crypto.obj
 0001:000e6860       ?bin2hex@@YAPBDPADPBEH@Z   004e7860 f   crypto.obj
 0001:000e68b0       ?ed25519_sign@@YAXPAEPAHPBEH2@Z 004e78b0 f   crypto.obj
 0001:000e6ae0       ?ed25519_sign_check@@YAPAEPAEHPBE@Z 004e7ae0 f   crypto.obj
 0001:000e6bf0       ?genpwdhash@@YAPBDPBD0H@Z  004e7bf0 f   crypto.obj
 0001:000e6c90       ?randomMT@@YAIXZ           004e7c90 f   crypto.obj
 0001:000e6de0       ?renderdocmenu@@YAXPAX_N@Z 004e7de0 f   docs.obj
 0001:000e6fd0       ?renderdocsection@@YAXPAX_N@Z 004e7fd0 f   docs.obj
 0001:000e7260       ?msectionsort@@YAHPBUmsection@@0@Z 004e8260 f   docs.obj
 0001:000e72a0       ?docs_parsecmd@@YAHPBD0QAPBDQAH_NPAH@Z 004e82a0 f   docs.obj
 0001:000e75c0       ?docwritetodoref@@YAXPAH@Z 004e85c0 f   docs.obj
 0001:000e75f0       ?docwritebaseref@@YAXPAD00@Z 004e85f0 f   docs.obj
 0001:000e7610       ?docwriteref@@YAXHPBD00@Z  004e8610 f   docs.obj
 0001:000e7fd0       ?xmlstringenc@@YAPADPADPBDI@Z 004e8fd0 f   docs.obj
 0001:000e8140       ?getdoc@@YAXPADPAH@Z       004e9140 f   docs.obj
 0001:000e81d0       ?docfind@@YAXPADPAH@Z      004e91d0 f   docs.obj
 0001:000e85a0       ?docinvalid@@YAXXZ         004e95a0 f   docs.obj
 0001:000e8960       ?docundone@@YAXPAH@Z       004e9960 f   docs.obj
 0001:000e89e0       ?listundoneidents@@YAXAAU?$vector@PBD@@H@Z 004e99e0 f   docs.obj
 0001:000e8f80       ?cvecstr@@YAPADAAU?$vector@PAD@@PBDPAH@Z 004e9f80 f   docs.obj
 0001:000e8fd0       ?adddockey@@YAXPAD00@Z     004e9fd0 f   docs.obj
 0001:000e9070       ?adddocexample@@YAXPAD0@Z  004ea070 f   docs.obj
 0001:000e9180       ?adddocref@@YAXPAD@Z       004ea180 f   docs.obj
 0001:000e91c0       ?adddocremark@@YAXPAD@Z    004ea1c0 f   docs.obj
 0001:000e9200       ?adddocargument@@YAXPAD000@Z 004ea200 f   docs.obj
 0001:000e93d0       ?adddocident@@YAXPAD0@Z    004ea3d0 f   docs.obj
 0001:000e9630       ?adddocsection@@YAXPAD@Z   004ea630 f   docs.obj
 0001:000e9760       ?toggledoc@@YAXXZ          004ea760 f   docs.obj
 0001:000e9780       ?scrolldoc@@YAXH@Z         004ea780 f   docs.obj
 0001:000e97a0       ?docgetdesc@@YAPBDPBD@Z    004ea7a0 f   docs.obj
 0001:000e97c0       ?renderdoc@@YAXHHH@Z       004ea7c0 f   docs.obj
 0001:000ead70       ?connect@httpget@@QAE_N_N@Z 004ebd70 f   http.obj
 0001:000eaf40       ?hcont@@YAHPAX@Z           004ebf40 f   http.obj
 0001:000eaf70       ?execcallback@httpget@@QAE_NM@Z 004ebf70 f   http.obj
 0001:000eafa0       ?set@urlparse@@QAEXPBD@Z   004ebfa0 f   http.obj
 0001:000eb170       ?set_port@httpget@@QAEXH@Z 004ec170 f   http.obj
 0001:000eb1b0       ?disconnect@httpget@@QAEXXZ 004ec1b0 f   http.obj
 0001:000eb1d0       ?reset@httpget@@QAEXH@Z    004ec1d0 f   http.obj
 0001:000eb2c0       ?set_host@httpget@@QAE_NPBD@Z 004ec2c0 f   http.obj
 0001:000eb390       ?urlencode@@YAPADPBD_N@Z   004ec390 f   http.obj
 0001:000eb520       ?get@httpget@@QAEHPBDIIH_N@Z 004ec520 f   http.obj
 0001:000ec410       ?logworkerthread@@YAHPAX@Z 004ed410 f   log.obj
 0001:000ec640       ?xlog@@YAXHPBDZZ           004ed640 f   log.obj
 0001:000ec830       ?mlog@@YAXHPBDZZ           004ed830 f   log.obj
 0001:000ec940       ?logcheck@@YA_NH@Z         004ed940 f   log.obj
 0001:000ec950       ?poll_logbuffers@@YAXXZ    004ed950 f   log.obj
 0001:000ecb30       ?tlog@@YAXHPBDZZ           004edb30 f   log.obj
 0001:000ecc70       ?exitlogging@@YAXXZ        004edc70 f   log.obj
 0001:000eccb0       ?initlogging@@YA_NPBDHHHH_N0@Z 004edcb0 f   log.obj
 0001:000ed0a0       _SDL_main                  004ee0a0 f   main.obj
 0001:000edfe0       ?initclientlog@@YAXXZ      004eefe0 f   main.obj
 0001:000ee110       ?afterauth@@YAXXZ          004ef110 f   main.obj
 0001:000ee180       ?connectprotocol@@YAXPAD@Z 004ef180 f   main.obj
 0001:000ee3a0       ?createconfigtemplates@@YAXPBD@Z 004ef3a0 f   main.obj
 0001:000ee670       ?autostartscripts@@YAXPBD@Z 004ef670 f   main.obj
 0001:000ee7b0       ?rndmapname@@YAPBDXZ       004ef7b0 f   main.obj
 0001:000ee880       ?var_clockfix@@YAXXZ       004ef880 f   main.obj
 0001:000ee8a0       ?var_clockerror@@YAXXZ     004ef8a0 f   main.obj
 0001:000ee8e0       ?var_paused@@YAXXZ         004ef8e0 f   main.obj
 0001:000ee920       ?var_gamespeed@@YAXXZ      004ef920 f   main.obj
 0001:000ee960       ?checkinput@@YAXXZ         004ef960 f   main.obj
 0001:000ef9c0       ?pushevent@@YAXABTSDL_Event@@@Z 004f09c0 f   main.obj
 0001:000ef9d0       ?fpsrange@@YAXPAH0@Z       004f09d0 f   main.obj
 0001:000efa00       ?limitfps@@YAXAAHH@Z       004f0a00 f   main.obj
 0001:000efa70       ?var_maxfps@@YAXXZ         004f0a70 f   main.obj
 0001:000efa90       ?resetgl@@YAXXZ            004f0a90 f   main.obj
 0001:000f01b0       ?setupscreen@@YAXAAH0@Z    004f11b0 f   main.obj
 0001:000f05a0       ?getdisplayresolutions@@YAXXZ 004f15a0 f   main.obj
 0001:000f0670       ?restoregamma@@YAXXZ       004f1670 f   main.obj
 0001:000f06d0       ?var_gamma@@YAXXZ          004f16d0 f   main.obj
 0001:000f0730       ?setgamma@@YAHH@Z          004f1730 f   main.obj
 0001:000f0820       ?setresdata@@YAXPADI@Z     004f1820 f   main.obj
 0001:000f0870       ?screenres@@YAXHH@Z        004f1870 f   main.obj
 0001:000f0930       ?updatescreensize@@YAXXZ   004f1930 f   main.obj
 0001:000f0990       ?screenshotpreview@@YAXPAH@Z 004f1990 f   main.obj
 0001:000f0a90       ?mapshot@@YAXXZ            004f1a90 f   main.obj
 0001:000f0b80       ?screenshot@@YAXPBD@Z      004f1b80 f   main.obj
 0001:000f0de0       ?getscrext@@YAPBDXZ        004f1de0 f   main.obj
 0001:000f0e20       ?mapscreenshot@@YAXPBD_NHMHH@Z 004f1e20 f   main.obj
 0001:000f1400       ?encode@jpegenc@@QAEHPBDPAUSDL_Surface@@H0@Z 004f2400 f   main.obj
 0001:000f1d40       ?main_encoder@jpegenc@@AAEXXZ 004f2d40 f   main.obj
 0001:000f1f70       ?load_data_units_from_RGB_buffer@jpegenc@@AAEXGG@Z 004f2f70 f   main.obj
 0001:000f20c0       ?process_DU@jpegenc@@AAEXPACPAMPAFPAUbitstring@@3@Z 004f30c0 f   main.obj
 0001:000f2260       ?fdct_and_quantization@jpegenc@@AAEXPACPAMPAF@Z 004f3260 f   main.obj
 0001:000f2580       ?prepare_quant_tables@jpegenc@@AAEXXZ 004f3580 f   main.obj
 0001:000f2670       ?precalculate_YCbCr_tables@jpegenc@@AAEXXZ 004f3670 f   main.obj
 0001:000f2740       ?set_numbers_category_and_bitcode@jpegenc@@AAEHXZ 004f3740 f   main.obj
 0001:000f2850       ?init_Huffman_tables@jpegenc@@AAEXXZ 004f3850 f   main.obj
 0001:000f28b0       ?compute_Huffman_table@jpegenc@@AAEXPAE0PAUbitstring@@@Z 004f38b0 f   main.obj
 0001:000f2910       ?writebits@jpegenc@@AAEXUbitstring@@@Z 004f3910 f   main.obj
 0001:000f29d0       ?write_comment@jpegenc@@AAEXPBD@Z 004f39d0 f   main.obj
 0001:000f2a70       ?write_SOSinfo@jpegenc@@AAEXXZ 004f3a70 f   main.obj
 0001:000f2b90       ?set_DHTinfo@jpegenc@@AAEXXZ 004f3b90 f   main.obj
 0001:000f2cd0       ?write_DHTinfo@jpegenc@@AAEXXZ 004f3cd0 f   main.obj
 0001:000f2eb0       ?set_DQTinfo@jpegenc@@AAEXH@Z 004f3eb0 f   main.obj
 0001:000f2f20       ?set_quant_table@jpegenc@@AAEXPAEE0@Z 004f3f20 f   main.obj
 0001:000f2f90       ?write_DQTinfo@jpegenc@@AAEXXZ 004f3f90 f   main.obj
 0001:000f3040       ?write_SOF0info@jpegenc@@AAEXXZ 004f4040 f   main.obj
 0001:000f3190       ?write_APP1info@jpegenc@@AAEXXZ 004f4190 f   main.obj
 0001:000f3240       ?write_APP0info@jpegenc@@AAEXXZ 004f4240 f   main.obj
 0001:000f3370       ?save_png@@YAHPBDPAUSDL_Surface@@@Z 004f4370 f   main.obj
 0001:000f3930       ?writepngchunk@@YAXPAUstream@@PBDPBXI@Z 004f4930 f   main.obj
 0001:000f39e0       ?var_lang@@YAXXZ           004f49e0 f   main.obj
 0001:000f3a40       ?var_fullscreendesktop@@YAXXZ 004f4a40 f   main.obj
 0001:000f3aa0       ?resetfullscreen@@YAXXZ    004f4aa0 f   main.obj
 0001:000f3b00       ?var_fullscreen@@YAXXZ     004f4b00 f   main.obj
 0001:000f3b10       ?setfullscreen@@YAX_N@Z    004f4b10 f   main.obj
 0001:000f3be0       ?inputgrab@@YAX_N0@Z       004f4be0 f   main.obj
 0001:000f3ca0       ?var_vsync@@YAXXZ          004f4ca0 f   main.obj
 0001:000f3cc0       ?var_fsaa@@YAXXZ           004f4cc0 f   main.obj
 0001:000f3ce0       ?var_stencilbits@@YAXXZ    004f4ce0 f   main.obj
 0001:000f3d00       ?var_depthbits@@YAXXZ      004f4d00 f   main.obj
 0001:000f3d20       ?var_scr_h@@YAXXZ          004f4d20 f   main.obj
 0001:000f3d40       ?var_scr_w@@YAXXZ          004f4d40 f   main.obj
 0001:000f3d60       ?quit@@YAXXZ               004f4d60 f   main.obj
 0001:000f3e30       ?cleanup@@YAXPAD@Z         004f4e30 f   main.obj
 0001:000f3fa0       ?writeinitcfg@@YAXXZ       004f4fa0 f   main.obj
 0001:000f41e0       ?textinput@@YAX_NH@Z       004f51e0 f   main.obj
 0001:000f4230       ?keyrepeat@@YAX_NH@Z       004f5230 f   main.obj
 0001:000f4250       ?interceptkey@@YA_NH@Z     004f5250 f   main.obj
 0001:000f4300       ?initwarning@@YA_NPBDHH@Z  004f5300 f   main.obj
 0001:000f43b0       ?fatal@@YAXPBDZZ           004f53b0 f   main.obj
 0001:000f44f0       ?renderbg@gmenu@@QAEXHHHH_N@Z 004f54f0 f   menus.obj
 0001:000f4550       ?render@gmenu@@QAEXXZ      004f5550 f   menus.obj
 0001:000f4e60       ?rendermenutexturepreview@@YAXPADHPBD@Z 004f5e60 f   menus.obj
 0001:000f5050       ?headeritems@gmenu@@QAEHXZ 004f6050 f   menus.obj
 0001:000f50d0       ?init@gmenu@@QAEXXZ        004f60d0 f   menus.obj
 0001:000f59c0       ?conprintmenu@gmenu@@QAEXXZ 004f69c0 f   menus.obj
 0001:000f5a50       ?close@gmenu@@QAEXXZ       004f6a50 f   menus.obj
 0001:000f5a70       ?open@gmenu@@QAEXXZ        004f6a70 f   menus.obj
 0001:000f5b50       ?refresh@gmenu@@QAEXXZ     004f6b50 f   menus.obj
 0001:000f5b90       ?movemenuselection@@YAHHH@Z 004f6b90 f   menus.obj
 0001:000f5c80       ?menuselectiondescbgcolor@@YAXPAD000@Z 004f6c80 f   menus.obj
 0001:000f5ce0       ?menuselectionbgcolor@@YAXPAD000@Z 004f6ce0 f   menus.obj
 0001:000f5d40       ?parsecolor@@YA_NPAUcolor@@PBD111@Z 004f6d40 f   menus.obj
 0001:000f5e20       ?chmenutexture@@YAXPAD00@Z 004f6e20 f   menus.obj
 0001:000f5ee0       ?menudirlistsub@@YAXPADPAH@Z 004f6ee0 f   menus.obj
 0001:000f5f40       ?menudirlist@@YAXPAD00PAH0@Z 004f6f40 f   menus.obj
 0001:000f6010       ?menumdl@@YAXPAD00PAH1@Z   004f7010 f   menus.obj
 0001:000f60d0       ?menuitemspectkeyinput@@YAXPAD0@Z 004f70d0 f   menus.obj
 0001:000f6180       ?menuitemeditkeyinput@@YAXPAD0@Z 004f7180 f   menus.obj
 0001:000f6230       ?menuitemkeyinput@@YAXPAD0@Z 004f7230 f   menus.obj
 0001:000f62e0       ?menuitemcheckbox@@YAXPAD00PAH@Z 004f72e0 f   menus.obj
 0001:000f6400       ?menuitemradio@@YAXPADPAH1000@Z 004f7400 f   menus.obj
 0001:000f64f0       ?menuitemslider@@YAXPADPAH10001@Z 004f74f0 f   menus.obj
 0001:000f65e0       ?menuitemtextinput@@YAXPAD000PAH1@Z 004f75e0 f   menus.obj
 0001:000f6740       ?menuitemmapload@@YAXPAD000@Z 004f7740 f   menus.obj
 0001:000f68d0       ?menuitemaltfont@@YAXPAD0000@Z 004f78d0 f   menus.obj
 0001:000f6a50       ?menuitemimage@@YAXPAD000@Z 004f7a50 f   menus.obj
 0001:000f6c30       ?menuitem@@YAXPAD000@Z     004f7c30 f   menus.obj
 0001:000f6dc0       ?menuitemgreyedout@@YAXPAH@Z 004f7dc0 f   menus.obj
 0001:000f6dd0       ?menuselection@@YAXPADPAH@Z 004f7dd0 f   menus.obj
 0001:000f6e00       ?menurenderoffset@@YAXPAH0@Z 004f7e00 f   menus.obj
 0001:000f6e20       ?menusynctabstops@@YAXPAH@Z 004f7e20 f   menus.obj
 0001:000f6e40       ?menuselectionpersistent@@YAXXZ 004f7e40 f   menus.obj
 0001:000f6ed0       ?menuinitselection@@YAXPAH@Z 004f7ed0 f   menus.obj
 0001:000f6f00       ?menuinit@@YAXPAD@Z        004f7f00 f   menus.obj
 0001:000f6f60       ?menutitle@@YAXPAD@Z       004f7f60 f   menus.obj
 0001:000f6fc0       ?setmenublink@@YAXPAH@Z    004f7fc0 f   menus.obj
 0001:000f6fe0       ?menufont@@YAXPADPBD@Z     004f7fe0 f   menus.obj
 0001:000f7100       ?delmenu@@YAXPBD@Z         004f8100 f   menus.obj
 0001:000f7120       ?newmenu@@YAXPADPAH1@Z     004f8120 f   menus.obj
 0001:000f7160       ?isselection@mitem@@QAE_NXZ 004f8160 f   menus.obj
 0001:000f7190       ?execaction@mitem@@QAEHPBD@Z 004f8190 f   menus.obj
 0001:000f7220       ?renderbg@mitem@@QAEXHHHPAUcolor@@@Z 004f8220 f   menus.obj
 0001:000f72c0       ?render@mitem@@UAEXHHH@Z   004f82c0 f   menus.obj
 0001:000f7320       ?drawarrow@@YAXHHHHMMM@Z   004f8320 f   menus.obj
 0001:000f7430       ?menuselect@@YAXPAXH@Z     004f8430 f   menus.obj
 0001:000f7520       ?normalizemenuselection@@YAHHH@Z 004f8520 f   menus.obj
 0001:000f7540       ?persistentmenuselectionalias@@YAPBDPBD@Z 004f8540 f   menus.obj
 0001:000f7580       ?showmenu_@@YAXPBD@Z       004f8580 f   menus.obj
 0001:000f7600       ?menuset@@YAXPAX_N@Z       004f8600 f   menus.obj
 0001:000f77a0       ?addchange@@YAXPBDH@Z      004f87a0 f   menus.obj
 0001:000f7840       ?clearchanges@@YAXH@Z      004f8840 f   menus.obj
 0001:000f7870       ?refreshapplymenu@@YAXPAX_N@Z 004f8870 f   menus.obj
 0001:000f7b20       ?addmenu@@YAPAXPBD0_NP6AXPAX1@ZP6A_N2H1@Z11@Z 004f8b20 f   menus.obj
 0001:000f7c00       ?menusay@@YAXPBD@Z         004f8c00 f   menus.obj
 0001:000f7c30       ?menukey@@YA_NH_NW4SDL_Keymod@@@Z 004f8c30 f   menus.obj
 0001:000f8090       ?menuimagemanual@@YAXPAXPBD1PAD2PAUcolor@@1@Z 004f9090 f   menus.obj
 0001:000f8140       ?menuheader@@YAXPAXPAD1_N@Z 004f9140 f   menus.obj
 0001:000f81c0       ?menutitlemanual@@YAXPAXPBD@Z 004f91c0 f   menus.obj
 0001:000f81d0       ?closemenu@@YAXPBD@Z       004f91d0 f   menus.obj
 0001:000f8300       ?menureset@@YAXPAX@Z       004f9300 f   menus.obj
 0001:000f8330       ?menuitemmanual@@YAXPAXPAD1PAUcolor@@PBD@Z 004f9330 f   menus.obj
 0001:000f83a0       ?showmenu@@YAXPBD_N@Z      004f93a0 f   menus.obj
 0001:000f8490       ?menuvisible@@YA_NXZ       004f9490 f   menus.obj
 0001:000f84a0       ?rendermenu@@YAXXZ         004f94a0 f   menus.obj
 0001:000f8530       ?rendermenumdl@@YAXXZ      004f9530 f   menus.obj
 0001:000f8810       ?openrawfile@@YAPAUstream@@PBD0@Z 004f9810 f   stream.obj
 0001:000f8890       ?openmemfile@@YAPAUstream@@PBEHPAH@Z 004f9890 f   stream.obj
 0001:000f88d0       ?getline@stream@@UAE_NPADH@Z 004f98d0 f   stream.obj
 0001:000f8940       ?size@stream@@UAEJXZ       004f9940 f   stream.obj
 0001:000f8a40       ?listdir@@YA_NPBD0AAU?$vector@PAD@@@Z 004f9a40 f   stream.obj
 0001:000f8bb0       ?listsubdir@@YA_NPBDAAU?$vector@PAD@@@Z 004f9bb0 f   stream.obj
 0001:000f8cf0       ?getregszvalue@@YAPADPAUHKEY__@@PBD1@Z 004f9cf0 f   stream.obj
 0001:000f8db0       ?fixpackagedir@@YAIPAD@Z   004f9db0 f   stream.obj
 0001:000f8de0       ?createdir@@YA_NPBD@Z      004f9de0 f   stream.obj
 0001:000f8e30       ?stream_capabilities@@YAPBDXZ 004f9e30 f   stream.obj
 0001:000f8e40       ?sethomedir@@YAXPBD@Z      004f9e40 f   stream.obj
 0001:000f9060       ?addpackagedir@@YAXPBD@Z   004fa060 f   stream.obj
 0001:000f9180       ?havehomedir@@YA_NXZ       004fa180 f   stream.obj
 0001:000f9190       ?unixpath@@YAPADPAD@Z      004fa190 f   stream.obj
 0001:000f91c0       ?streamcopy@@YAHPAUstream@@0H@Z 004fa1c0 f   stream.obj
 0001:000f9220       ?filerotate@@YAXPBD0H0@Z   004fa220 f   stream.obj
 0001:000f9330       ?delfile@@YA_NPBD@Z        004fa330 f   stream.obj
 0001:000f9360       ?listsubdirs@@YAXPBDAAU?$vector@PAD@@P6AHPAPBD2@Z@Z 004fa360 f   stream.obj
 0001:000f94b0       ?loadfile@@YAPADPBDPAH0@Z  004fa4b0 f   stream.obj
 0001:000f9560       ?getfilesize@@YAHPBD@Z     004fa560 f   stream.obj
 0001:000f9610       ?backup@@YAXPAD0@Z         004fa610 f   stream.obj
 0001:000f9670       ?openvecfile@@YAPAUstream@@PAU?$vector@E@@_N@Z 004fa670 f   stream.obj
 0001:000f96c0       ?findfile@@YAPBDPBD0@Z     004fa6c0 f   stream.obj
 0001:000f9910       ?rwops@stream@@QAEPAUSDL_RWops@@XZ 004fa910 f   stream.obj
 0001:000f9940       ?path@@YAPADPBD_N@Z        004fa940 f   stream.obj
 0001:000f9970       ?listfilesrecursive@@YAXPBDAAU?$vector@PAD@@H@Z 004fa970 f   stream.obj
 0001:000f9b70       ?fileexists@@YA_NPBD0@Z    004fab70 f   stream.obj
 0001:000f9ba0       ?opengzfile@@YAPAUstream@@PBD0PAU1@H@Z 004faba0 f   stream.obj
 0001:000f9c70       ?openfile@@YAPAUstream@@PBD0@Z 004fac70 f   stream.obj
 0001:000f9d10       ?parentdir@@YAPBDPBD@Z     004fad10 f   stream.obj
 0001:000f9d60       ?path@@YAPADPAD@Z          004fad60 f   stream.obj
 0001:000f9eb0       ?listfiles@@YAXPBD0AAU?$vector@PAD@@P6AHPAPBD2@Z@Z 004faeb0 f   stream.obj
 0001:000fa030       ?listdirsrecursive@@YAXPBDAAU?$vector@PAD@@H@Z 004fb030 f   stream.obj
 0001:000fa1b0       ?behindpath@@YAPBDPBD@Z    004fb1b0 f   stream.obj
 0001:000fa250       ?adjoint@glmatrixf@@QAEXABU1@@Z 004fb250 f   tools.obj
 0001:000fa7e0       ?cvecconcat@@YAHAAU?$vector@D@@PBD@Z 004fb7e0 f   tools.obj
 0001:000fa830       ?cmpb@@YA_NPAXHI@Z         004fb830 f   tools.obj
 0001:000fa860       ?cmpintdesc@@YAHPBH0@Z     004fb860 f   tools.obj
 0001:000fa870       ?stringsortrev@@YAHPAPBD0@Z 004fb870 f   tools.obj
 0001:000fa8b0       ?stringsortignorecaserev@@YAHPAPBD0@Z 004fb8b0 f   tools.obj
 0001:000fa8d0       ?stackdumper@@YAXIPAU_EXCEPTION_POINTERS@@@Z 004fb8d0 f   tools.obj
 0001:000fab40       ?sl_detachthread@@YAXPAX@Z 004fbb40 f   tools.obj
 0001:000face0       ?sl_sleep@@YAXH@Z          004fbce0 f   tools.obj
 0001:000facf0       ?sl_pollthread@@YA_NPAX@Z  004fbcf0 f   tools.obj
 0001:000fad00       ?sl_waitthread@@YAHPAX@Z   004fbd00 f   tools.obj
 0001:000fad30       ?parseupdatelist@@YAXAAU?$hashtable@PBDH@@PADPBD2@Z 004fbd30 f   tools.obj
 0001:000faf50       ?stringsortignorecase@@YAHPAPBD0@Z 004fbf50 f   tools.obj
 0001:000faf70       ?cmpf@@YA_NPADI@Z          004fbf70 f   tools.obj
 0001:000fb010       ?createservworld@@YAPAUservsqr@@PBUsqr@@H@Z 004fc010 f   tools.obj
 0001:000fb090       ?fixmapheadersize@@YAHHH@Z 004fc090 f   tools.obj
 0001:000fb0c0       ?transformoldentitytypes@@YAXHAAE@Z 004fc0c0 f   tools.obj
 0001:000fb0f0       ?calcentitystats@@YAXAAUentitystats_s@@PBUpersistent_entity@@H@Z 004fc0f0 f   tools.obj
 0001:000fb590       ?calcmapdims@@YAHAAUmapdim_s@@PBUservsqr@@H@Z 004fc590 f   tools.obj
 0001:000fb6e0       ?calcmapareastats@@YAHAAUmapareastats_s@@PAUservsqr@@HABUmapdim_s@@@Z 004fc6e0 f   tools.obj
 0001:000fbf90       ?getvalue@sl_semaphore@@QAEHXZ 004fcf90 f   tools.obj
 0001:000fbfa0       ?trywait@sl_semaphore@@QAEHXZ 004fcfa0 f   tools.obj
 0001:000fbfb0       ??1sl_semaphore@@QAE@XZ    004fcfb0 f   tools.obj
 0001:000fbfc0       ?atoipr@@YAPBDPBDPAUiprange@@@Z 004fcfc0 f   tools.obj
 0001:000fc070       ?cmpiprange@@YAHPBUiprange@@0@Z 004fd070 f   tools.obj
 0001:000fc090       ?iprtoa@@YAPBDABUiprange@@PAD@Z 004fd090 f   tools.obj
 0001:000fc120       ?cmpipmatch@@YAHPBUiprange@@0@Z 004fd120 f   tools.obj
 0001:000fc140       ?strtoupper@@YAXPADPBD@Z   004fd140 f   tools.obj
 0001:000fc180       ?hiddenpwd@@YAPBDPBDH@Z    004fd180 f   tools.obj
 0001:000fc1e0       ?atoip@@YAPBDPBDPAI@Z      004fd1e0 f   tools.obj
 0001:000fc280       ?asctimestr@@YAPBDXZ       004fd280 f   tools.obj
 0001:000fc2d0       ?ismainthread@@YA_NXZ      004fd2d0 f   tools.obj
 0001:000fc2e0       ?timedwait@sl_semaphore@@QAEHH@Z 004fd2e0 f   tools.obj
 0001:000fc300       ?sl_createthread@@YAPAXP6AHPAX@Z0PBD@Z 004fd300 f   tools.obj
 0001:000fc340       ?peekmapheader@@YAPAUheader@@PAEH@Z 004fd340 f   tools.obj
 0001:000fc3c0       ?formatdemofilename@@YAPADPBD00HHHHIPAD@Z 004fd3c0 f   tools.obj
 0001:000fcb70       ?iptoa@@YAPBDIPAD@Z        004fdb70 f   tools.obj
 0001:000fcbb0       ??0sl_semaphore@@QAE@HPAH@Z 004fdbb0 f   tools.obj
 0001:000fcbe0       ?wait@sl_semaphore@@QAEXXZ 004fdbe0 f   tools.obj
 0001:000fcc00       ?post@sl_semaphore@@QAEXXZ 004fdc00 f   tools.obj
 0001:000fcc20       ?isbigendian@@YA_NXZ       004fdc20 f   tools.obj
 0001:000fcc30       ?adler@@YAIPAEI@Z          004fdc30 f   tools.obj
 0001:000fcc60       ?numtime@@YAPBDXZ          004fdc60 f   tools.obj
 0001:000fccc0       ?cmpintasc@@YAHPBH0@Z      004fdcc0 f   tools.obj
 0001:000fccd0       ?strtok_r@@YAPADPADPBDPAPAD@Z 004fdcd0 f   tools.obj
 0001:000fcd20       ?concatformatstring@@YAPADPADPBDZZ 004fdd20 f   tools.obj
 0001:000fcd80       ?cvecprintf@@YAHAAU?$vector@D@@PBDZZ 004fdd80 f   tools.obj
 0001:000fce00       ?stringsort@@YAHPAPBD0@Z   004fde00 f   tools.obj
 0001:000fce40       ?getlistindex@@YAHPBDQAPBD_NH@Z 004fde40 f   tools.obj
 0001:000fceb0       ?timestring@@YAPBD_J_NPBDPAD@Z 004fdeb0 f   tools.obj
 0001:000fcf00       ?invert@glmatrixf@@QAE_NABU1@M@Z 004fdf00 f   tools.obj
 0001:000fd0f0       ?cleanupmultitex@@YAXII@Z  004fe0f0 f   water.obj
 0001:000fd150       ?setupmultitexreflect@@YAXI@Z 004fe150 f   water.obj
 0001:000fd260       ?setupmultitexrefract@@YAXII@Z 004fe260 f   water.obj
 0001:000fd410       ?setprojtexmatrix@@YAXXZ   004fe410 f   water.obj
 0001:000fd810       ?setwatercolour@@YAXPADPAH@Z 004fe810 f   water.obj
 0001:000fd890       ?getwatercolour@@YAXXZ     004fe890 f   water.obj
 0001:000fd940       ?var_waterlevel@@YAXXZ     004fe940 f   water.obj
 0001:000fd9b0       ?addwaterquad@@YAXHHH@Z    004fe9b0 f   water.obj
 0001:000fda20       ?setwatercolor@@YAXPBD000@Z 004fea20 f   water.obj
 0001:000fdaa0       ?renderwater@@YAHMII@Z     004feaa0 f   water.obj
 0001:001000b0       ?calcwaterscissor@@YAXXZ   005010b0 f   water.obj
 0001:00100820       ?resetwater@@YAXXZ         00501820 f   water.obj
 0001:001008f0       ?zipmanualstream@@YAPAUstream@@PAXH@Z 005018f0 f   zip.obj
 0001:00100950       ?zipmodgetrevision@@YAXPAD@Z 00501950 f   zip.obj
 0001:00100b40       ?zipmodgetfiles@@YAXPAD@Z  00501b40 f   zip.obj
 0001:00100cd0       ?zipmodgetdesc@@YAXPAD@Z   00501cd0 f   zip.obj
 0001:00101160       ?zipmodlist@@YAXPAD@Z      00502160 f   zip.obj
 0001:001013e0       ?zipmodclear@@YAXXZ        005023e0 f   zip.obj
 0001:001014a0       ?zipmodremove@@YAXPAD@Z    005024a0 f   zip.obj
 0001:00101520       ?addzipmod@@YAXPAD@Z       00502520 f   zip.obj
 0001:00101a40       ?fixzipname@@YAPBDPAD@Z    00502a40 f   zip.obj
 0001:00101c10       ?findzip@@YAPAUziparchive@@PBD@Z 00502c10 f   zip.obj
 0001:00101c80       ?addmemfile@@YA_NPADPAEH@Z 00502c80 f   zip.obj
 0001:00102630       ?findzipfile@@YA_NPBD@Z    00503630 f   zip.obj
 0001:00102660       ?listzipdirs@@YAXPBDAAU?$vector@PAD@@@Z 00503660 f   zip.obj
 0001:001027d0       ?listzipfiles@@YAXPBD0AAU?$vector@PAD@@@Z 005037d0 f   zip.obj
 0001:001029d0       ?writezipmodconfig@@YAXPAUstream@@@Z 005039d0 f   zip.obj
 0001:00102a20       ?validzipmodname@@YA_NPAD@Z 00503a20 f   zip.obj
 0001:00102a50       ?zipmanualopen@@YAPAXPAUstream@@AAU?$vector@PBD@@@Z 00503a50 f   zip.obj
 0001:00102bb0       ?zipmanualread@@YAHPAXHPAUstream@@H@Z 00503bb0 f   zip.obj
 0001:00102c30       ?zipmanualclose@@YAXPAX@Z  00503c30 f   zip.obj
 0001:00102c80       ?openzipfile@@YAPAUstream@@PBD0@Z 00503c80 f   zip.obj
 0001:00102d50       ?CheckItemPickup@CACBot@@UAEXXZ 00503d50 f   ac_bot.obj
 0001:00102d60       ?Spawn@CACBot@@UAEXXZ      00503d60 f   ac_bot.obj
 0001:00102f70       ?DoSPStuff@CACBot@@UAE_NXZ 00503f70 f   ac_bot_ai.obj
 0001:00102f80       ?HeadToTargetEnt@CACBot@@UAE_NXZ 00503f80 f   ac_bot_ai.obj
 0001:00103200       ?SearchForEnts@CACBot@@UAEPAUentity@@_NMM@Z 00504200 f   ac_bot_ai.obj
 0001:00103680       ?ChoosePreferredWeapon@CACBot@@UAE_NXZ 00504680 f   ac_bot_ai.obj
 0001:00103900       ?SetMoveDir@CBot@@QAEXH_N@Z 00504900 f   bot.obj
 0001:00103980       ?IsVisible@CBot@@QAE_NUvec@@HM_NPAM@Z 00504980 f   bot.obj
 0001:00103e20       ?IsVisible@CBot@@QAE_NPAUentity@@_N@Z 00504e20 f   bot.obj
 0001:00103ec0       ?GetDistance@CBot@@QAEMABUvec@@0@Z 00504ec0 f   bot.obj
 0001:00103f20       ?SendBotInfo@CBot@@QAEXXZ  00504f20 f   bot.obj
 0001:00103f40       ?ChangeAngle@CBot@@QAEMMMM@Z 00504f40 f   bot.obj
 0001:00103fd0       ?AimToIdeal@CBot@@QAEXXZ   00504fd0 f   bot.obj
 0001:00104350       ?Think@CBot@@UAEXXZ        00505350 f   bot.obj
 0001:00104590       ?Spawn@CBot@@UAEXXZ        00505590 f   bot.obj
 0001:001047c0       ??1CBot@@UAE@XZ            005057c0 f   bot.obj
 0001:001048c0       ?GetDistance@CBot@@QAEMABUvec@@@Z 005058c0 f   bot.obj
 0001:00104920       ?SelectGun@CBot@@QAE_NH@Z  00505920 f   bot.obj
 0001:001049a0       ?AimToVec@CBot@@QAEXABUvec@@@Z 005059a0 f   bot.obj
 0001:00104aa0       ?IsInFOV@CBot@@QAE_NABUvec@@@Z 00505aa0 f   bot_ai.obj
 0001:00104b90       ?CheckItems@CBot@@QAE_NXZ  00505b90 f   bot_ai.obj
 0001:00104ce0       ?WaterNav@CBot@@QAE_NXZ    00505ce0 f   bot_ai.obj
 0001:00105190       ?CheckFOV@CBot@@QAEXXZ     00506190 f   bot_ai.obj
 0001:00105bb0       ?CheckStrafe@CBot@@QAE_NXZ 00506bb0 f   bot_ai.obj
 0001:001060f0       ?CheckCrouch@CBot@@QAE_NXZ 005070f0 f   bot_ai.obj
 0001:00106270       ?CheckJump@CBot@@QAE_NXZ   00507270 f   bot_ai.obj
 0001:001063f0       ?CheckStuck@CBot@@QAE_NXZ  005073f0 f   bot_ai.obj
 0001:00106970       ?DoCombatNav@CBot@@QAEXXZ  00507970 f   bot_ai.obj
 0001:001077f0       ?CheckScope@CBot@@QAEXXZ   005087f0 f   bot_ai.obj
 0001:001078f0       ?CheckReload@CBot@@QAEXXZ  005088f0 f   bot_ai.obj
 0001:00107950       ?GetShootDelay@CBot@@QAEHXZ 00508950 f   bot_ai.obj
 0001:00107970       ?ShootEnemy@CBot@@QAEXXZ   00508970 f   bot_ai.obj
 0001:00107cc0       ?CheckWeaponSwitch@CBot@@QAEXXZ 00508cc0 f   bot_ai.obj
 0001:00107d60       ?HuntEnemy@CBot@@QAE_NXZ   00508d60 f   bot_ai.obj
 0001:00108670       ?CheckHunt@CBot@@QAE_NXZ   00509670 f   bot_ai.obj
 0001:00109460       ?FindEnemy@CBot@@QAE_NXZ   0050a460 f   bot_ai.obj
 0001:00109890       ?DetectEnemy@CBot@@QAE_NPAVplayerent@@@Z 0050a890 f   bot_ai.obj
 0001:00109a00       ?BotsAgainstHumans@CBot@@QAE_NXZ 0050aa00 f   bot_ai.obj
 0001:00109a10       ?GetEnemyPos@CBot@@QAE?AUvec@@PAVplayerent@@@Z 0050aa10 f   bot_ai.obj
 0001:0010a0e0       ?MainAI@CBot@@QAEXXZ       0050b0e0 f   bot_ai.obj
 0001:0010a520       ?ChoosePreferredWeapon@CBot@@UAE_NXZ 0050b520 f   bot_ai.obj
 0001:0010a530       ?IsReachable@CBot@@QAE_NUvec@@M@Z 0050b530 f   bot_ai.obj
 0001:0010aad0       ?SkillNrToSkillName@@YAPBDF@Z 0050bad0 f   bot_util.obj
 0001:0010ab20       ?CrossProduct@@YA?AUvec@@ABU1@0@Z 0050bb20 f   bot_util.obj
 0001:0010ab80       ?GetDistance@@YAMUvec@@0@Z 0050bb80 f   bot_util.obj
 0001:0010ac10       ?lsrand@@YAXK@Z            0050bc10 f   bot_util.obj
 0001:0010ac30       ?lrand@@YAJXZ              0050bc30 f   bot_util.obj
 0001:0010ac90       ?PredictPos@@YA?AUvec@@U1@0M@Z 0050bc90 f   bot_util.obj
 0001:0010ad20       ?IsInGame@@YA_NPAVdynent@@@Z 0050bd20 f   bot_util.obj
 0001:0010ad60       ?GetDirection@@YAHABUvec@@00@Z 0050bd60 f   bot_util.obj
 0001:0010aec0       ?GetCubeFloor@@YAMHH@Z     0050bec0 f   bot_util.obj
 0001:0010af30       ?Normalize@@YA?AUvec@@U1@@Z 0050bf30 f   bot_util.obj
 0001:0010b060       ?RandomFloat@@YAMMM@Z      0050c060 f   bot_util.obj
 0001:0010b0a0       ?RandomLong@@YAJJJ@Z       0050c0a0 f   bot_util.obj
 0001:0010b0d0       ?WrapXAngle@@YAMM@Z        0050c0d0 f   bot_util.obj
 0001:0010b0f0       ?WrapYZAngle@@YAMM@Z       0050c0f0 f   bot_util.obj
 0001:0010b120       ?AnglesToVectors@@YAXUvec@@AAU1@11@Z 0050c120 f   bot_util.obj
 0001:0010b270       ?TraceLine@@YAXUvec@@0PAVdynent@@_NPAUtraceresult_s@@2@Z 0050c270 f   bot_util.obj
 0001:0010bbf0       ?Get2DDistance@@YAMUvec@@0@Z 0050cbf0 f   bot_util.obj
 0001:0010bc60       ?IsVisible@@YA_NUvec@@0PAVdynent@@_N@Z 0050cc60 f   bot_util.obj
 0001:0010bce0       ?SyncWaypoints@CBot@@QAEXXZ 0050cce0 f   bot_waypoint.obj
 0001:0010bdb0       ?GetWPFromNode@CBot@@QAEPAUwaypoint_s@@PAUnode_s@@@Z 0050cdb0 f   bot_waypoint.obj
 0001:0010be30       ?ReachedGoalWP@CBot@@QAE_NXZ 0050ce30 f   bot_waypoint.obj
 0001:0010bed0       ?CleanAStarLists@CBot@@QAEX_N@Z 0050ced0 f   bot_waypoint.obj
 0001:0010c170       ?AStarCost@CBot@@QAEMPAUwaypoint_s@@0@Z 0050d170 f   bot_waypoint.obj
 0001:0010c1e0       ?AStar@CBot@@QAE_NXZ       0050d1e0 f   bot_waypoint.obj
 0001:0010cef0       ?FindWaypoint@CBot@@QAE_NXZ 0050def0 f   bot_waypoint.obj
 0001:0010d1d0       ?wpflood@@YAXXZ            0050e1d0 f   bot_waypoint.obj
 0001:0010d220       ?setwpyaw@@YAXXZ           0050e220 f   bot_waypoint.obj
 0001:0010d2f0       ?setwptriggernr@@YAXPAH@Z  0050e2f0 f   bot_waypoint.obj
 0001:0010d3c0       ?unsetjumpwp@@YAXXZ        0050e3c0 f   bot_waypoint.obj
 0001:0010d480       ?setjumpwp@@YAXXZ          0050e480 f   bot_waypoint.obj
 0001:0010d540       ?delpath2way2@@YAXXZ       0050e540 f   bot_waypoint.obj
 0001:0010d670       ?delpath2way1@@YAXXZ       0050e670 f   bot_waypoint.obj
 0001:0010d750       ?delpath1way2@@YAXXZ       0050e750 f   bot_waypoint.obj
 0001:0010d870       ?delpath1way1@@YAXXZ       0050e870 f   bot_waypoint.obj
 0001:0010d950       ?addpath2way2@@YAXXZ       0050e950 f   bot_waypoint.obj
 0001:0010da80       ?addpath2way1@@YAXXZ       0050ea80 f   bot_waypoint.obj
 0001:0010db60       ?addpath1way2@@YAXXZ       0050eb60 f   bot_waypoint.obj
 0001:0010dc80       ?addpath1way1@@YAXXZ       0050ec80 f   bot_waypoint.obj
 0001:0010dd60       ?wpinfo@@YAXPAH@Z          0050ed60 f   bot_waypoint.obj
 0001:0010dd80       ?autowp@@YAXPAH@Z          0050ed80 f   bot_waypoint.obj
 0001:0010dda0       ?wpclear@@YAXXZ            0050eda0 f   bot_waypoint.obj
 0001:0010ddb0       ?wpload@@YAXXZ             0050edb0 f   bot_waypoint.obj
 0001:0010ddc0       ?wpsave@@YAXXZ             0050edc0 f   bot_waypoint.obj
 0001:0010ddd0       ?wpvisible@@YAXPAH@Z       0050edd0 f   bot_waypoint.obj
 0001:0010dde0       ?delwp@@YAXXZ              0050ede0 f   bot_waypoint.obj
 0001:0010df60       ?addwp@@YAXPAH@Z           0050ef60 f   bot_waypoint.obj
 0001:0010e030       ?StartFlood@CACWaypointClass@@UAEXXZ 0050f030 f   bot_waypoint.obj
 0001:0010e070       ?GetNodeIndexes@CWaypointClass@@QAEXABUvec@@PAF1@Z 0050f070 f   bot_waypoint.obj
 0001:0010e0d0       ?GetNearestTriggerFloodWP@CWaypointClass@@QAEPAUnode_s@@Uvec@@M@Z 0050f0d0 f   bot_waypoint.obj
 0001:0010e390       ?GetNearestFloodWP@CWaypointClass@@QAEPAUnode_s@@Uvec@@MPAU2@_N@Z 0050f390 f   bot_waypoint.obj
 0001:0010e6c0       ?ConnectFloodWP@CWaypointClass@@QAEXPAUnode_s@@@Z 0050f6c0 f   bot_waypoint.obj
 0001:0010edc0       ?CanPlaceNodeHere@CWaypointClass@@QAE_NABUvec@@@Z 0050fdc0 f   bot_waypoint.obj
 0001:0010f0d0       ?FloodThink@CWaypointClass@@QAEXXZ 005100d0 f   bot_waypoint.obj
 0001:0010f740       ?StartFlood@CWaypointClass@@UAEXXZ 00510740 f   bot_waypoint.obj
 0001:0010f780       ?ReCalcCosts@CWaypointClass@@QAEXXZ 00510780 f   bot_waypoint.obj
 0001:0010f7d0       ?CalcCost@CWaypointClass@@QAEXPAUnode_s@@@Z 005107d0 f   bot_waypoint.obj
 0001:00110090       ?GetWaypointFromVec@CWaypointClass@@QAEPAUnode_s@@ABUvec@@@Z 00511090 f   bot_waypoint.obj
 0001:00110170       ?GetNearestTriggerWaypoint@CWaypointClass@@QAEPAUnode_s@@Uvec@@M@Z 00511170 f   bot_waypoint.obj
 0001:00110440       ?GetNearestWaypoint@CWaypointClass@@QAEPAUnode_s@@Uvec@@M@Z 00511440 f   bot_waypoint.obj
 0001:00110740       ?WPIsReachable@CWaypointClass@@QAE_NUvec@@0@Z 00511740 f   bot_waypoint.obj
 0001:00110c50       ?ManuallyDeletePath@CWaypointClass@@QAEXUvec@@H_N@Z 00511c50 f   bot_waypoint.obj
 0001:00110d40       ?ManuallyCreatePath@CWaypointClass@@QAEXUvec@@H_N@Z 00511d40 f   bot_waypoint.obj
 0001:00110e30       ?DeletePath@CWaypointClass@@QAEXPAUnode_s@@0@Z 00511e30 f   bot_waypoint.obj
 0001:00110e60       ?DeletePath@CWaypointClass@@QAEXPAUnode_s@@@Z 00511e60 f   bot_waypoint.obj
 0001:00111000       ?AddPath@CWaypointClass@@QAEXPAUnode_s@@0@Z 00512000 f   bot_waypoint.obj
 0001:00111030       ?DeleteWaypoint@CWaypointClass@@QAEXUvec@@@Z 00512030 f   bot_waypoint.obj
 0001:00111120       ?AddWaypoint@CWaypointClass@@QAEPAUnode_s@@Uvec@@_N@Z 00512120 f   bot_waypoint.obj
 0001:00111420       ?DrawNearWaypoints@CWaypointClass@@QAEXXZ 00512420 f   bot_waypoint.obj
 0001:00111bc0       ?SaveWaypoints@CWaypointClass@@QAEXXZ 00512bc0 f   bot_waypoint.obj
 0001:00111ea0       ?LoadWaypoints@CWaypointClass@@QAE_NXZ 00512ea0 f   bot_waypoint.obj
 0001:00112630       ?Clear@CWaypointClass@@QAEXXZ 00513630 f   bot_waypoint.obj
 0001:001127a0       ?Init@CWaypointClass@@QAEXXZ 005137a0 f   bot_waypoint.obj
 0001:00112840       ??0CWaypointClass@@QAE@XZ  00513840 f   bot_waypoint.obj
 0001:00112940       ?CurrentWPIsValid@CBot@@QAE_NXZ 00513940 f   bot_waypoint.obj
 0001:00112980       ?HeadToWaypoint@CBot@@QAE_NXZ 00513980 f   bot_waypoint.obj
 0001:00113160       ?GetNearestWaypoint@CBot@@QAEPAUwaypoint_s@@Uvec@@M@Z 00514160 f   bot_waypoint.obj
 0001:00113410       ?GetNearestFloodWP@CBot@@QAEPAUwaypoint_s@@Uvec@@M@Z 00514410 f   bot_waypoint.obj
 0001:001136c0       ?SetCurrentWaypoint@CBot@@QAEXPAUwaypoint_s@@@Z 005146c0 f   bot_waypoint.obj
 0001:001136e0       ?SetCurrentGoalWaypoint@CBot@@QAEXPAUwaypoint_s@@@Z 005146e0 f   bot_waypoint.obj
 0001:001136f0       ?HeadToGoal@CBot@@QAE_NXZ  005146f0 f   bot_waypoint.obj
 0001:001138b0       ?ResetWaypointVars@CBot@@QAEXXZ 005148b0 f   bot_waypoint.obj
 0001:00113960       ?Think@CWaypointClass@@QAEXXZ 00514960 f   bot_waypoint.obj
 0001:00113e00       ?botskillall@@YAXPAD@Z     00514e00 f   botmanager.obj
 0001:00113e10       ?botskill@@YAXPAD0@Z       00514e10 f   botmanager.obj
 0001:00113f30       ?togglebotview@@YAXPAD@Z   00514f30 f   botmanager.obj
 0001:001140c0       ?kickbot@@YAXPBD@Z         005150c0 f   botmanager.obj
 0001:001141d0       ?idlebots@@YAXPAH@Z        005151d0 f   botmanager.obj
 0001:00114220       ?botsshoot@@YAXPAH@Z       00515220 f   botmanager.obj
 0001:00114270       ?addnbot@@YAXPAD00@Z       00515270 f   botmanager.obj
 0001:001142e0       ?addbot@@YAXPAD00@Z        005152e0 f   botmanager.obj
 0001:00114350       ?botmode@@YA_NXZ           00515350 f   botmanager.obj
 0001:00114390       ?CreateBot@CBotManager@@QAEPAVbotent@@PBD00@Z 00515390 f   botmanager.obj
 0001:00114c50       ?DisableBotView@CBotManager@@QAEXXZ 00515c50 f   botmanager.obj
 0001:00114c70       ?ViewBot@CBotManager@@QAEXXZ 00515c70 f   botmanager.obj
 0001:00114d80       ?ChangeBotSkill@CBotManager@@QAEXFPAVbotent@@@Z 00515d80 f   botmanager.obj
 0001:00114e70       ?InitSkillData@CBotManager@@AAEXXZ 00515e70 f   botmanager.obj
 0001:00115220       ?CreateSkillData@CBotManager@@AAEXXZ 00516220 f   botmanager.obj
 0001:00115860       ?EndMap@CBotManager@@QAEXXZ 00516860 f   botmanager.obj
 0001:001159e0       ?LoadBotTeamsFile@CBotManager@@AAEXXZ 005169e0 f   botmanager.obj
 0001:00115b80       ?GetBotName@CBotManager@@AAEPBDXZ 00516b80 f   botmanager.obj
 0001:00115d00       ?LoadBotNamesFile@CBotManager@@AAEXXZ 00516d00 f   botmanager.obj
 0001:00115ee0       ?Init@CBotManager@@QAEXXZ  00516ee0 f   botmanager.obj
 0001:00116280       ??1CBotManager@@QAE@XZ     00517280 f   botmanager.obj
 0001:001162a0       ?DelWaypoint@CBotManager@@QAEXPAUnode_s@@@Z 005172a0 f   botmanager.obj
 0001:00116420       ?MakeBotFileName@CBotManager@@QAEXPBD00PAD@Z 00517420 f   botmanager.obj
 0001:001164c0       ?AddWaypoint@CBotManager@@QAEXPAUnode_s@@@Z 005174c0 f   botmanager.obj
 0001:001165a0       ?PickNextTrigger@CBotManager@@QAEXXZ 005175a0 f   botmanager.obj
 0001:00116720       ?CalculateMaxAStarCount@CBotManager@@QAEXXZ 00517720 f   botmanager.obj
 0001:00116790       ?Think@CBotManager@@QAEXXZ 00517790 f   botmanager.obj
 0001:00116ae0       ?GetBotTeam@CBotManager@@QAEPBDXZ 00517ae0 f   botmanager.obj
 0001:00116b60       ?BeginMap@CBotManager@@QAEXPBD@Z 00517b60 f   botmanager.obj
 0001:00116c50       ?kickallbots@@YAXXZ        00517c50 f   botmanager.obj
 0001:00116d00       ?sortmapsoundslots@@YAXPAPADH@Z 00517d00 f   audiomanager.obj
 0001:001174a0       ?tempmsunsort@@YAHPAUtempmsslot@@0@Z 005184a0 f   audiomanager.obj
 0001:001174c0       ?tempmssort@@YAHPAUtempmsslot@@0@Z 005184c0 f   audiomanager.obj
 0001:00117520       ?tempmscmp@@YAHPAUtempmsslot@@0@Z 00518520 f   audiomanager.obj
 0001:00117570       ?getmapsoundlist@@YAXXZ    00518570 f   audiomanager.obj
 0001:001177b0       ?mapsoundslotbyname@@YAXPAD@Z 005187b0 f   audiomanager.obj
 0001:00117890       ?getmapsoundorigin@@YAXPAD@Z 00518890 f   audiomanager.obj
 0001:00117970       ?editmapsoundslot@@YAXPAHPAD1@Z 00518970 f   audiomanager.obj
 0001:00117b00       ?deletemapsoundslot@@YAXPAHPAD@Z 00518b00 f   audiomanager.obj
 0001:00117dd0       ?reloadmapsoundconfig@@YAXXZ 00518dd0 f   audiomanager.obj
 0001:00117e40       ?mapsoundslotusage@@YAXPAH@Z 00518e40 f   audiomanager.obj
 0001:001183d0       ?enumsounds@@YAXPAD@Z      005193d0 f   audiomanager.obj
 0001:001185d0       ?var_soundvol@@YAXXZ       005195d0 f   audiomanager.obj
 0001:00118630       ?var_soundchannels@@YAXXZ  00519630 f   audiomanager.obj
 0001:00118950       ??8staticreference@@UAE_NABVworldobjreference@@@Z 00519950 f   audiomanager.obj
 0001:001189a0       ?nodistance@staticreference@@UAE_NXZ 005199a0 f   audiomanager.obj
 0001:001189b0       ?currentposition@staticreference@@UBEABUvec@@XZ 005199b0 f   audiomanager.obj
 0001:001189c0       ?clone@staticreference@@UBEPAVworldobjreference@@XZ 005199c0 f   audiomanager.obj
 0001:00118a00       ??0staticreference@@QAE@ABUvec@@@Z 00519a00 f   audiomanager.obj
 0001:00118a40       ??8entityreference@@UAE_NABVworldobjreference@@@Z 00519a40 f   audiomanager.obj
 0001:00118a60       ?nodistance@entityreference@@UAE_NXZ 00519a60 f   audiomanager.obj
 0001:00118a70       ?currentposition@entityreference@@UBEABUvec@@XZ 00519a70 f   audiomanager.obj
 0001:00118ac0       ?clone@entityreference@@UBEPAVworldobjreference@@XZ 00519ac0 f   audiomanager.obj
 0001:00118af0       ??8physentreference@@UAE_NABVworldobjreference@@@Z 00519af0 f   audiomanager.obj
 0001:00118b10       ?nodistance@physentreference@@UAE_NXZ 00519b10 f   audiomanager.obj
 0001:00118b20       ?currentposition@physentreference@@UBEABUvec@@XZ 00519b20 f   audiomanager.obj
 0001:00118b30       ?clone@physentreference@@UBEPAVworldobjreference@@XZ 00519b30 f   audiomanager.obj
 0001:00118b60       ??0physentreference@@QAE@PAVphysent@@@Z 00519b60 f   audiomanager.obj
 0001:00118b80       ??8camerareference@@UAE_NABVworldobjreference@@@Z 00519b80 f   audiomanager.obj
 0001:00118b90       ?nodistance@camerareference@@UAE_NXZ 00519b90 f   audiomanager.obj
 0001:00118ba0       ?currentposition@camerareference@@UBEABUvec@@XZ 00519ba0 f   audiomanager.obj
 0001:00118bb0       ?clone@camerareference@@UBEPAVworldobjreference@@XZ 00519bb0 f   audiomanager.obj
 0001:00118be0       ??0camerareference@@QAE@XZ 00519be0 f   audiomanager.obj
 0001:00118bf0       ?stopsound@audiomanager@@QAEXXZ 00519bf0 f   audiomanager.obj
 0001:00118c30       ?_playsound@audiomanager@@QAEPAVlocation@@HABVworldobjreference@@HM_N@Z 00519c30 f   audiomanager.obj
 0001:00118dd0       ?ondetach@soundconfig@@QAEXXZ 00519dd0 f   audiomanager.obj
 0001:00118de0       ?onattach@soundconfig@@QAEXXZ 00519de0 f   audiomanager.obj
 0001:00118df0       ??0soundconfig@@QAE@PAVsbuffer@@HH_NH@Z 00519df0 f   audiomanager.obj
 0001:00118e40       ?soundtest@@YAXXZ          00519e40 f   audiomanager.obj
 0001:00118ea0       ?voicecom@@YAXPAD0@Z       00519ea0 f   audiomanager.obj
 0001:00119060       ?soundmuted@audiomanager@@QAEHH@Z 0051a060 f   audiomanager.obj
 0001:001190a0       ?unmuteallsounds@audiomanager@@QAEXXZ 0051a0a0 f   audiomanager.obj
 0001:001190d0       ?mutesound@audiomanager@@QAEXHH@Z 0051a0d0 f   audiomanager.obj
 0001:00119120       ?updateloopsound@audiomanager@@QAEPAVlocation@@H_NM@Z 0051a120 f   audiomanager.obj
 0001:001191b0       ?updateplayerfootsteps@audiomanager@@QAEXPAVplayerent@@@Z 0051a1b0 f   audiomanager.obj
 0001:001194d0       ?mapsoundreset@audiomanager@@QAEXXZ 0051a4d0 f   audiomanager.obj
 0001:001194f0       ?setchannels@audiomanager@@QAEXH@Z 0051a4f0 f   audiomanager.obj
 0001:00119540       ?applymapsoundchanges@audiomanager@@QAEXXZ 0051a540 f   audiomanager.obj
 0001:001195b0       ?addsound@audiomanager@@QAEHPBDHH_NAAU?$vector@Usoundconfig@@@@1H@Z 0051a5b0 f   audiomanager.obj
 0001:00119740       ?findsound@audiomanager@@QAEHPBDHAAU?$vector@Usoundconfig@@@@@Z 0051a740 f   audiomanager.obj
 0001:001197b0       ?registermusic@audiomanager@@QAEXPAD@Z 0051a7b0 f   audiomanager.obj
 0001:001197f0       ?setlistenervol@audiomanager@@QAEXH@Z 0051a7f0 f   audiomanager.obj
 0001:00119850       ?setmusicvol@audiomanager@@QAEXH@Z 0051a850 f   audiomanager.obj
 0001:001198a0       ?musicpreload@audiomanager@@QAEXH@Z 0051a8a0 f   audiomanager.obj
 0001:00119a00       ?music@audiomanager@@QAEXPADH0@Z 0051aa00 f   audiomanager.obj
 0001:00119b00       ??0audiomanager@@QAE@XZ    0051ab00 f   audiomanager.obj
 0001:00119c00       ?var_musicvol@@YAXXZ       0051ac00 f   audiomanager.obj
 0001:00119c50       ?var_audio@@YAXXZ          0051ac50 f   audiomanager.obj
 0001:00119c70       ?soundcleanup@audiomanager@@QAEXXZ 0051ac70 f   audiomanager.obj
 0001:00119e60       ?initsound@audiomanager@@QAEXXZ 0051ae60 f   audiomanager.obj
 0001:0011a180       ?registerdefaultsounds@@YAXXZ 0051b180 f   audiomanager.obj
 0001:0011a340       ?updateaudio@audiomanager@@QAEXXZ 0051b340 f   audiomanager.obj
 0001:0011aad0       ?writesoundconfig@audiomanager@@QAEXPAUstream@@@Z 0051bad0 f   audiomanager.obj
 0001:0011ab40       ?playsoundc@audiomanager@@QAEXHPAVphysent@@H@Z 0051bb40 f   audiomanager.obj
 0001:0011abc0       ?preloadmapsounds@audiomanager@@QAE_N_N@Z 0051bbc0 f   audiomanager.obj
 0001:0011ac40       ??0entityreference@@QAE@PAUentity@@@Z 0051bc40 f   audiomanager.obj
 0001:0011ac60       ?preloadmapsound@audiomanager@@QAE_NAAUentity@@_N@Z 0051bc60 f   audiomanager.obj
 0001:0011acc0       ?detachsounds@audiomanager@@QAEXPAVplayerent@@@Z 0051bcc0 f   audiomanager.obj
 0001:0011ad70       ?playsound@audiomanager@@QAEXHH@Z 0051bd70 f   audiomanager.obj
 0001:0011adb0       ?playsound@audiomanager@@QAEXHPAVphysent@@H@Z 0051bdb0 f   audiomanager.obj
 0001:0011ae00       ?musicsuggest@audiomanager@@QAEXHH_N@Z 0051be00 f   audiomanager.obj
 0001:0011af90       ?musicfadeout@audiomanager@@QAEXH@Z 0051bf90 f   audiomanager.obj
 0001:0011b030       ?clearworldsounds@audiomanager@@QAEX_N@Z 0051c030 f   audiomanager.obj
 0001:0011b090       ?playsound@audiomanager@@QAEXHPBUvec@@H@Z 0051c090 f   audiomanager.obj
 0001:0011b0f0       ?setgain@oggstream@@QAEXM@Z 0051c0f0 f   oggstream.obj
 0001:0011b110       ?updategain@oggstream@@QAEXXZ 0051c110 f   oggstream.obj
 0001:0011b130       ?stream@oggstream@@QAE_NI@Z 0051c130 f   oggstream.obj
 0001:0011b220       ?onsourcereassign@oggstream@@UAEXPAVsource@@@Z 0051c220 f   oggstream.obj
 0001:0011b250       ??1oggstream@@UAE@XZ       0051c250 f   oggstream.obj
 0001:0011b3a0       ??0oggstream@@QAE@XZ       0051c3a0 f   oggstream.obj
 0001:0011b880       ?open@oggstream@@QAE_NPBD@Z 0051c880 f   oggstream.obj
 0001:0011ba50       ?fadein@oggstream@@QAEXHH@Z 0051ca50 f   oggstream.obj
 0001:0011baa0       ?fadeout@oggstream@@QAEXHH@Z 0051caa0 f   oggstream.obj
 0001:0011bae0       ?playback@oggstream@@QAE_N_N@Z 0051cae0 f   oggstream.obj
 0001:0011bc20       ?playing@oggstream@@QAE_NXZ 0051cc20 f   oggstream.obj
 0001:0011bc50       ?seek@oggstream@@QAEXN@Z   0051cc50 f   oggstream.obj
 0001:0011bcc0       ?setvolume@oggstream@@QAEXM@Z 0051ccc0 f   oggstream.obj
 0001:0011bce0       ?reset@oggstream@@QAEXXZ   0051cce0 f   oggstream.obj
 0001:0011be30       ?update@oggstream@@QAE_NXZ 0051ce30 f   oggstream.obj
 0001:0011c010       ?unload@sbuffer@@QAEXXZ    0051d010 f   openal.obj
 0001:0011c060       ??0sbuffer@@QAE@XZ         0051d060 f   openal.obj
 0001:0011c070       ?secoffset@source@@QAE_NM@Z 0051d070 f   openal.obj
 0001:0011c0c0       ?state@source@@QAEHXZ      0051d0c0 f   openal.obj
 0001:0011c0e0       ?position@source@@QAE?AUvec@@XZ 0051d0e0 f   openal.obj
 0001:0011c160       ?velocity@source@@QAE_NMMM@Z 0051d160 f   openal.obj
 0001:0011c1c0       ?position@source@@QAE_NMMM@Z 0051d1c0 f   openal.obj
 0001:0011c300       ?position@source@@QAE_NABUvec@@@Z 0051d300 f   openal.obj
 0001:0011c320       ?pitch@source@@QAE_NM@Z    0051d320 f   openal.obj
 0001:0011c380       ?looping@source@@QAE_N_N@Z 0051d380 f   openal.obj
 0001:0011c3c0       ?delete_@source@@QAE_NXZ   0051d3c0 f   openal.obj
 0001:0011c3f0       ?generate@source@@QAE_NXZ  0051d3f0 f   openal.obj
 0001:0011c420       ?onreassign@source@@QAEXXZ 0051d420 f   openal.obj
 0001:0011c440       ?reset@source@@QAEXXZ      0051d440 f   openal.obj
 0001:0011c600       ?unlock@source@@QAEXXZ     0051d600 f   openal.obj
 0001:0011c650       ?lock@source@@QAEXXZ       0051d650 f   openal.obj
 0001:0011c660       ??1source@@QAE@XZ          0051d660 f   openal.obj
 0001:0011c690       ??0source@@QAE@XZ          0051d690 f   openal.obj
 0001:0011c6e0       ?init@source@@QAEXPAVsourceowner@@@Z 0051d6e0 f   openal.obj
 0001:0011c6f0       ?sourcerelative@source@@QAE_N_N@Z 0051d6f0 f   openal.obj
 0001:0011c730       ?alclearerr@@YAXXZ         0051d730 f   openal.obj
 0001:0011c740       ?stop@source@@QAE_NXZ      0051d740 f   openal.obj
 0001:0011c770       ?unqueueallbuffers@source@@QAE_NXZ 0051d770 f   openal.obj
 0001:0011c7e0       ?buffer@source@@QAE_NI@Z   0051d7e0 f   openal.obj
 0001:0011c820       ?playing@source@@QAE_NXZ   0051d820 f   openal.obj
 0001:0011c850       ?queuebuffers@source@@QAE_NHPBI@Z 0051d850 f   openal.obj
 0001:0011c880       ?play@source@@QAE_NXZ      0051d880 f   openal.obj
 0001:0011c8b0       ??1bufferhashtable@@UAE@XZ 0051d8b0 f   openal.obj
 0001:0011c8e0       ?alerr@@YA_N_NHPBDZZ       0051d8e0 f   openal.obj
 0001:0011c9f0       ?find@bufferhashtable@@UAEPAVsbuffer@@PBD@Z 0051d9f0 f   openal.obj
 0001:0011cb90       ?load@sbuffer@@QAE_N_N@Z   0051db90 f   openal.obj
 0001:0011cf80       ?gain@source@@QAE_NM@Z     0051df80 f   openal.obj
 0001:0011cfe0       ??1sbuffer@@QAE@XZ         0051dfe0 f   openal.obj
 0001:0011d030       ?delete_@locvector@@QAEXH@Z 0051e030 f   soundlocation.obj
 0001:0011d080       ?setvolume@location@@QAE_NM@Z 0051e080 f   soundlocation.obj
 0001:0011d120       ?update@location@@QAEXXZ   0051e120 f   soundlocation.obj
 0001:0011d180       ?updatepos@location@@QAEXXZ 0051e180 f   soundlocation.obj
 0001:0011d410       ?onsourcereassign@location@@UAEXPAVsource@@@Z 0051e410 f   soundlocation.obj
 0001:0011d430       ?evaluateworldobjref@location@@QAEXXZ 0051e430 f   soundlocation.obj
 0001:0011d480       ?attachworldobjreference@location@@QAEXABVworldobjreference@@@Z 0051e480 f   soundlocation.obj
 0001:0011d510       ??1location@@UAE@XZ        0051e510 f   soundlocation.obj
 0001:0011d590       ?deleteworldobjsounds@locvector@@QAEXXZ 0051e590 f   soundlocation.obj
 0001:0011d600       ?replaceworldobjreference@locvector@@QAEXABVworldobjreference@@0@Z 0051e600 f   soundlocation.obj
 0001:0011d660       ??0location@@QAE@HABVworldobjreference@@H@Z 0051e660 f   soundlocation.obj
 0001:0011d920       ?offset@location@@QAEXM@Z  0051e920 f   soundlocation.obj
 0001:0011d970       ?pitch@location@@QAEXM@Z   0051e970 f   soundlocation.obj
 0001:0011d9e0       ?play@location@@QAEX_N@Z   0051e9e0 f   soundlocation.obj
 0001:0011da60       ?forcepitch@locvector@@QAEXM@Z 0051ea60 f   soundlocation.obj
 0001:0011daf0       ?updatelocations@locvector@@QAEXXZ 0051eaf0 f   soundlocation.obj
 0001:0011dc50       ?find@locvector@@QAEPAVlocation@@HPAVworldobjreference@@ABU?$vector@Usoundconfig@@@@@Z 0051ec50 f   soundlocation.obj
 0001:0011dce0       ?drop@location@@QAEXXZ     0051ece0 f   soundlocation.obj
 0001:0011dd30       ??0sourcescheduler@@QAE@XZ 0051ed30 f   soundscheduler.obj
 0001:0011dd50       ?newsource@sourcescheduler@@QAEPAVsource@@HABUvec@@@Z 0051ed50 f   soundscheduler.obj
 0001:0011dff0       ?releasesource@sourcescheduler@@QAEXPAVsource@@@Z 0051eff0 f   soundscheduler.obj
 0001:0011e0b0       ?init@sourcescheduler@@QAEXH@Z 0051f0b0 f   soundscheduler.obj
 0001:0011e290       ?instance@sourcescheduler@@SAAAV1@XZ 0051f290 f   soundscheduler.obj
 0001:0011e2c0       ?reset@sourcescheduler@@QAEXXZ 0051f2c0 f   soundscheduler.obj
 0001:0011ec50       ?gmode_possible@@YAH_N00@Z 0051fc50 f   protocol1.obj
 0001:0011ec90       ?acronymmodestr@@YAPBDH@Z  0051fc90 f   protocol1.obj
 0001:0011ecb0       ?trimtrailingwhitespace@@YAXPAD@Z 0051fcb0 f   protocol1.obj
 0001:0011ecf0       ?putgzbuf@@YAXAAU?$vector@E@@0@Z 0051fcf0 f   protocol1.obj
 0001:0011ef40       ?validmapname@@YA_NPBD@Z   0051ff40 f   protocol1.obj
 0001:0011f020       ?gmode_enum@@YAPADHPAD@Z   00520020 f   protocol1.obj
 0001:0011f160       ?gmode_parse@@YAHPBD@Z     00520160 f   protocol1.obj
 0001:0011f240       ?filterrichtext@@YAXPADPBDH@Z 00520240 f   protocol1.obj
 0001:0011f3e0       ?putint@@YAXAAU?$vector@E@@H@Z 005203e0 f   protocol1.obj
 0001:0011f3f0       ?putuint@@YAXAAU?$vector@E@@H@Z 005203f0 f   protocol1.obj
 0001:0011f400       ?putaint@@YAXAAUpacketbuf@@H@Z 00520400 f   protocol1.obj
 0001:0011f4e0       ?fullmodestr@@YAPBDH@Z     005204e0 f   protocol1.obj
 0001:0011f500       ?filterlang@@YAXPADPBD@Z   00520500 f   protocol1.obj
 0001:0011f560       ?lastclactionslookup@@YAHH@Z 00520560 f   protocol1.obj
 0001:0011f580       ?sendstring@@YAXPBDAAU?$vector@E@@@Z 00520580 f   protocol1.obj
 0001:0011f5b0       ?getint@@YAHAAU?$databuf@E@@@Z 005205b0 f   protocol1.obj
 0001:0011f6d0       ?getuint@@YAHAAU?$databuf@E@@@Z 005206d0 f   protocol1.obj
 0001:0011f7a0       ?getuintn@@YA_KAAU?$databuf@E@@H@Z 005207a0 f   protocol1.obj
 0001:0011f8b0       ?decodeyaw@@YAMH@Z         005208b0 f   protocol1.obj
 0001:0011f8d0       ?decodepitch@@YAMH@Z       005208d0 f   protocol1.obj
 0001:0011f920       ?getip4@@YAIAAU?$databuf@E@@@Z 00520920 f   protocol1.obj
 0001:0011f9d0       ?filtercountrycode@@YAXPADPBD@Z 005209d0 f   protocol1.obj
 0001:0011fa40       ?putip4@@YAXAAUpacketbuf@@I@Z 00520a40 f   protocol1.obj
 0001:0011faa0       ?getstring@@YAXPADAAU?$databuf@E@@H@Z 00520aa0 f   protocol1.obj
 0001:0011fb80       ?getgzbuf@@YAPAU?$databuf@E@@AAU1@@Z 00520b80 f   protocol1.obj
 0001:0011fc70       ?freegzbuf@@YAXPAU?$databuf@E@@@Z 00520c70 f   protocol1.obj
 0001:0011fc90       ?modestr@@YAPBDH_N@Z       00520c90 f   protocol1.obj
 0001:0011fcd0       ?mmfullname@@YAPBDH@Z      00520cd0 f   protocol1.obj
 0001:0011fcf0       ?defaultgamelimit@@YAHH@Z  00520cf0 f   protocol1.obj
 0001:0011fd40       ?voteerrorstr@@YAPBDH@Z    00520d40 f   protocol1.obj
 0001:0011fd60       ?putint@@YAXAAU?$databuf@E@@H@Z 00520d60 f   protocol1.obj
 0001:0011fd70       ?putaint@@YAXAAU?$databuf@E@@H@Z 00520d70 f   protocol1.obj
 0001:0011fd80       ?sendstring@@YAXPBDAAU?$databuf@E@@@Z 00520d80 f   protocol1.obj
 0001:0011fdb0       ?msgsizelookup@@YAHH@Z     00520db0 f   protocol1.obj
 0001:0011fe10       ?encodeyaw@@YAHM@Z         00520e10 f   protocol1.obj
 0001:0011fe80       ?encodepitch@@YAHM@Z       00520e80 f   protocol1.obj
 0001:0011fef0       ?putint@@YAXAAUpacketbuf@@H@Z 00520ef0 f   protocol1.obj
 0001:0011ffc0       ?putuint@@YAXAAUpacketbuf@@H@Z 00520fc0 f   protocol1.obj
 0001:001200a0       ?putuintn@@YAXAAUpacketbuf@@_KH@Z 005210a0 f   protocol1.obj
 0001:00120130       ?sendstring@@YAXPBDAAUpacketbuf@@@Z 00521130 f   protocol1.obj
 0001:00120160       ?disc_reason@@YAPBDH@Z     00521160 f   protocol1.obj
 0001:00120230       ?escapestring@@YAPBDPBD_N1PAU?$vector@D@@@Z 00521230 f   protocol1.obj
 0001:001205c0       ?filtertext@@YAPADPADPBDHH@Z 005215c0 f   protocol1.obj
 0001:00120980       ___vdecl_sinf4             00521980 f   LIBCMT:svml_ssinf4_dispatch.obj
 0001:001209a0       ___libm_sse2_sincosf_      005219a0 f   LIBCMT:svml_ssinf4_dispatch.obj
 0001:001209f0       ___libm_sse2_sincosf4_     005219f0 f   LIBCMT:svml_ssinf4_dispatch.obj
 0001:00120a00       __ftol3                    00521a00 f   LIBCMT:ftol3.obj
 0001:00120a70       ___sse2_sinf4@@16          00521a70 f   LIBCMT:svml_ssinf4_sse2.obj
 0001:00120c30       ___sse4_sinf4@@16          00521c30 f   LIBCMT:svml_ssinf4_sse4.obj
 0001:001212d0       ___common_sin_reduction_LA 005222d0 f   LIBCMT:svml_dtrig.obj
 0001:00121660       ___common_ssin_cout_rare   00522660 f   LIBCMT:svml_s_sin_cout.obj
 0001:001216f0       __except_handler3          005226f0 f   libvcruntime:exsup3.obj
 0001:00121810       _memchr                    00522810 f   libvcruntime:memchr.obj
 0001:001218bd       _CallDestructExceptionObject 005228bd f   libvcruntime:calldtor.obj
 0001:001219d0       __ValidateEH3RN            005229d0 f   libvcruntime:eh3valid.obj
 0001:00121d80       __CIfmod                   00522d80 f   libucrt:87fmod_impl.obj
 0001:00121d90       __fFMOD                    00522d90 f   libucrt:87fmod_impl.obj
 0001:00121d9e       ___libm_sse2_acosf         00522d9e f   libucrt:acosf_sse2.obj
 0001:0012217b       ___libm_sse2_asin          0052317b f   libucrt:asin_sse2.obj
 0001:001225c4       ___libm_sse2_atan2         005235c4 f   libucrt:atan2_sse2.obj
 0001:00122ada       ___libm_sse2_cosf          00523ada f   libucrt:cosf_sse2.obj
 0001:00122c27       ___libm_sse2_pow           00523c27 f   libucrt:pow_sse2.obj
 0001:0012369f       ___libm_sse2_powf          0052469f f   libucrt:powf_sse2.obj
 0001:00123d52       ___libm_sse2_sin           00524d52 f   libucrt:sin_sse2.obj
 0001:00123f00       ___libm_sse2_sinf          00524f00 f   libucrt:sinf_sse2.obj
 0001:00124045       ___libm_sse2_tan           00525045 f   libucrt:tan_sse2.obj
 0001:00124290       __cintrindisp2             00525290 f   libucrt:87cdisp.obj
 0001:001242e0       __cintrindisp1             005252e0 f   libucrt:87cdisp.obj
 0001:00124329       __ctrandisp2               00525329 f   libucrt:87cdisp.obj
 0001:001244b8       __ctrandisp1               005254b8 f   libucrt:87cdisp.obj
 0001:001244eb       __fload                    005254eb f   libucrt:87cdisp.obj
 0001:00124530       _cos                       00525530 f   libucrt:cos.obj
 0001:00124580       _sin                       00525580 f   libucrt:sin.obj
 0001:001245d0       _tan                       005255d0 f   libucrt:tan.obj
 0001:00124620       __CIcos                    00525620 f   libucrt:cos_impl.obj
 0001:0012465b       __CIcos_default            0052565b f   libucrt:cos_impl.obj
 0001:0012466f       __cos_default              0052566f     libucrt:cos_impl.obj
 0001:00124710       __CIcos_pentium4           00525710 f   libucrt:cos_pentium4.obj
 0001:00124728       __cos_pentium4             00525728     libucrt:cos_pentium4.obj
 0001:001248c0       __CIsin                    005258c0 f   libucrt:sin_impl.obj
 0001:001248fb       __CIsin_default            005258fb f   libucrt:sin_impl.obj
 0001:0012490f       __sin_default              0052590f     libucrt:sin_impl.obj
 0001:001249b0       __CIsin_pentium4           005259b0 f   libucrt:sin_pentium4.obj
 0001:001249c8       __sin_pentium4             005259c8     libucrt:sin_pentium4.obj
 0001:00124b80       __CItan                    00525b80 f   libucrt:tan_impl.obj
 0001:00124bbb       __CItan_default            00525bbb f   libucrt:tan_impl.obj
 0001:00124bcf       __tan_default              00525bcf     libucrt:tan_impl.obj
 0001:00124c70       __CItan_pentium4           00525c70 f   libucrt:tan_pentium4.obj
 0001:00124c88       __tan_pentium4             00525c88     libucrt:tan_pentium4.obj
 0001:001251a0       ??__Fside@?1??genshadowvolume@mesh@vertmodel@@QAEPAUshadowcacheentry@2@AAUanimstate@@AAUanpos@2@PAU52@MPAUvec@@@Z@YAXXZ 005261a0 f i rendermodel.obj
 0002:00000000       __imp__RegOpenKeyExA@20    00528000     advapi32:ADVAPI32.dll
 0002:00000004       __imp__RegCloseKey@4       00528004     advapi32:ADVAPI32.dll
 0002:00000008       __imp__RegQueryValueExA@24 00528008     advapi32:ADVAPI32.dll
 0002:0000000c       \177ADVAPI32_NULL_THUNK_DATA 0052800c     advapi32:ADVAPI32.dll
 0002:00000010       __imp__TlsSetValue@8       00528010     kernel32:KERNEL32.dll
 0002:00000014       __imp__TlsGetValue@4       00528014     kernel32:KERNEL32.dll
 0002:00000018       __imp__LocalFree@4         00528018     kernel32:KERNEL32.dll
 0002:0000001c       __imp__WriteConsoleW@20    0052801c     kernel32:KERNEL32.dll
 0002:00000020       __imp__TlsAlloc@0          00528020     kernel32:KERNEL32.dll
 0002:00000024       __imp__InitializeCriticalSectionAndSpinCount@8 00528024     kernel32:KERNEL32.dll
 0002:00000028       __imp__DeleteCriticalSection@4 00528028     kernel32:KERNEL32.dll
 0002:0000002c       __imp__LeaveCriticalSection@4 0052802c     kernel32:KERNEL32.dll
 0002:00000030       __imp__EnterCriticalSection@4 00528030     kernel32:KERNEL32.dll
 0002:00000034       __imp__SetLastError@4      00528034     kernel32:KERNEL32.dll
 0002:00000038       __imp__GetLastError@0      00528038     kernel32:KERNEL32.dll
 0002:0000003c       __imp__RtlUnwind@16        0052803c     kernel32:KERNEL32.dll
 0002:00000040       __imp__RaiseException@16   00528040     kernel32:KERNEL32.dll
 0002:00000044       __imp__FreeLibrary@4       00528044     kernel32:KERNEL32.dll
 0002:00000048       __imp__InitializeSListHead@4 00528048     kernel32:KERNEL32.dll
 0002:0000004c       __imp__GetSystemTimeAsFileTime@4 0052804c     kernel32:KERNEL32.dll
 0002:00000050       __imp__GetCurrentThreadId@0 00528050     kernel32:KERNEL32.dll
 0002:00000054       __imp__GetCurrentProcessId@0 00528054     kernel32:KERNEL32.dll
 0002:00000058       __imp__QueryPerformanceCounter@4 00528058     kernel32:KERNEL32.dll
 0002:0000005c       __imp__GetModuleHandleW@4  0052805c     kernel32:KERNEL32.dll
 0002:00000060       __imp__GetStartupInfoW@4   00528060     kernel32:KERNEL32.dll
 0002:00000064       __imp__SetUnhandledExceptionFilter@4 00528064     kernel32:KERNEL32.dll
 0002:00000068       __imp__UnhandledExceptionFilter@4 00528068     kernel32:KERNEL32.dll
 0002:0000006c       __imp__IsDebuggerPresent@0 0052806c     kernel32:KERNEL32.dll
 0002:00000070       __imp__IsProcessorFeaturePresent@4 00528070     kernel32:KERNEL32.dll
 0002:00000074       __imp__SleepConditionVariableSRW@16 00528074     kernel32:KERNEL32.dll
 0002:00000078       __imp__WakeAllConditionVariable@4 00528078     kernel32:KERNEL32.dll
 0002:0000007c       __imp__AcquireSRWLockExclusive@4 0052807c     kernel32:KERNEL32.dll
 0002:00000080       __imp__ReleaseSRWLockExclusive@4 00528080     kernel32:KERNEL32.dll
 0002:00000084       __imp__TlsFree@4           00528084     kernel32:KERNEL32.dll
 0002:00000088       __imp__GetProcAddress@8    00528088     kernel32:KERNEL32.dll
 0002:0000008c       __imp__TerminateProcess@8  0052808c     kernel32:KERNEL32.dll
 0002:00000090       __imp__VirtualQuery@12     00528090     kernel32:KERNEL32.dll
 0002:00000094       __imp__EncodePointer@4     00528094     kernel32:KERNEL32.dll
 0002:00000098       __imp__ExitProcess@4       00528098     kernel32:KERNEL32.dll
 0002:0000009c       __imp__SetEndOfFile@4      0052809c     kernel32:KERNEL32.dll
 0002:000000a0       __imp__HeapReAlloc@16      005280a0     kernel32:KERNEL32.dll
 0002:000000a4       __imp__HeapSize@12         005280a4     kernel32:KERNEL32.dll
 0002:000000a8       __imp__CreateFileW@28      005280a8     kernel32:KERNEL32.dll
 0002:000000ac       __imp__GetStringTypeW@16   005280ac     kernel32:KERNEL32.dll
 0002:000000b0       __imp__GetProcessHeap@0    005280b0     kernel32:KERNEL32.dll
 0002:000000b4       __imp__SetEnvironmentVariableW@8 005280b4     kernel32:KERNEL32.dll
 0002:000000b8       __imp__FreeEnvironmentStringsW@4 005280b8     kernel32:KERNEL32.dll
 0002:000000bc       __imp__GetEnvironmentStringsW@0 005280bc     kernel32:KERNEL32.dll
 0002:000000c0       __imp__GetCommandLineW@0   005280c0     kernel32:KERNEL32.dll
 0002:000000c4       __imp__GetCommandLineA@0   005280c4     kernel32:KERNEL32.dll
 0002:000000c8       __imp__GetCPInfo@8         005280c8     kernel32:KERNEL32.dll
 0002:000000cc       __imp__GetCurrentThread@0  005280cc     kernel32:KERNEL32.dll
 0002:000000d0       __imp__FindClose@4         005280d0     kernel32:KERNEL32.dll
 0002:000000d4       __imp__FindNextFileA@8     005280d4     kernel32:KERNEL32.dll
 0002:000000d8       __imp__FindFirstFileA@8    005280d8     kernel32:KERNEL32.dll
 0002:000000dc       __imp__CreateDirectoryA@8  005280dc     kernel32:KERNEL32.dll
 0002:000000e0       __imp__GetFileAttributesA@4 005280e0     kernel32:KERNEL32.dll
 0002:000000e4       __imp__GetCurrentProcess@0 005280e4     kernel32:KERNEL32.dll
 0002:000000e8       __imp__SetPriorityClass@8  005280e8     kernel32:KERNEL32.dll
 0002:000000ec       __imp__CloseHandle@4       005280ec     kernel32:KERNEL32.dll
 0002:000000f0       __imp__Process32Next@8     005280f0     kernel32:KERNEL32.dll
 0002:000000f4       __imp__Process32First@8    005280f4     kernel32:KERNEL32.dll
 0002:000000f8       __imp__CreateToolhelp32Snapshot@8 005280f8     kernel32:KERNEL32.dll
 0002:000000fc       __imp__GetModuleHandleExW@12 005280fc     kernel32:KERNEL32.dll
 0002:00000100       __imp__SetConsoleCtrlHandler@8 00528100     kernel32:KERNEL32.dll
 0002:00000104       __imp__CreateThread@24     00528104     kernel32:KERNEL32.dll
 0002:00000108       __imp__ExitThread@4        00528108     kernel32:KERNEL32.dll
 0002:0000010c       __imp__FreeLibraryAndExitThread@8 0052810c     kernel32:KERNEL32.dll
 0002:00000110       __imp__ReadFile@20         00528110     kernel32:KERNEL32.dll
 0002:00000114       __imp__GetModuleFileNameW@12 00528114     kernel32:KERNEL32.dll
 0002:00000118       __imp__GetStdHandle@4      00528118     kernel32:KERNEL32.dll
 0002:0000011c       __imp__WriteFile@20        0052811c     kernel32:KERNEL32.dll
 0002:00000120       __imp__HeapFree@12         00528120     kernel32:KERNEL32.dll
 0002:00000124       __imp__HeapAlloc@12        00528124     kernel32:KERNEL32.dll
 0002:00000128       __imp__GetFileType@4       00528128     kernel32:KERNEL32.dll
 0002:0000012c       __imp__GetDateFormatW@24   0052812c     kernel32:KERNEL32.dll
 0002:00000130       __imp__GetTimeFormatW@24   00528130     kernel32:KERNEL32.dll
 0002:00000134       __imp__CompareStringW@24   00528134     kernel32:KERNEL32.dll
 0002:00000138       __imp__LCMapStringW@24     00528138     kernel32:KERNEL32.dll
 0002:0000013c       __imp__GetLocaleInfoW@16   0052813c     kernel32:KERNEL32.dll
 0002:00000140       __imp__IsValidLocale@8     00528140     kernel32:KERNEL32.dll
 0002:00000144       __imp__GetUserDefaultLCID@0 00528144     kernel32:KERNEL32.dll
 0002:00000148       __imp__EnumSystemLocalesW@8 00528148     kernel32:KERNEL32.dll
 0002:0000014c       __imp__GetConsoleOutputCP@0 0052814c     kernel32:KERNEL32.dll
 0002:00000150       __imp__GetConsoleMode@8    00528150     kernel32:KERNEL32.dll
 0002:00000154       __imp__GetFileSizeEx@8     00528154     kernel32:KERNEL32.dll
 0002:00000158       __imp__SetFilePointerEx@20 00528158     kernel32:KERNEL32.dll
 0002:0000015c       __imp__MultiByteToWideChar@24 0052815c     kernel32:KERNEL32.dll
 0002:00000160       __imp__DeleteFileW@4       00528160     kernel32:KERNEL32.dll
 0002:00000164       __imp__DecodePointer@4     00528164     kernel32:KERNEL32.dll
 0002:00000168       __imp__MoveFileExW@12      00528168     kernel32:KERNEL32.dll
 0002:0000016c       __imp__ReadConsoleW@20     0052816c     kernel32:KERNEL32.dll
 0002:00000170       __imp__FlushFileBuffers@4  00528170     kernel32:KERNEL32.dll
 0002:00000174       __imp__GetTimeZoneInformation@4 00528174     kernel32:KERNEL32.dll
 0002:00000178       __imp__WideCharToMultiByte@32 00528178     kernel32:KERNEL32.dll
 0002:0000017c       __imp__SetStdHandle@8      0052817c     kernel32:KERNEL32.dll
 0002:00000180       __imp__FindFirstFileExW@24 00528180     kernel32:KERNEL32.dll
 0002:00000184       __imp__FindNextFileW@8     00528184     kernel32:KERNEL32.dll
 0002:00000188       __imp__IsValidCodePage@4   00528188     kernel32:KERNEL32.dll
 0002:0000018c       __imp__GetACP@0            0052818c     kernel32:KERNEL32.dll
 0002:00000190       __imp__GetOEMCP@0          00528190     kernel32:KERNEL32.dll
 0002:00000194       __imp__LoadLibraryExW@12   00528194     kernel32:KERNEL32.dll
 0002:00000198       \177KERNEL32_NULL_THUNK_DATA 00528198     kernel32:KERNEL32.dll
 0002:0000019c       __imp__glPolygonMode@8     0052819c     opengl32:OPENGL32.dll
 0002:000001a0       __imp__glColor4ub@16       005281a0     opengl32:OPENGL32.dll
 0002:000001a4       __imp__glDeleteLists@8     005281a4     opengl32:OPENGL32.dll
 0002:000001a8       __imp__glAlphaFunc@8       005281a8     opengl32:OPENGL32.dll
 0002:000001ac       __imp__glCallList@4        005281ac     opengl32:OPENGL32.dll
 0002:000001b0       __imp__glDrawElements@16   005281b0     opengl32:OPENGL32.dll
 0002:000001b4       __imp__glNewList@8         005281b4     opengl32:OPENGL32.dll
 0002:000001b8       __imp__glGenLists@4        005281b8     opengl32:OPENGL32.dll
 0002:000001bc       __imp__glEndList@0         005281bc     opengl32:OPENGL32.dll
 0002:000001c0       __imp__glMultMatrixf@4     005281c0     opengl32:OPENGL32.dll
 0002:000001c4       __imp__glPixelStorei@8     005281c4     opengl32:OPENGL32.dll
 0002:000001c8       __imp__glTexCoord2i@8      005281c8     opengl32:OPENGL32.dll
 0002:000001cc       __imp__glVertex3fv@4       005281cc     opengl32:OPENGL32.dll
 0002:000001d0       __imp__glStencilFunc@12    005281d0     opengl32:OPENGL32.dll
 0002:000001d4       __imp__glStencilOp@12      005281d4     opengl32:OPENGL32.dll
 0002:000001d8       __imp__glTexImage2D@36     005281d8     opengl32:OPENGL32.dll
 0002:000001dc       __imp__glTexParameteri@12  005281dc     opengl32:OPENGL32.dll
 0002:000001e0       __imp__glTexEnvi@12        005281e0     opengl32:OPENGL32.dll
 0002:000001e4       __imp__glTexEnvfv@12       005281e4     opengl32:OPENGL32.dll
 0002:000001e8       __imp__glVertex2d@16       005281e8     opengl32:OPENGL32.dll
 0002:000001ec       __imp__glColor3d@24        005281ec     opengl32:OPENGL32.dll
 0002:000001f0       __imp__glGetTexImage@20    005281f0     opengl32:OPENGL32.dll
 0002:000001f4       __imp__glScalef@12         005281f4     opengl32:OPENGL32.dll
 0002:000001f8       __imp__glDeleteTextures@8  005281f8     opengl32:OPENGL32.dll
 0002:000001fc       __imp__glGenTextures@8     005281fc     opengl32:OPENGL32.dll
 0002:00000200       __imp__glScissor@16        00528200     opengl32:OPENGL32.dll
 0002:00000204       __imp__glClear@4           00528204     opengl32:OPENGL32.dll
 0002:00000208       __imp__glOrtho@48          00528208     opengl32:OPENGL32.dll
 0002:0000020c       __imp__glColor4ubv@4       0052820c     opengl32:OPENGL32.dll
 0002:00000210       __imp__glCopyTexSubImage2D@32 00528210     opengl32:OPENGL32.dll
 0002:00000214       __imp__glClearColor@16     00528214     opengl32:OPENGL32.dll
 0002:00000218       __imp__glGetFloatv@8       00528218     opengl32:OPENGL32.dll
 0002:0000021c       __imp__glFrustum@48        0052821c     opengl32:OPENGL32.dll
 0002:00000220       __imp__glReadPixels@28     00528220     opengl32:OPENGL32.dll
 0002:00000224       __imp__glPopMatrix@0       00528224     opengl32:OPENGL32.dll
 0002:00000228       __imp__glRotatef@16        00528228     opengl32:OPENGL32.dll
 0002:0000022c       __imp__glTranslatef@12     0052822c     opengl32:OPENGL32.dll
 0002:00000230       __imp__glPushMatrix@0      00528230     opengl32:OPENGL32.dll
 0002:00000234       __imp__glColor3f@12        00528234     opengl32:OPENGL32.dll
 0002:00000238       __imp__glBlendFunc@8       00528238     opengl32:OPENGL32.dll
 0002:0000023c       __imp__glFogfv@8           0052823c     opengl32:OPENGL32.dll
 0002:00000240       __imp__glDepthMask@4       00528240     opengl32:OPENGL32.dll
 0002:00000244       __imp__glTexCoord2f@8      00528244     opengl32:OPENGL32.dll
 0002:00000248       __imp__glColor3ub@12       00528248     opengl32:OPENGL32.dll
 0002:0000024c       __imp__glLineWidth@4       0052824c     opengl32:OPENGL32.dll
 0002:00000250       __imp__glVertex2f@8        00528250     opengl32:OPENGL32.dll
 0002:00000254       __imp__glColor4f@16        00528254     opengl32:OPENGL32.dll
 0002:00000258       __imp__glEnd@0             00528258     opengl32:OPENGL32.dll
 0002:0000025c       __imp__glVertex3f@12       0052825c     opengl32:OPENGL32.dll
 0002:00000260       __imp__glBegin@4           00528260     opengl32:OPENGL32.dll
 0002:00000264       __imp__glNormalPointer@12  00528264     opengl32:OPENGL32.dll
 0002:00000268       __imp__glLoadMatrixf@4     00528268     opengl32:OPENGL32.dll
 0002:0000026c       __imp__glMatrixMode@4      0052826c     opengl32:OPENGL32.dll
 0002:00000270       __imp__glPolygonOffset@8   00528270     opengl32:OPENGL32.dll
 0002:00000274       __imp__glLoadIdentity@0    00528274     opengl32:OPENGL32.dll
 0002:00000278       __imp__glClearStencil@4    00528278     opengl32:OPENGL32.dll
 0002:0000027c       __imp__glEnableClientState@4 0052827c     opengl32:OPENGL32.dll
 0002:00000280       __imp__glVertexPointer@16  00528280     opengl32:OPENGL32.dll
 0002:00000284       __imp__glColorPointer@16   00528284     opengl32:OPENGL32.dll
 0002:00000288       __imp__glTexCoordPointer@16 00528288     opengl32:OPENGL32.dll
 0002:0000028c       __imp__glDisable@4         0052828c     opengl32:OPENGL32.dll
 0002:00000290       __imp__glColorMask@16      00528290     opengl32:OPENGL32.dll
 0002:00000294       __imp__glDrawArrays@12     00528294     opengl32:OPENGL32.dll
 0002:00000298       __imp__glEnable@4          00528298     opengl32:OPENGL32.dll
 0002:0000029c       __imp__glBindTexture@8     0052829c     opengl32:OPENGL32.dll
 0002:000002a0       __imp__glDisableClientState@4 005282a0     opengl32:OPENGL32.dll
 0002:000002a4       __imp__glGetString@4       005282a4     opengl32:OPENGL32.dll
 0002:000002a8       __imp__glGetIntegerv@8     005282a8     opengl32:OPENGL32.dll
 0002:000002ac       __imp__glViewport@16       005282ac     opengl32:OPENGL32.dll
 0002:000002b0       __imp__glClearDepth@8      005282b0     opengl32:OPENGL32.dll
 0002:000002b4       __imp__glDepthFunc@4       005282b4     opengl32:OPENGL32.dll
 0002:000002b8       __imp__glShadeModel@4      005282b8     opengl32:OPENGL32.dll
 0002:000002bc       __imp__glFogi@8            005282bc     opengl32:OPENGL32.dll
 0002:000002c0       __imp__glFogf@8            005282c0     opengl32:OPENGL32.dll
 0002:000002c4       __imp__glHint@8            005282c4     opengl32:OPENGL32.dll
 0002:000002c8       __imp__glCullFace@4        005282c8     opengl32:OPENGL32.dll
 0002:000002cc       \177OPENGL32_NULL_THUNK_DATA 005282cc     opengl32:OPENGL32.dll
 0002:000002d0       __imp__alSourceStop        005282d0     openal32:OpenAL32.dll
 0002:000002d4       __imp__alSourcePlay        005282d4     openal32:OpenAL32.dll
 0002:000002d8       __imp__alGetSourcefv       005282d8     openal32:OpenAL32.dll
 0002:000002dc       __imp__alSource3f          005282dc     openal32:OpenAL32.dll
 0002:000002e0       __imp__alSourcei           005282e0     openal32:OpenAL32.dll
 0002:000002e4       __imp__alDeleteSources     005282e4     openal32:OpenAL32.dll
 0002:000002e8       __imp__alGenSources        005282e8     openal32:OpenAL32.dll
 0002:000002ec       __imp__alSourcef           005282ec     openal32:OpenAL32.dll
 0002:000002f0       __imp__alIsSource          005282f0     openal32:OpenAL32.dll
 0002:000002f4       __imp__alSourceQueueBuffers 005282f4     openal32:OpenAL32.dll
 0002:000002f8       __imp__alSourceUnqueueBuffers 005282f8     openal32:OpenAL32.dll
 0002:000002fc       __imp__alGetSourcei        005282fc     openal32:OpenAL32.dll
 0002:00000300       __imp__alcIsExtensionPresent 00528300     openal32:OpenAL32.dll
 0002:00000304       __imp__alBufferData        00528304     openal32:OpenAL32.dll
 0002:00000308       __imp__alDeleteBuffers     00528308     openal32:OpenAL32.dll
 0002:0000030c       __imp__alIsBuffer          0052830c     openal32:OpenAL32.dll
 0002:00000310       __imp__alGenBuffers        00528310     openal32:OpenAL32.dll
 0002:00000314       __imp__alcProcessContext   00528314     openal32:OpenAL32.dll
 0002:00000318       __imp__alListenerfv        00528318     openal32:OpenAL32.dll
 0002:0000031c       __imp__alcSuspendContext   0052831c     openal32:OpenAL32.dll
 0002:00000320       __imp__alListenerf         00528320     openal32:OpenAL32.dll
 0002:00000324       __imp__alcCloseDevice      00528324     openal32:OpenAL32.dll
 0002:00000328       __imp__alcDestroyContext   00528328     openal32:OpenAL32.dll
 0002:0000032c       __imp__alGetString         0052832c     openal32:OpenAL32.dll
 0002:00000330       __imp__alDistanceModel     00528330     openal32:OpenAL32.dll
 0002:00000334       __imp__alcMakeContextCurrent 00528334     openal32:OpenAL32.dll
 0002:00000338       __imp__alcCreateContext    00528338     openal32:OpenAL32.dll
 0002:0000033c       __imp__alcOpenDevice       0052833c     openal32:OpenAL32.dll
 0002:00000340       __imp__alcGetString        00528340     openal32:OpenAL32.dll
 0002:00000344       __imp__alGetError          00528344     openal32:OpenAL32.dll
 0002:00000348       \177OpenAL32_NULL_THUNK_DATA 00528348     openal32:OpenAL32.dll
 0002:0000034c       __imp__SDL_ClearError      0052834c     SDL2:SDL2.dll
 0002:00000350       __imp__SDL_LoadWAV_RW      00528350     SDL2:SDL2.dll
 0002:00000354       __imp__SDL_SemPost         00528354     SDL2:SDL2.dll
 0002:00000358       __imp__SDL_SemValue        00528358     SDL2:SDL2.dll
 0002:0000035c       __imp__SDL_SemTryWait      0052835c     SDL2:SDL2.dll
 0002:00000360       __imp__SDL_SemWait         00528360     SDL2:SDL2.dll
 0002:00000364       __imp__SDL_DestroySemaphore 00528364     SDL2:SDL2.dll
 0002:00000368       __imp__SDL_CreateSemaphore 00528368     SDL2:SDL2.dll
 0002:0000036c       __imp__SDL_AllocRW         0052836c     SDL2:SDL2.dll
 0002:00000370       __imp__SDL_GetKeyboardState 00528370     SDL2:SDL2.dll
 0002:00000374       __imp__SDL_SetWindowIcon   00528374     SDL2:SDL2.dll
 0002:00000378       __imp__SDL_InitSubSystem   00528378     SDL2:SDL2.dll
 0002:0000037c       __imp__SDL_GetVersion      0052837c     SDL2:SDL2.dll
 0002:00000380       __imp__SDL_Init            00528380     SDL2:SDL2.dll
 0002:00000384       __imp__SDL_ShowWindow      00528384     SDL2:SDL2.dll
 0002:00000388       __imp__SDL_HideWindow      00528388     SDL2:SDL2.dll
 0002:0000038c       __imp__SDL_WarpMouseInWindow 0052838c     SDL2:SDL2.dll
 0002:00000390       __imp__SDL_StopTextInput   00528390     SDL2:SDL2.dll
 0002:00000394       __imp__SDL_StartTextInput  00528394     SDL2:SDL2.dll
 0002:00000398       __imp__SDL_Delay           00528398     SDL2:SDL2.dll
 0002:0000039c       __imp__SDL_GL_SetSwapInterval 0052839c     SDL2:SDL2.dll
 0002:000003a0       __imp__SDL_GL_CreateContext 005283a0     SDL2:SDL2.dll
 0002:000003a4       __imp__SDL_CreateWindow    005283a4     SDL2:SDL2.dll
 0002:000003a8       __imp__SDL_GL_SetAttribute 005283a8     SDL2:SDL2.dll
 0002:000003ac       __imp__SDL_GetDisplayBounds 005283ac     SDL2:SDL2.dll
 0002:000003b0       __imp__SDL_DestroyWindow   005283b0     SDL2:SDL2.dll
 0002:000003b4       __imp__SDL_GL_DeleteContext 005283b4     SDL2:SDL2.dll
 0002:000003b8       __imp__SDL_GetDisplayMode  005283b8     SDL2:SDL2.dll
 0002:000003bc       __imp__SDL_GetNumDisplayModes 005283bc     SDL2:SDL2.dll
 0002:000003c0       __imp__SDL_SetWindowBrightness 005283c0     SDL2:SDL2.dll
 0002:000003c4       __imp__SDL_GetWindowSize   005283c4     SDL2:SDL2.dll
 0002:000003c8       __imp__SDL_SaveBMP_RW      005283c8     SDL2:SDL2.dll
 0002:000003cc       __imp__SDL_SetWindowPosition 005283cc     SDL2:SDL2.dll
 0002:000003d0       __imp__SDL_SetWindowSize   005283d0     SDL2:SDL2.dll
 0002:000003d4       __imp__SDL_SetWindowFullscreen 005283d4     SDL2:SDL2.dll
 0002:000003d8       __imp__SDL_GetWindowFlags  005283d8     SDL2:SDL2.dll
 0002:000003dc       __imp__SDL_SetWindowGrab   005283dc     SDL2:SDL2.dll
 0002:000003e0       __imp__SDL_GetError        005283e0     SDL2:SDL2.dll
 0002:000003e4       __imp__SDL_Quit            005283e4     SDL2:SDL2.dll
 0002:000003e8       __imp__SDL_FreeWAV         005283e8     SDL2:SDL2.dll
 0002:000003ec       __imp__SDL_SetRelativeMouseMode 005283ec     SDL2:SDL2.dll
 0002:000003f0       __imp__SDL_ShowCursor      005283f0     SDL2:SDL2.dll
 0002:000003f4       __imp__SDL_free            005283f4     SDL2:SDL2.dll
 0002:000003f8       __imp__SDL_GetClipboardText 005283f8     SDL2:SDL2.dll
 0002:000003fc       __imp__SDL_GetModState     005283fc     SDL2:SDL2.dll
 0002:00000400       __imp__SDL_GetScancodeFromName 00528400     SDL2:SDL2.dll
 0002:00000404       __imp__SDL_GetScancodeName 00528404     SDL2:SDL2.dll
 0002:00000408       __imp__SDL_DestroyMutex    00528408     SDL2:SDL2.dll
 0002:0000040c       __imp__SDL_WaitThread      0052840c     SDL2:SDL2.dll
 0002:00000410       __imp__SDL_PollEvent       00528410     SDL2:SDL2.dll
 0002:00000414       __imp__SDL_CondWaitTimeout 00528414     SDL2:SDL2.dll
 0002:00000418       __imp__SDL_GetTicks        00528418     SDL2:SDL2.dll
 0002:0000041c       __imp__SDL_DetachThread    0052841c     SDL2:SDL2.dll
 0002:00000420       __imp__SDL_CreateThread    00528420     SDL2:SDL2.dll
 0002:00000424       __imp__SDL_CreateMutex     00528424     SDL2:SDL2.dll
 0002:00000428       __imp__SDL_CondSignal      00528428     SDL2:SDL2.dll
 0002:0000042c       __imp__SDL_CondWait        0052842c     SDL2:SDL2.dll
 0002:00000430       __imp__SDL_ThreadID        00528430     SDL2:SDL2.dll
 0002:00000434       __imp__SDL_GetThreadID     00528434     SDL2:SDL2.dll
 0002:00000438       __imp__SDL_UnlockMutex     00528438     SDL2:SDL2.dll
 0002:0000043c       __imp__SDL_LockMutex       0052843c     SDL2:SDL2.dll
 0002:00000440       __imp__SDL_SetClipboardText 00528440     SDL2:SDL2.dll
 0002:00000444       __imp__SDL_FreeRW          00528444     SDL2:SDL2.dll
 0002:00000448       __imp__SDL_GetColorKey     00528448     SDL2:SDL2.dll
 0002:0000044c       __imp__SDL_SetSurfaceAlphaMod 0052844c     SDL2:SDL2.dll
 0002:00000450       __imp__SDL_FreeSurface     00528450     SDL2:SDL2.dll
 0002:00000454       __imp__SDL_UpperBlit       00528454     SDL2:SDL2.dll
 0002:00000458       __imp__SDL_CreateRGBSurface 00528458     SDL2:SDL2.dll
 0002:0000045c       __imp__SDL_GL_SwapWindow   0052845c     SDL2:SDL2.dll
 0002:00000460       __imp__SDL_GL_GetProcAddress 00528460     SDL2:SDL2.dll
 0002:00000464       __imp__SDL_SemWaitTimeout  00528464     SDL2:SDL2.dll
 0002:00000468       __imp__SDL_ShowSimpleMessageBox 00528468     SDL2:SDL2.dll
 0002:0000046c       __imp__SDL_SetMainReady    0052846c     SDL2:SDL2.dll
 0002:00000470       __imp__SDL_iconv_string    00528470     SDL2:SDL2.dll
 0002:00000474       __imp__SDL_wcslen          00528474     SDL2:SDL2.dll
 0002:00000478       __imp__SDL_calloc          00528478     SDL2:SDL2.dll
 0002:0000047c       __imp__SDL_CreateCond      0052847c     SDL2:SDL2.dll
 0002:00000480       \177SDL2_NULL_THUNK_DATA   00528480     SDL2:SDL2.dll
 0002:00000484       __imp__IMG_Load_RW         00528484     SDL2_image:SDL2_image.dll
 0002:00000488       __imp__IMG_Load            00528488     SDL2_image:SDL2_image.dll
 0002:0000048c       \177SDL2_image_NULL_THUNK_DATA 0052848c     SDL2_image:SDL2_image.dll
 0002:00000490       __imp__CommandLineToArgvW@8 00528490     shell32:SHELL32.dll
 0002:00000494       \177SHELL32_NULL_THUNK_DATA 00528494     shell32:SHELL32.dll
 0002:00000498       __imp__MessageBoxA@16      00528498     user32:USER32.dll
 0002:0000049c       \177USER32_NULL_THUNK_DATA 0052849c     user32:USER32.dll
 0002:000004a0       __imp__timeBeginPeriod@4   005284a0     winmm:WINMM.dll
 0002:000004a4       __imp__timeEndPeriod@4     005284a4     winmm:WINMM.dll
 0002:000004a8       __imp__timeGetTime@0       005284a8     winmm:WINMM.dll
 0002:000004ac       \177WINMM_NULL_THUNK_DATA  005284ac     winmm:WINMM.dll
 0002:000004b0       __imp__ntohl@4             005284b0     ws2_32:WS2_32.dll
 0002:000004b4       __imp__htonl@4             005284b4     ws2_32:WS2_32.dll
 0002:000004b8       __imp__select@20           005284b8     ws2_32:WS2_32.dll
 0002:000004bc       __imp__WSARecvFrom@36      005284bc     ws2_32:WS2_32.dll
 0002:000004c0       __imp__WSASendTo@36        005284c0     ws2_32:WS2_32.dll
 0002:000004c4       __imp__closesocket@4       005284c4     ws2_32:WS2_32.dll
 0002:000004c8       __imp__shutdown@8          005284c8     ws2_32:WS2_32.dll
 0002:000004cc       __imp__accept@12           005284cc     ws2_32:WS2_32.dll
 0002:000004d0       __imp__WSAGetLastError@0   005284d0     ws2_32:WS2_32.dll
 0002:000004d4       __imp__connect@12          005284d4     ws2_32:WS2_32.dll
 0002:000004d8       __imp__ioctlsocket@12      005284d8     ws2_32:WS2_32.dll
 0002:000004dc       __imp__setsockopt@20       005284dc     ws2_32:WS2_32.dll
 0002:000004e0       __imp__socket@12           005284e0     ws2_32:WS2_32.dll
 0002:000004e4       __imp__listen@8            005284e4     ws2_32:WS2_32.dll
 0002:000004e8       __imp__bind@12             005284e8     ws2_32:WS2_32.dll
 0002:000004ec       __imp__gethostbyaddr@12    005284ec     ws2_32:WS2_32.dll
 0002:000004f0       __imp__inet_ntoa@4         005284f0     ws2_32:WS2_32.dll
 0002:000004f4       __imp__inet_addr@4         005284f4     ws2_32:WS2_32.dll
 0002:000004f8       __imp__gethostbyname@4     005284f8     ws2_32:WS2_32.dll
 0002:000004fc       __imp__WSACleanup@0        005284fc     ws2_32:WS2_32.dll
 0002:00000500       __imp__WSAStartup@8        00528500     ws2_32:WS2_32.dll
 0002:00000504       __imp__ntohs@4             00528504     ws2_32:WS2_32.dll
 0002:00000508       __imp__htons@4             00528508     ws2_32:WS2_32.dll
 0002:0000050c       __imp____WSAFDIsSet@8      0052850c     ws2_32:WS2_32.dll
 0002:00000510       \177WS2_32_NULL_THUNK_DATA 00528510     ws2_32:WS2_32.dll
 0002:00000514       __imp__SymInitialize@12    00528514     Dbghelp:dbghelp.dll
 0002:00000518       __imp__StackWalk@36        00528518     Dbghelp:dbghelp.dll
 0002:0000051c       __imp__SymGetModuleBase@8  0052851c     Dbghelp:dbghelp.dll
 0002:00000520       __imp__SymFunctionTableAccess@8 00528520     Dbghelp:dbghelp.dll
 0002:00000524       __imp__SymGetSymFromAddr@16 00528524     Dbghelp:dbghelp.dll
 0002:00000528       __imp__SymGetLineFromAddr@16 00528528     Dbghelp:dbghelp.dll
 0002:0000052c       \177dbghelp_NULL_THUNK_DATA 0052852c     Dbghelp:dbghelp.dll
 0002:00000530       __imp__ov_read             00528530     vorbisfile:libvorbisfile.dll
 0002:00000534       __imp__ov_pcm_seek         00528534     vorbisfile:libvorbisfile.dll
 0002:00000538       __imp__ov_time_total       00528538     vorbisfile:libvorbisfile.dll
 0002:0000053c       __imp__ov_open_callbacks   0052853c     vorbisfile:libvorbisfile.dll
 0002:00000540       __imp__ov_info             00528540     vorbisfile:libvorbisfile.dll
 0002:00000544       __imp__ov_time_seek_page   00528544     vorbisfile:libvorbisfile.dll
 0002:00000548       __imp__ov_clear            00528548     vorbisfile:libvorbisfile.dll
 0002:0000054c       \177libvorbisfile_NULL_THUNK_DATA 0052854c     vorbisfile:libvorbisfile.dll
 0002:00000550       __imp__compress2           00528550     zdll:zlib1.dll
 0002:00000554       __imp__uncompress          00528554     zdll:zlib1.dll
 0002:00000558       __imp__inflateInit2_       00528558     zdll:zlib1.dll
 0002:0000055c       __imp__inflate             0052855c     zdll:zlib1.dll
 0002:00000560       __imp__crc32               00528560     zdll:zlib1.dll
 0002:00000564       __imp__deflateInit_        00528564     zdll:zlib1.dll
 0002:00000568       __imp__deflate             00528568     zdll:zlib1.dll
 0002:0000056c       __imp__deflateEnd          0052856c     zdll:zlib1.dll
 0002:00000570       __imp__deflateInit2_       00528570     zdll:zlib1.dll
 0002:00000574       __imp__inflateReset        00528574     zdll:zlib1.dll
 0002:00000578       __imp__zError              00528578     zdll:zlib1.dll
 0002:0000057c       __imp__inflateEnd          0052857c     zdll:zlib1.dll
 0002:00000580       \177zlib1_NULL_THUNK_DATA  00528580     zdll:zlib1.dll
 0002:00000584       ___guard_check_icall_fptr  00528584     LIBCMT:guard_support.obj
 0002:00000588       ___castguard_check_failure_os_handled_fptr 00528588     LIBCMT:guard_support.obj
 0002:0000058c       ___xc_a                    0052858c     LIBCMT:initializers.obj
 0002:00001570       ___xc_z                    00529570     LIBCMT:initializers.obj
 0002:00001574       ___xi_a                    00529574     LIBCMT:initializers.obj
 0002:00001580       ___acrt_stdio_initializer  00529580     libucrt:stdio_initializer.obj
 0002:00001584       ___acrt_tran_sse2_initializer 00529584     libucrt:sse2_initializer.obj
 0002:00001588       ___acrt_timeset_initializer 00529588     libucrt:timeset_initializer.obj
 0002:0000158c       ___acrt_multibyte_initializer 0052958c     libucrt:multibyte_initializer.obj
 0002:00001590       ___acrt_fmode_initializer  00529590     libucrt:fmode_initializer.obj
 0002:00001594       ___xi_z                    00529594     LIBCMT:initializers.obj
 0002:00001598       ___xl_a                    00529598     LIBCMT:tlssup.obj
 0002:0000159c       ___xl_z                    0052959c     LIBCMT:tlssup.obj
 0002:000015a0       ___xp_a                    005295a0     LIBCMT:initializers.obj
 0002:000015a4       ___acrt_locale_terminator  005295a4     libucrt:locale_initializer.obj
 0002:000015a8       ___dcrt_console_output_terminator 005295a8     libucrt:console_output_initializer.obj
 0002:000015ac       ___acrt_stdio_terminator   005295ac     libucrt:stdio_initializer.obj
 0002:000015b0       ___xp_z                    005295b0     LIBCMT:initializers.obj
 0002:000015b4       ___xt_a                    005295b4     LIBCMT:initializers.obj
 0002:000015b8       ___xt_z                    005295b8     LIBCMT:initializers.obj
 0002:000016e4       ??_7type_info@@6B@         005296e4     LIBCMT:std_type_info_static.obj
 0002:000016ec       ??_7exception@std@@6B@     005296ec     LIBCMT:throw_bad_alloc.obj
 0002:000016f4       ??_C@_0BC@EOODALEL@Unknown?5exception@ 005296f4     LIBCMT:throw_bad_alloc.obj
 0002:0000170c       ??_7bad_alloc@std@@6B@     0052970c     LIBCMT:throw_bad_alloc.obj
 0002:00001714       ??_C@_0P@GHFPNOJB@bad?5allocation@ 00529714     LIBCMT:throw_bad_alloc.obj
 0002:00001728       ??_7bad_array_new_length@std@@6B@ 00529728     LIBCMT:throw_bad_alloc.obj
 0002:00001730       ??_C@_0BF@KINCDENJ@bad?5array?5new?5length@ 00529730     LIBCMT:throw_bad_alloc.obj
 0002:00001750       __pDestructExceptionObject 00529750     libvcruntime:ehhelpers.obj
 0002:00001ae0       ??_C@_08EHJDFFNH@__based?$CI@ 00529ae0     libvcruntime:undname.obj
 0002:00001aec       ??_C@_07KOLFKCDI@__cdecl@  00529aec     libvcruntime:undname.obj
 0002:00001af4       ??_C@_08GHMPAG@__pascal@   00529af4     libvcruntime:undname.obj
 0002:00001b00       ??_C@_09IFJBGAPI@__stdcall@ 00529b00     libvcruntime:undname.obj
 0002:00001b0c       ??_C@_0L@NPHFGOKO@__thiscall@ 00529b0c     libvcruntime:undname.obj
 0002:00001b18       ??_C@_0L@JMKHOMEK@__fastcall@ 00529b18     libvcruntime:undname.obj
 0002:00001b24       ??_C@_0N@BCKKPABJ@__vectorcall@ 00529b24     libvcruntime:undname.obj
 0002:00001b34       ??_C@_09HIJEGCPM@__clrcall@ 00529b34     libvcruntime:undname.obj
 0002:00001b40       ??_C@_06GHPCKEAG@__eabi@   00529b40     libvcruntime:undname.obj
 0002:00001b48       ??_C@_09IOPIDJLG@__swift_1@ 00529b48     libvcruntime:undname.obj
 0002:00001b54       ??_C@_09KFNFGKHF@__swift_2@ 00529b54     libvcruntime:undname.obj
 0002:00001b60       ??_C@_09LMMOFLDE@__swift_3@ 00529b60     libvcruntime:undname.obj
 0002:00001b6c       ??_C@_07JOMMBBKO@__ptr64@  00529b6c     libvcruntime:undname.obj
 0002:00001b74       ??_C@_0L@PILCLIHE@__restrict@ 00529b74     libvcruntime:undname.obj
 0002:00001b80       ??_C@_0M@GFIIJFMG@__unaligned@ 00529b80     libvcruntime:undname.obj
 0002:00001b8c       ??_C@_09DHDLOLLB@restrict?$CI@ 00529b8c     libvcruntime:undname.obj
 0002:00001b98       ??_C@_04NIHEBCM@?5new@     00529b98     libvcruntime:undname.obj
 0002:00001ba0       ??_C@_07FPCDHGMM@?5delete@ 00529ba0     libvcruntime:undname.obj
 0002:00001ba8       ??_C@_02GPIOPFAK@?$DO?$DO@ 00529ba8     libvcruntime:undname.obj
 0002:00001bac       ??_C@_02FODMEDOG@?$DM?$DM@ 00529bac     libvcruntime:undname.obj
 0002:00001bb0       ??_C@_02EGOFBIJA@?$DN?$DN@ 00529bb0     libvcruntime:undname.obj
 0002:00001bb4       ??_C@_02GPECMEKF@?$FL?$FN@ 00529bb4     libvcruntime:undname.obj
 0002:00001bb8       ??_C@_08LHJFAFGD@operator@ 00529bb8     libvcruntime:undname.obj
 0002:00001bc4       ??_C@_02HBOOOICD@?9?$DO@   00529bc4     libvcruntime:undname.obj
 0002:00001bc8       ??_C@_02ECNGHCIF@?$CL?$CL@ 00529bc8     libvcruntime:undname.obj
 0002:00001bcc       ??_C@_01HNPIGOCE@?$CG@     00529bcc     libvcruntime:undname.obj
 0002:00001bd0       ??_C@_03MNHNFDLC@?9?$DO?$CK@ 00529bd0     libvcruntime:undname.obj
 0002:00001bd4       ??_C@_02HCKGKOFO@?$CI?$CJ@ 00529bd4     libvcruntime:undname.obj
 0002:00001bd8       ??_C@_01PJKLJHI@?$HO@      00529bd8     libvcruntime:undname.obj
 0002:00001bdc       ??_C@_01JKBOJNNK@?$FO@     00529bdc     libvcruntime:undname.obj
 0002:00001be0       ??_C@_02FJEHGPIO@?1?$DN@   00529be0     libvcruntime:undname.obj
 0002:00001be4       ??_C@_02FENAOKFI@?$CF?$DN@ 00529be4     libvcruntime:undname.obj
 0002:00001be8       ??_C@_03IKFCCPFF@?$DO?$DO?$DN@ 00529be8     libvcruntime:undname.obj
 0002:00001bec       ??_C@_03CDNPDDLA@?$DM?$DM?$DN@ 00529bec     libvcruntime:undname.obj
 0002:00001bf0       ??_C@_02FGJGFEAB@?$CG?$DN@ 00529bf0     libvcruntime:undname.obj
 0002:00001bf4       ??_C@_02DHLNPPGH@?$HM?$DN@ 00529bf4     libvcruntime:undname.obj
 0002:00001bf8       ??_C@_02MHEGNOJ@?$FO?$DN@  00529bf8     libvcruntime:undname.obj
 0002:00001bfc       ??_C@_09IFPLHPGF@?$GAvftable?8@ 00529bfc     libvcruntime:undname.obj
 0002:00001c08       ??_C@_09BLBHBJP@?$GAvbtable?8@ 00529c08     libvcruntime:undname.obj
 0002:00001c14       ??_C@_07FEEIOKP@?$GAvcall?8@ 00529c14     libvcruntime:undname.obj
 0002:00001c1c       ??_C@_08LLFFHHDJ@?$GAtypeof?8@ 00529c1c     libvcruntime:undname.obj
 0002:00001c28       ??_C@_0BF@KDPPACIK@?$GAlocal?5static?5guard?8@ 00529c28     libvcruntime:undname.obj
 0002:00001c40       ??_C@_08OBABFOLI@?$GAstring?8@ 00529c40     libvcruntime:undname.obj
 0002:00001c4c       ??_C@_0BD@JDLKDPAB@?$GAvbase?5destructor?8@ 00529c4c     libvcruntime:undname.obj
 0002:00001c60       ??_C@_0BN@DEGPLNFK@?$GAvector?5deleting?5destructor?8@ 00529c60     libvcruntime:undname.obj
 0002:00001c80       ??_C@_0BO@OBMKPJIG@?$GAdefault?5constructor?5closure?8@ 00529c80     libvcruntime:undname.obj
 0002:00001ca0       ??_C@_0BN@IMDCHIKM@?$GAscalar?5deleting?5destructor?8@ 00529ca0     libvcruntime:undname.obj
 0002:00001cc0       ??_C@_0BO@PFGOCPJJ@?$GAvector?5constructor?5iterator?8@ 00529cc0     libvcruntime:undname.obj
 0002:00001ce0       ??_C@_0BN@LFPFMEDL@?$GAvector?5destructor?5iterator?8@ 00529ce0     libvcruntime:undname.obj
 0002:00001d00       ??_C@_0CE@IKBNEHA@?$GAvector?5vbase?5constructor?5itera@ 00529d00     libvcruntime:undname.obj
 0002:00001d24       ??_C@_0BL@NILFHHPC@?$GAvirtual?5displacement?5map?8@ 00529d24     libvcruntime:undname.obj
 0002:00001d40       ??_C@_0CB@JONCMFFK@?$GAeh?5vector?5constructor?5iterator@ 00529d40     libvcruntime:undname.obj
 0002:00001d64       ??_C@_0CA@GCEOPDGL@?$GAeh?5vector?5destructor?5iterator?8@ 00529d64     libvcruntime:undname.obj
 0002:00001d84       ??_C@_0CH@OOJPLCPH@?$GAeh?5vector?5vbase?5constructor?5it@ 00529d84     libvcruntime:undname.obj
 0002:00001dac       ??_C@_0BL@LLKPOHJI@?$GAcopy?5constructor?5closure?8@ 00529dac     libvcruntime:undname.obj
 0002:00001dc8       ??_C@_0BA@KBCDOMBN@?$GAudt?5returning?8@ 00529dc8     libvcruntime:undname.obj
 0002:00001dd8       ??_C@_03KLGMFNMG@?$GAEH@   00529dd8     libvcruntime:undname.obj
 0002:00001ddc       ??_C@_05KHLCHHI@?$GARTTI@  00529ddc     libvcruntime:undname.obj
 0002:00001de4       ??_C@_0BA@KKLDJDLB@?$GAlocal?5vftable?8@ 00529de4     libvcruntime:undname.obj
 0002:00001df4       ??_C@_0CE@IIHCMGGL@?$GAlocal?5vftable?5constructor?5clos@ 00529df4     libvcruntime:undname.obj
 0002:00001e18       ??_C@_06FHBGPFGH@?5new?$FL?$FN@ 00529e18     libvcruntime:undname.obj
 0002:00001e20       ??_C@_09LBNFPBCA@?5delete?$FL?$FN@ 00529e20     libvcruntime:undname.obj
 0002:00001e2c       ??_C@_0P@HJKNJFNN@?$GAomni?5callsig?8@ 00529e2c     libvcruntime:undname.obj
 0002:00001e3c       ??_C@_0BL@CNOONJFP@?$GAplacement?5delete?5closure?8@ 00529e3c     libvcruntime:undname.obj
 0002:00001e58       ??_C@_0BN@CKNJLHMB@?$GAplacement?5delete?$FL?$FN?5closure?8@ 00529e58     libvcruntime:undname.obj
 0002:00001e78       ??_C@_0CG@CFDHKGGD@?$GAmanaged?5vector?5constructor?5ite@ 00529e78     libvcruntime:undname.obj
 0002:00001ea0       ??_C@_0CF@IMGKMJNO@?$GAmanaged?5vector?5destructor?5iter@ 00529ea0     libvcruntime:undname.obj
 0002:00001ec8       ??_C@_0CG@HLDDJMAG@?$GAeh?5vector?5copy?5constructor?5ite@ 00529ec8     libvcruntime:undname.obj
 0002:00001ef0       ??_C@_0CM@FCBBDIGB@?$GAeh?5vector?5vbase?5copy?5construct@ 00529ef0     libvcruntime:undname.obj
 0002:00001f1c       ??_C@_0BL@CLIPGLGB@?$GAdynamic?5initializer?5for?5?8@ 00529f1c     libvcruntime:undname.obj
 0002:00001f38       ??_C@_0CB@PDBIFEP@?$GAdynamic?5atexit?5destructor?5for?5@ 00529f38     libvcruntime:undname.obj
 0002:00001f5c       ??_C@_0CD@CGAJBKEJ@?$GAvector?5copy?5constructor?5iterat@ 00529f5c     libvcruntime:undname.obj
 0002:00001f80       ??_C@_0CJ@GJELGAMM@?$GAvector?5vbase?5copy?5constructor?5@ 00529f80     libvcruntime:undname.obj
 0002:00001fac       ??_C@_0CL@FGIJHLCE@?$GAmanaged?5vector?5copy?5constructo@ 00529fac     libvcruntime:undname.obj
 0002:00001fd8       ??_C@_0BM@PMGGMLDN@?$GAlocal?5static?5thread?5guard?8@ 00529fd8     libvcruntime:undname.obj
 0002:00001ff4       ??_C@_0N@BDNMDMOL@operator?5?$CC?$CC?5@ 00529ff4     libvcruntime:undname.obj
 0002:00002004       ??_C@_0BC@GGEBGALA@operator?5co_await@ 0052a004     libvcruntime:undname.obj
 0002:00002018       ??_C@_0M@GAAIMMOH@operator?$DM?$DN?$DO@ 0052a018     libvcruntime:undname.obj
 0002:00002024       ??_C@_0BC@DAFEJGAK@?5Type?5Descriptor?8@ 0052a024     libvcruntime:undname.obj
 0002:00002038       ??_C@_0BM@LDKODKLH@?5Base?5Class?5Descriptor?5at?5?$CI@ 0052a038     libvcruntime:undname.obj
 0002:00002054       ??_C@_0BD@LGICGFMM@?5Base?5Class?5Array?8@ 0052a054     libvcruntime:undname.obj
 0002:00002068       ??_C@_0BN@MECKDCOJ@?5Class?5Hierarchy?5Descriptor?8@ 0052a068     libvcruntime:undname.obj
 0002:00002088       ??_C@_0BK@CFCOFLF@?5Complete?5Object?5Locator?8@ 0052a088     libvcruntime:undname.obj
 0002:000020a4       ??_C@_0BG@JNJLAMPM@?$GAanonymous?5namespace?8@ 0052a0a4     libvcruntime:undname.obj
 0002:000020c8       ??_C@_1DM@KHCHBNEB@?$AAa?$AAp?$AAi?$AA?9?$AAm?$AAs?$AA?9?$AAw?$AAi?$AAn?$AA?9?$AAc?$AAo?$AAr?$AAe@ 0052a0c8     libvcruntime:winapi_downlevel.obj
 0002:00002104       ??_C@_1DK@LPPGFMPP@?$AAa?$AAp?$AAi?$AA?9?$AAm?$AAs?$AA?9?$AAw?$AAi?$AAn?$AA?9?$AAc?$AAo?$AAr?$AAe@ 0052a104     libvcruntime:winapi_downlevel.obj
 0002:00002140       ??_C@_1BC@GDMECMAK@?$AAk?$AAe?$AAr?$AAn?$AAe?$AAl?$AA3?$AA2@ 0052a140     libvcruntime:winapi_downlevel.obj
 0002:00002154       ??_C@_1BA@PFFKHIOG@?$AAa?$AAp?$AAi?$AA?9?$AAm?$AAs?$AA?9@ 0052a154     libvcruntime:winapi_downlevel.obj
 0002:0000216c       ??_C@_08KNHFBNJ@FlsAlloc@  0052a16c     libvcruntime:winapi_downlevel.obj
 0002:00002180       ??_C@_07PEJMOBNF@FlsFree@  0052a180     libvcruntime:winapi_downlevel.obj
 0002:00002190       ??_C@_0M@GDNOONDI@FlsGetValue@ 0052a190     libvcruntime:winapi_downlevel.obj
 0002:000021a4       ??_C@_0M@JCPCPOEF@FlsSetValue@ 0052a1a4     libvcruntime:winapi_downlevel.obj
 0002:000021b8       ??_C@_0BM@HCFOFFN@InitializeCriticalSectionEx@ 0052a1b8     libvcruntime:winapi_downlevel.obj
 0002:000021d8       ??_7bad_exception@std@@6B@ 0052a1d8     libvcruntime:frame.obj
 0002:000021e0       ??_C@_0O@DPKOEFFH@bad?5exception@ 0052a1e0     libvcruntime:frame.obj
 0002:000021f0       ?standard_lookup_table_spectre@__crt_stdio_output@@3V?$spectre_mitigated_lookup_table@Ustate_transition_pair@__crt_stdio_output@@$0IA@@1@B 0052a1f0     libucrt:output.obj
 0002:000022f0       ??_C@_1O@CEDCILHN@?$AA?$CI?$AAn?$AAu?$AAl?$AAl?$AA?$CJ@ 0052a2f0     libucrt:output.obj
 0002:00002300       ?large_power_data@?1??multiply_by_power_of_ten@__crt_strtox@@YA_NAAUbig_integer@2@I@Z@4QBIB 0052a300     libucrt:atof.obj
 0002:00002c08       ?large_power_indices@?1??multiply_by_power_of_ten@__crt_strtox@@YA_NAAUbig_integer@2@I@Z@4QBUunpack_index@?1??12@YA_N0I@Z@B 0052ac08     libucrt:atof.obj
 0002:00002ca0       ?small_powers_of_ten@?1??multiply_by_power_of_ten@__crt_strtox@@YA_NAAUbig_integer@2@I@Z@4QBIB 0052aca0     libucrt:atof.obj
 0002:00002cc8       ??_C@_1GE@DPGDJKLM@?$AAm?$AAi?$AAn?$AAk?$AAe?$AAr?$AAn?$AAe?$AAl?$AA?2?$AAc?$AAr?$AAt?$AAs?$AA?2@ 0052acc8     libucrt:atof.obj
 0002:00002d30       ??_C@_1FM@FELNCOBF@?$AA_?$AA_?$AAc?$AAr?$AAt?$AA_?$AAs?$AAt?$AAr?$AAt?$AAo?$AAx?$AA?3?$AA?3?$AAf@ 0052ad30     libucrt:atof.obj
 0002:00002d8c       ??_C@_1BG@GEMHBGAF@?$AA_?$AAi?$AAs?$AA_?$AAd?$AAo?$AAu?$AAb?$AAl?$AAe@ 0052ad8c     libucrt:atof.obj
 0002:00002da8       ??_C@_1FK@JOJELFFO@?$AA_?$AA_?$AAc?$AAr?$AAt?$AA_?$AAs?$AAt?$AAr?$AAt?$AAo?$AAx?$AA?3?$AA?3?$AAf@ 0052ada8     libucrt:atof.obj
 0002:00002e04       ??_C@_1BI@BANMPGJI@?$AA?$CB?$AA_?$AAi?$AAs?$AA_?$AAd?$AAo?$AAu?$AAb?$AAl?$AAe@ 0052ae04     libucrt:atof.obj
 0002:00002e1c       ?inf_uppercase@?1???$parse_floating_point_possible_infinity@DV?$c_string_character_source@D@__crt_strtox@@PBD@__crt_strtox@@YA?AW4floating_point_parse_result@1@AADAAV?$c_string_character_source@D@1@PBD@Z@4QBDB 0052ae1c     libucrt:atof.obj
 0002:00002e20       ?inf_lowercase@?1???$parse_floating_point_possible_infinity@DV?$c_string_character_source@D@__crt_strtox@@PBD@__crt_strtox@@YA?AW4floating_point_parse_result@1@AADAAV?$c_string_character_source@D@1@PBD@Z@4QBDB 0052ae20     libucrt:atof.obj
 0002:00002e24       ?inity_uppercase@?1???$parse_floating_point_possible_infinity@DV?$c_string_character_source@D@__crt_strtox@@PBD@__crt_strtox@@YA?AW4floating_point_parse_result@1@AADAAV?$c_string_character_source@D@1@PBD@Z@4QBDB 0052ae24     libucrt:atof.obj
 0002:00002e2c       ?inity_lowercase@?1???$parse_floating_point_possible_infinity@DV?$c_string_character_source@D@__crt_strtox@@PBD@__crt_strtox@@YA?AW4floating_point_parse_result@1@AADAAV?$c_string_character_source@D@1@PBD@Z@4QBDB 0052ae2c     libucrt:atof.obj
 0002:00002e34       ?uppercase@?1???$parse_floating_point_possible_nan@DV?$c_string_character_source@D@__crt_strtox@@PBD@__crt_strtox@@YA?AW4floating_point_parse_result@1@AADAAV?$c_string_character_source@D@1@PBD@Z@4QBDB 0052ae34     libucrt:atof.obj
 0002:00002e38       ?lowercase@?1???$parse_floating_point_possible_nan@DV?$c_string_character_source@D@__crt_strtox@@PBD@__crt_strtox@@YA?AW4floating_point_parse_result@1@AADAAV?$c_string_character_source@D@1@PBD@Z@4QBDB 0052ae38     libucrt:atof.obj
 0002:00002e3c       ?uppercase@?1???$parse_floating_point_possible_nan_is_snan@DV?$c_string_character_source@D@__crt_strtox@@@__crt_strtox@@YA_NAADAAV?$c_string_character_source@D@1@@Z@4QBDB 0052ae3c     libucrt:atof.obj
 0002:00002e44       ?lowercase@?1???$parse_floating_point_possible_nan_is_snan@DV?$c_string_character_source@D@__crt_strtox@@@__crt_strtox@@YA_NAADAAV?$c_string_character_source@D@1@@Z@4QBDB 0052ae44     libucrt:atof.obj
 0002:00002e4c       ?uppercase@?1???$parse_floating_point_possible_nan_is_ind@DV?$c_string_character_source@D@__crt_strtox@@@__crt_strtox@@YA_NAADAAV?$c_string_character_source@D@1@@Z@4QBDB 0052ae4c     libucrt:atof.obj
 0002:00002e50       ?lowercase@?1???$parse_floating_point_possible_nan_is_ind@DV?$c_string_character_source@D@__crt_strtox@@@__crt_strtox@@YA_NAADAAV?$c_string_character_source@D@1@@Z@4QBDB 0052ae50     libucrt:atof.obj
 0002:00002e54       ??_C@_1BI@BGOHAHKC@?$AAm?$AAs?$AAc?$AAo?$AAr?$AAe?$AAe?$AA?4?$AAd?$AAl?$AAl@ 0052ae54     libucrt:exit.obj
 0002:00002e6c       ??_C@_0P@MIGLKIOC@CorExitProcess@ 0052ae6c     libucrt:exit.obj
 0002:00002e80       ?constraints@?1??is_length_valid@__crt_stdio_input@@YA_NW4conversion_mode@2@W4length_modifier@2@@Z@4QAY0M@$$CBEA 0052ae80     libucrt:input.obj
 0002:00002ef8       ?inf_uppercase@?1???$parse_floating_point_possible_infinity@DV?$input_adapter_character_source@V?$string_input_adapter@D@__crt_stdio_input@@@__crt_strtox@@_K@__crt_strtox@@YA?AW4floating_point_parse_result@1@AADAAV?$input_adapter_character_source@V?$string_input_adapter@D@__crt_stdio_input@@@1@_K@Z@4QBDB 0052aef8     libucrt:input.obj
 0002:00002efc       ?inf_lowercase@?1???$parse_floating_point_possible_infinity@DV?$input_adapter_character_source@V?$string_input_adapter@D@__crt_stdio_input@@@__crt_strtox@@_K@__crt_strtox@@YA?AW4floating_point_parse_result@1@AADAAV?$input_adapter_character_source@V?$string_input_adapter@D@__crt_stdio_input@@@1@_K@Z@4QBDB 0052aefc     libucrt:input.obj
 0002:00002f00       ?inity_uppercase@?1???$parse_floating_point_possible_infinity@DV?$input_adapter_character_source@V?$string_input_adapter@D@__crt_stdio_input@@@__crt_strtox@@_K@__crt_strtox@@YA?AW4floating_point_parse_result@1@AADAAV?$input_adapter_character_source@V?$string_input_adapter@D@__crt_stdio_input@@@1@_K@Z@4QBDB 0052af00     libucrt:input.obj
 0002:00002f08       ?inity_lowercase@?1???$parse_floating_point_possible_infinity@DV?$input_adapter_character_source@V?$string_input_adapter@D@__crt_stdio_input@@@__crt_strtox@@_K@__crt_strtox@@YA?AW4floating_point_parse_result@1@AADAAV?$input_adapter_character_source@V?$string_input_adapter@D@__crt_stdio_input@@@1@_K@Z@4QBDB 0052af08     libucrt:input.obj
 0002:00002f10       ?uppercase@?1???$parse_floating_point_possible_nan@DV?$input_adapter_character_source@V?$string_input_adapter@D@__crt_stdio_input@@@__crt_strtox@@_K@__crt_strtox@@YA?AW4floating_point_parse_result@1@AADAAV?$input_adapter_character_source@V?$string_input_adapter@D@__crt_stdio_input@@@1@_K@Z@4QBDB 0052af10     libucrt:input.obj
 0002:00002f14       ?lowercase@?1???$parse_floating_point_possible_nan@DV?$input_adapter_character_source@V?$string_input_adapter@D@__crt_stdio_input@@@__crt_strtox@@_K@__crt_strtox@@YA?AW4floating_point_parse_result@1@AADAAV?$input_adapter_character_source@V?$string_input_adapter@D@__crt_stdio_input@@@1@_K@Z@4QBDB 0052af14     libucrt:input.obj
 0002:00002f18       ?uppercase@?1???$parse_floating_point_possible_nan_is_snan@DV?$input_adapter_character_source@V?$string_input_adapter@D@__crt_stdio_input@@@__crt_strtox@@@__crt_strtox@@YA_NAADAAV?$input_adapter_character_source@V?$string_input_adapter@D@__crt_stdio_input@@@1@@Z@4QBDB 0052af18     libucrt:input.obj
 0002:00002f20       ?lowercase@?1???$parse_floating_point_possible_nan_is_snan@DV?$input_adapter_character_source@V?$string_input_adapter@D@__crt_stdio_input@@@__crt_strtox@@@__crt_strtox@@YA_NAADAAV?$input_adapter_character_source@V?$string_input_adapter@D@__crt_stdio_input@@@1@@Z@4QBDB 0052af20     libucrt:input.obj
 0002:00002f28       ?uppercase@?1???$parse_floating_point_possible_nan_is_ind@DV?$input_adapter_character_source@V?$string_input_adapter@D@__crt_stdio_input@@@__crt_strtox@@@__crt_strtox@@YA_NAADAAV?$input_adapter_character_source@V?$string_input_adapter@D@__crt_stdio_input@@@1@@Z@4QBDB 0052af28     libucrt:input.obj
 0002:00002f2c       ?lowercase@?1???$parse_floating_point_possible_nan_is_ind@DV?$input_adapter_character_source@V?$string_input_adapter@D@__crt_stdio_input@@@__crt_strtox@@@__crt_strtox@@YA_NAADAAV?$input_adapter_character_source@V?$string_input_adapter@D@__crt_stdio_input@@@1@@Z@4QBDB 0052af2c     libucrt:input.obj
 0002:00002f70       ___acrt_exception_action_table 0052af70     libucrt:exception_filter.obj
 0002:00003000       ___acrt_signal_action_table_count 0052b000     libucrt:exception_filter.obj
 0002:00003004       ___acrt_signal_action_table_size 0052b004     libucrt:exception_filter.obj
 0002:00003008       ___acrt_signal_action_first_fpe_index 0052b008     libucrt:exception_filter.obj
 0002:0000300c       ___acrt_signal_action_fpe_count 0052b00c     libucrt:exception_filter.obj
 0002:00003110       ___lc_category             0052b110     libucrt:wsetlocale.obj
 0002:00003158       ??_C@_1O@GIFLHMA@?$AAL?$AAC?$AA_?$AAA?$AAL?$AAL@ 0052b158     libucrt:wsetlocale.obj
 0002:00003168       ??_C@_1BG@PPOMIBNJ@?$AAL?$AAC?$AA_?$AAC?$AAO?$AAL?$AAL?$AAA?$AAT?$AAE@ 0052b168     libucrt:wsetlocale.obj
 0002:00003180       ??_C@_1BC@FFJGAPJM@?$AAL?$AAC?$AA_?$AAC?$AAT?$AAY?$AAP?$AAE@ 0052b180     libucrt:wsetlocale.obj
 0002:00003194       ??_C@_1BI@PCKFNJFB@?$AAL?$AAC?$AA_?$AAM?$AAO?$AAN?$AAE?$AAT?$AAA?$AAR?$AAY@ 0052b194     libucrt:wsetlocale.obj
 0002:000031ac       ??_C@_1BG@ENIEDKID@?$AAL?$AAC?$AA_?$AAN?$AAU?$AAM?$AAE?$AAR?$AAI?$AAC@ 0052b1ac     libucrt:wsetlocale.obj
 0002:000031c4       ??_C@_1BA@HAAOMIIG@?$AAL?$AAC?$AA_?$AAT?$AAI?$AAM?$AAE@ 0052b1c4     libucrt:wsetlocale.obj
 0002:000031d4       ??_C@_15NBPDDFIP@?$AA?$DN?$AA?$DL@ 0052b1d4     libucrt:wsetlocale.obj
 0002:000031dc       ??_C@_13PJJBFPED@?$AA?$DL@ 0052b1dc     libucrt:wsetlocale.obj
 0002:000031e0       ??_C@_13NMPKAAJP@?$AA?$DN@ 0052b1e0     libucrt:wsetlocale.obj
 0002:000031e4       ??_C@_13IMODFHAA@?$AA?9@   0052b1e4     libucrt:wsetlocale.obj
 0002:000031e8       ??_C@_17EFJLDFDO@?$AA?9?$AA_?$AA?4@ 0052b1e8     libucrt:wsetlocale.obj
 0002:000031f0       ??_C@_13FHBKNHDA@?$AAC@    0052b1f0     libucrt:wsetlocale.obj
 0002:000031f4       ??_C@_17MBJJLFDM@?$AA_?$AA?4?$AA?0@ 0052b1f4     libucrt:wsetlocale.obj
 0002:000031fc       ??_C@_13ENNFDPBH@?$AA_@    0052b1fc     libucrt:wsetlocale.obj
 0002:00003200       ??_C@_13JOFGPIOO@?$AA?4@   0052b200     libucrt:wsetlocale.obj
 0002:000033b0       ??_C@_03OEIAHPBN@INF@      0052b3b0     libucrt:cvt.obj
 0002:000033b4       ??_C@_03OJHLLCGB@inf@      0052b3b4     libucrt:cvt.obj
 0002:000033b8       ??_C@_03LKNCIKJB@NAN@      0052b3b8     libucrt:cvt.obj
 0002:000033bc       ??_C@_03LHCJEHON@nan@      0052b3bc     libucrt:cvt.obj
 0002:000033c0       ??_C@_09OFJJIMPC@NAN?$CISNAN?$CJ@ 0052b3c0     libucrt:cvt.obj
 0002:000033cc       ??_C@_09IPFBKMDL@nan?$CIsnan?$CJ@ 0052b3cc     libucrt:cvt.obj
 0002:000033d8       ??_C@_08IKHNHAJ@NAN?$CIIND?$CJ@ 0052b3d8     libucrt:cvt.obj
 0002:000033e4       ??_C@_08OFCDMILK@nan?$CIind?$CJ@ 0052b3e4     libucrt:cvt.obj
 0002:000033f0       ??_C@_05KLBDPFGC@e?$CL000@ 0052b3f0     libucrt:cvt.obj
 0002:000033f8       ___lc_time_c               0052b3f8     libucrt:nlsdata.obj
 0002:0000355c       ??_C@_03KOEHGMDN@Sun@      0052b55c     libucrt:nlsdata.obj
 0002:00003560       ??_C@_03PDAGKDH@Mon@       0052b560     libucrt:nlsdata.obj
 0002:00003564       ??_C@_03NAGEINEP@Tue@      0052b564     libucrt:nlsdata.obj
 0002:00003568       ??_C@_03MHOMLAJA@Wed@      0052b568     libucrt:nlsdata.obj
 0002:0000356c       ??_C@_03IOFIKPDN@Thu@      0052b56c     libucrt:nlsdata.obj
 0002:00003570       ??_C@_03IDIOELNC@Fri@      0052b570     libucrt:nlsdata.obj
 0002:00003574       ??_C@_03FEFJNEK@Sat@       0052b574     libucrt:nlsdata.obj
 0002:00003578       ??_C@_06OOPIFAJ@Sunday@    0052b578     libucrt:nlsdata.obj
 0002:00003580       ??_C@_06JLEDEDGH@Monday@   0052b580     libucrt:nlsdata.obj
 0002:00003588       ??_C@_07BAAGCFCM@Tuesday@  0052b588     libucrt:nlsdata.obj
 0002:00003590       ??_C@_09DLIGFAKA@Wednesday@ 0052b590     libucrt:nlsdata.obj
 0002:0000359c       ??_C@_08HACCIKIA@Thursday@ 0052b59c     libucrt:nlsdata.obj
 0002:000035a8       ??_C@_06JECMNKMI@Friday@   0052b5a8     libucrt:nlsdata.obj
 0002:000035b0       ??_C@_08INBOOONO@Saturday@ 0052b5b0     libucrt:nlsdata.obj
 0002:000035bc       ??_C@_03JIHJHPIE@Jan@      0052b5bc     libucrt:nlsdata.obj
 0002:000035c0       ??_C@_03HJBDCHOM@Feb@      0052b5c0     libucrt:nlsdata.obj
 0002:000035c4       ??_C@_03ODNJBKGA@Mar@      0052b5c4     libucrt:nlsdata.obj
 0002:000035c8       ??_C@_03LEOLGMJP@Apr@      0052b5c8     libucrt:nlsdata.obj
 0002:000035cc       ??_C@_03CNMDKL@May@        0052b5cc     libucrt:nlsdata.obj
 0002:000035d0       ??_C@_03IDFGHECI@Jun@      0052b5d0     libucrt:nlsdata.obj
 0002:000035d4       ??_C@_03LBGABGKK@Jul@      0052b5d4     libucrt:nlsdata.obj
 0002:000035d8       ??_C@_03IFJFEIGA@Aug@      0052b5d8     libucrt:nlsdata.obj
 0002:000035dc       ??_C@_03GGCAPAJC@Sep@      0052b5dc     libucrt:nlsdata.obj
 0002:000035e0       ??_C@_03BMAOKBAD@Oct@      0052b5e0     libucrt:nlsdata.obj
 0002:000035e4       ??_C@_03JPJOFNIA@Nov@      0052b5e4     libucrt:nlsdata.obj
 0002:000035e8       ??_C@_03MKABNOCG@Dec@      0052b5e8     libucrt:nlsdata.obj
 0002:000035ec       ??_C@_07CGJPFGJA@January@  0052b5ec     libucrt:nlsdata.obj
 0002:000035f4       ??_C@_08GNJGEPFN@February@ 0052b5f4     libucrt:nlsdata.obj
 0002:00003600       ??_C@_05HPCKOFNC@March@    0052b600     libucrt:nlsdata.obj
 0002:00003608       ??_C@_05DMJDNLEJ@April@    0052b608     libucrt:nlsdata.obj
 0002:00003610       ??_C@_04CNLMGBGM@June@     0052b610     libucrt:nlsdata.obj
 0002:00003618       ??_C@_04MIEPOIFP@July@     0052b618     libucrt:nlsdata.obj
 0002:00003620       ??_C@_06LBBHFDDG@August@   0052b620     libucrt:nlsdata.obj
 0002:00003628       ??_C@_09BHHEALKD@September@ 0052b628     libucrt:nlsdata.obj
 0002:00003634       ??_C@_07JJNFCEND@October@  0052b634     libucrt:nlsdata.obj
 0002:0000363c       ??_C@_08HCHEGEOA@November@ 0052b63c     libucrt:nlsdata.obj
 0002:00003648       ??_C@_08EDHMEBNP@December@ 0052b648     libucrt:nlsdata.obj
 0002:00003654       ??_C@_02DEDBPAFC@AM@       0052b654     libucrt:nlsdata.obj
 0002:00003658       ??_C@_02CJNFDJBF@PM@       0052b658     libucrt:nlsdata.obj
 0002:0000365c       ??_C@_08BPBNCDIB@MM?1dd?1yy@ 0052b65c     libucrt:nlsdata.obj
 0002:00003668       ??_C@_0BE@CKGJFCPC@dddd?0?5MMMM?5dd?0?5yyyy@ 0052b668     libucrt:nlsdata.obj
 0002:0000367c       ??_C@_08JCCMCCIL@HH?3mm?3ss@ 0052b67c     libucrt:nlsdata.obj
 0002:00003688       ??_C@_17MBGCMIPB@?$AAS?$AAu?$AAn@ 0052b688     libucrt:nlsdata.obj
 0002:00003690       ??_C@_17KBOMKBF@?$AAM?$AAo?$AAn@ 0052b690     libucrt:nlsdata.obj
 0002:00003698       ??_C@_17BMKGEGOJ@?$AAT?$AAu?$AAe@ 0052b698     libucrt:nlsdata.obj
 0002:000036a0       ??_C@_17CJEDCEPE@?$AAW?$AAe?$AAd@ 0052b6a0     libucrt:nlsdata.obj
 0002:000036a8       ??_C@_17PDPHAADD@?$AAT?$AAh?$AAu@ 0052b6a8     libucrt:nlsdata.obj
 0002:000036b0       ??_C@_17HFOLPPLP@?$AAF?$AAr?$AAi@ 0052b6b0     libucrt:nlsdata.obj
 0002:000036b8       ??_C@_17GGIBDPIH@?$AAS?$AAa?$AAt@ 0052b6b8     libucrt:nlsdata.obj
 0002:000036c0       ??_C@_1O@IHNHDHPB@?$AAS?$AAu?$AAn?$AAd?$AAa?$AAy@ 0052b6c0     libucrt:nlsdata.obj
 0002:000036d0       ??_C@_1O@MMNBFLIA@?$AAM?$AAo?$AAn?$AAd?$AAa?$AAy@ 0052b6d0     libucrt:nlsdata.obj
 0002:000036e0       ??_C@_1BA@ENFBFFEK@?$AAT?$AAu?$AAe?$AAs?$AAd?$AAa?$AAy@ 0052b6e0     libucrt:nlsdata.obj
 0002:000036f0       ??_C@_1BE@EBOGMDOH@?$AAW?$AAe?$AAd?$AAn?$AAe?$AAs?$AAd?$AAa?$AAy@ 0052b6f0     libucrt:nlsdata.obj
 0002:00003704       ??_C@_1BC@HHMNLIHE@?$AAT?$AAh?$AAu?$AAr?$AAs?$AAd?$AAa?$AAy@ 0052b704     libucrt:nlsdata.obj
 0002:00003718       ??_C@_1O@PDICJHAG@?$AAF?$AAr?$AAi?$AAd?$AAa?$AAy@ 0052b718     libucrt:nlsdata.obj
 0002:00003728       ??_C@_1BC@ENMNNPAJ@?$AAS?$AAa?$AAt?$AAu?$AAr?$AAd?$AAa?$AAy@ 0052b728     libucrt:nlsdata.obj
 0002:0000373c       ??_C@_17DKNBKCHM@?$AAJ?$AAa?$AAn@ 0052b73c     libucrt:nlsdata.obj
 0002:00003744       ??_C@_17LMDJEKJN@?$AAF?$AAe?$AAb@ 0052b744     libucrt:nlsdata.obj
 0002:0000374c       ??_C@_17CKNLEDEC@?$AAM?$AAa?$AAr@ 0052b74c     libucrt:nlsdata.obj
 0002:00003754       ??_C@_17LFPOIHDD@?$AAA?$AAp?$AAr@ 0052b754     libucrt:nlsdata.obj
 0002:0000375c       ??_C@_17PNNKMEED@?$AAM?$AAa?$AAy@ 0052b75c     libucrt:nlsdata.obj
 0002:00003764       ??_C@_17KCJGOCPB@?$AAJ?$AAu?$AAn@ 0052b764     libucrt:nlsdata.obj
 0002:0000376c       ??_C@_17IJPCKHK@?$AAJ?$AAu?$AAl@ 0052b76c     libucrt:nlsdata.obj
 0002:00003774       ??_C@_17ICPELBCN@?$AAA?$AAu?$AAg@ 0052b774     libucrt:nlsdata.obj
 0002:0000377c       ??_C@_17HCHCOKMG@?$AAS?$AAe?$AAp@ 0052b77c     libucrt:nlsdata.obj
 0002:00003784       ??_C@_17FNLKOI@?$AAO?$AAc?$AAt@ 0052b784     libucrt:nlsdata.obj
 0002:0000378c       ??_C@_17BBDMLCIG@?$AAN?$AAo?$AAv@ 0052b78c     libucrt:nlsdata.obj
 0002:00003794       ??_C@_17EGKACKIF@?$AAD?$AAe?$AAc@ 0052b794     libucrt:nlsdata.obj
 0002:0000379c       ??_C@_1BA@EFMEIEBA@?$AAJ?$AAa?$AAn?$AAu?$AAa?$AAr?$AAy@ 0052b79c     libucrt:nlsdata.obj
 0002:000037ac       ??_C@_1BC@JGDDFFAM@?$AAF?$AAe?$AAb?$AAr?$AAu?$AAa?$AAr?$AAy@ 0052b7ac     libucrt:nlsdata.obj
 0002:000037c0       ??_C@_1M@IKEENEDF@?$AAM?$AAa?$AAr?$AAc?$AAh@ 0052b7c0     libucrt:nlsdata.obj
 0002:000037cc       ??_C@_1M@GJNLMHFD@?$AAA?$AAp?$AAr?$AAi?$AAl@ 0052b7cc     libucrt:nlsdata.obj
 0002:000037d8       ??_C@_19EPFLPGAP@?$AAJ?$AAu?$AAn?$AAe@ 0052b7d8     libucrt:nlsdata.obj
 0002:000037e4       ??_C@_19BIFMLPCD@?$AAJ?$AAu?$AAl?$AAy@ 0052b7e4     libucrt:nlsdata.obj
 0002:000037f0       ??_C@_1O@PAHLKOAC@?$AAA?$AAu?$AAg?$AAu?$AAs?$AAt@ 0052b7f0     libucrt:nlsdata.obj
 0002:00003800       ??_C@_1BE@DKAAMBJL@?$AAS?$AAe?$AAp?$AAt?$AAe?$AAm?$AAb?$AAe?$AAr@ 0052b800     libucrt:nlsdata.obj
 0002:00003814       ??_C@_1BA@EPANDLNG@?$AAO?$AAc?$AAt?$AAo?$AAb?$AAe?$AAr@ 0052b814     libucrt:nlsdata.obj
 0002:00003824       ??_C@_1BC@BGLIFPF@?$AAN?$AAo?$AAv?$AAe?$AAm?$AAb?$AAe?$AAr@ 0052b824     libucrt:nlsdata.obj
 0002:00003838       ??_C@_1BC@FEMKIFH@?$AAD?$AAe?$AAc?$AAe?$AAm?$AAb?$AAe?$AAr@ 0052b838     libucrt:nlsdata.obj
 0002:0000384c       ??_C@_15ODEHAHHF@?$AAA?$AAM@ 0052b84c     libucrt:nlsdata.obj
 0002:00003854       ??_C@_15CLMNNGEL@?$AAP?$AAM@ 0052b854     libucrt:nlsdata.obj
 0002:0000385c       ??_C@_1BC@IEBCMHCM@?$AAM?$AAM?$AA?1?$AAd?$AAd?$AA?1?$AAy?$AAy@ 0052b85c     libucrt:nlsdata.obj
 0002:00003870       ??_C@_1CI@KNAKOEBC@?$AAd?$AAd?$AAd?$AAd?$AA?0?$AA?5?$AAM?$AAM?$AAM?$AAM?$AA?5?$AAd?$AAd?$AA?0?$AA?5@ 0052b870     libucrt:nlsdata.obj
 0002:00003898       ??_C@_1BC@GDGBMEMK@?$AAH?$AAH?$AA?3?$AAm?$AAm?$AA?3?$AAs?$AAs@ 0052b898     libucrt:nlsdata.obj
 0002:000038ac       ??_C@_1M@BMHNFIME@?$AAe?$AAn?$AA?9?$AAU?$AAS@ 0052b8ac     libucrt:nlsdata.obj
 0002:000038b8       ??_C@_13CGOKJPIL@?$AA?1@   0052b8b8     libucrt:winapi_thunks.obj
 0002:00003918       ??_C@_1EA@JGEFHKEI@?$AAa?$AAp?$AAi?$AA?9?$AAm?$AAs?$AA?9?$AAw?$AAi?$AAn?$AA?9?$AAc?$AAo?$AAr?$AAe@ 0052b918     libucrt:winapi_thunks.obj
 0002:00003958       ??_C@_1DI@KMEPCBPN@?$AAa?$AAp?$AAi?$AA?9?$AAm?$AAs?$AA?9?$AAw?$AAi?$AAn?$AA?9?$AAc?$AAo?$AAr?$AAe@ 0052b958     libucrt:winapi_thunks.obj
 0002:00003990       ??_C@_1DI@IJCEHOCB@?$AAa?$AAp?$AAi?$AA?9?$AAm?$AAs?$AA?9?$AAw?$AAi?$AAn?$AA?9?$AAc?$AAo?$AAr?$AAe@ 0052b990     libucrt:winapi_thunks.obj
 0002:000039c8       ??_C@_1EI@MPIAOHOC@?$AAa?$AAp?$AAi?$AA?9?$AAm?$AAs?$AA?9?$AAw?$AAi?$AAn?$AA?9?$AAc?$AAo?$AAr?$AAe@ 0052b9c8     libucrt:winapi_thunks.obj
 0002:00003a10       ??_C@_1FK@FPHCKFIE@?$AAa?$AAp?$AAi?$AA?9?$AAm?$AAs?$AA?9?$AAw?$AAi?$AAn?$AA?9?$AAc?$AAo?$AAr?$AAe@ 0052ba10     libucrt:winapi_thunks.obj
 0002:00003a70       ??_C@_1EM@DILCGIIO@?$AAa?$AAp?$AAi?$AA?9?$AAm?$AAs?$AA?9?$AAw?$AAi?$AAn?$AA?9?$AAc?$AAo?$AAr?$AAe@ 0052ba70     libucrt:winapi_thunks.obj
 0002:00003abc       ??_C@_1DM@LNCGDDPN@?$AAa?$AAp?$AAi?$AA?9?$AAm?$AAs?$AA?9?$AAw?$AAi?$AAn?$AA?9?$AAc?$AAo?$AAr?$AAe@ 0052babc     libucrt:winapi_thunks.obj
 0002:00003af8       ??_C@_1DO@FPAPJEMD@?$AAa?$AAp?$AAi?$AA?9?$AAm?$AAs?$AA?9?$AAw?$AAi?$AAn?$AA?9?$AAc?$AAo?$AAr?$AAe@ 0052baf8     libucrt:winapi_thunks.obj
 0002:00003b38       ??_C@_1DK@NDHNAHIO@?$AAa?$AAp?$AAi?$AA?9?$AAm?$AAs?$AA?9?$AAw?$AAi?$AAn?$AA?9?$AAc?$AAo?$AAr?$AAe@ 0052bb38     libucrt:winapi_thunks.obj
 0002:00003b74       ??_C@_1DM@KGHDGBCM@?$AAa?$AAp?$AAi?$AA?9?$AAm?$AAs?$AA?9?$AAw?$AAi?$AAn?$AA?9?$AAc?$AAo?$AAr?$AAe@ 0052bb74     libucrt:winapi_thunks.obj
 0002:00003bb0       ??_C@_1EO@IJIOEFOH@?$AAa?$AAp?$AAi?$AA?9?$AAm?$AAs?$AA?9?$AAw?$AAi?$AAn?$AA?9?$AAr?$AAt?$AAc?$AAo@ 0052bbb0     libucrt:winapi_thunks.obj
 0002:00003c00       ??_C@_1FG@HHGEKANL@?$AAa?$AAp?$AAi?$AA?9?$AAm?$AAs?$AA?9?$AAw?$AAi?$AAn?$AA?9?$AAs?$AAe?$AAc?$AAu@ 0052bc00     libucrt:winapi_thunks.obj
 0002:00003c58       ??_C@_1EG@DBIOJECG@?$AAe?$AAx?$AAt?$AA?9?$AAm?$AAs?$AA?9?$AAw?$AAi?$AAn?$AA?9?$AAn?$AAt?$AAu?$AAs@ 0052bc58     libucrt:winapi_thunks.obj
 0002:00003ca0       ??_C@_1EO@FIHMJCLF@?$AAe?$AAx?$AAt?$AA?9?$AAm?$AAs?$AA?9?$AAw?$AAi?$AAn?$AA?9?$AAn?$AAt?$AAu?$AAs@ 0052bca0     libucrt:winapi_thunks.obj
 0002:00003cf0       ??_C@_1BC@DNHGCMLG@?$AAa?$AAd?$AAv?$AAa?$AAp?$AAi?$AA3?$AA2@ 0052bcf0     libucrt:winapi_thunks.obj
 0002:00003d04       ??_C@_1BG@CJPGBMEF@?$AAk?$AAe?$AAr?$AAn?$AAe?$AAl?$AAb?$AAa?$AAs?$AAe@ 0052bd04     libucrt:winapi_thunks.obj
 0002:00003d1c       ??_C@_1M@OAIMIKLP@?$AAn?$AAt?$AAd?$AAl?$AAl@ 0052bd1c     libucrt:winapi_thunks.obj
 0002:00003d28       ??_C@_1EG@DPGNFKGC@?$AAa?$AAp?$AAi?$AA?9?$AAm?$AAs?$AA?9?$AAw?$AAi?$AAn?$AA?9?$AAa?$AAp?$AAp?$AAm@ 0052bd28     libucrt:winapi_thunks.obj
 0002:00003d70       ??_C@_1O@BCCLBEOE@?$AAu?$AAs?$AAe?$AAr?$AA3?$AA2@ 0052bd70     libucrt:winapi_thunks.obj
 0002:00003d80       ??_C@_1DM@BPJLHKCE@?$AAa?$AAp?$AAi?$AA?9?$AAm?$AAs?$AA?9?$AAw?$AAi?$AAn?$AA?9?$AAc?$AAo?$AAr?$AAe@ 0052bd80     libucrt:winapi_thunks.obj
 0002:00003dbc       ??_C@_1BA@IAIFMGEF@?$AAe?$AAx?$AAt?$AA?9?$AAm?$AAs?$AA?9@ 0052bdbc     libucrt:winapi_thunks.obj
 0002:00003dd0       ??_C@_0BA@FHFNEAED@AreFileApisANSI@ 0052bdd0     libucrt:winapi_thunks.obj
 0002:00003de8       ??_C@_0BA@IHGNDAEB@CompareStringEx@ 0052bde8     libucrt:winapi_thunks.obj
 0002:00003e00       ??_C@_0BE@LJANKFHF@EnumSystemLocalesEx@ 0052be00     libucrt:winapi_thunks.obj
 0002:00003e1c       ??_C@_0BA@EPCJIIPD@GetDateFormatEx@ 0052be1c     libucrt:winapi_thunks.obj
 0002:00003e34       ??_C@_0BA@ONOKGCMP@GetLocaleInfoEx@ 0052be34     libucrt:winapi_thunks.obj
 0002:00003e4c       ??_C@_0BA@CIJJKCJJ@GetTimeFormatEx@ 0052be4c     libucrt:winapi_thunks.obj
 0002:00003e64       ??_C@_0BJ@PBCCBIPI@GetUserDefaultLocaleName@ 0052be64     libucrt:winapi_thunks.obj
 0002:00003e90       ??_C@_0BC@CELBKLLA@IsValidLocaleName@ 0052be90     libucrt:winapi_thunks.obj
 0002:00003eac       ??_C@_0O@KKBNKAPF@LCMapStringEx@ 0052beac     libucrt:winapi_thunks.obj
 0002:00003ec4       ??_C@_0BB@CDHDDLLP@LCIDToLocaleName@ 0052bec4     libucrt:winapi_thunks.obj
 0002:00003ee0       ??_C@_0BB@HBDEELFH@LocaleNameToLCID@ 0052bee0     libucrt:winapi_thunks.obj
 0002:00003ef8       ??_C@_0N@PPOMPGGK@RoInitialize@ 0052bef8     libucrt:winapi_thunks.obj
 0002:00003f0c       ??_C@_0P@LLFHBIJD@RoUninitialize@ 0052bf0c     libucrt:winapi_thunks.obj
 0002:00003f20       ??_C@_0CF@OJOFEIGO@AppPolicyGetProcessTerminationM@ 0052bf20     libucrt:winapi_thunks.obj
 0002:00003f4c       ??_C@_0CF@NNDFDCOC@AppPolicyGetThreadInitializatio@ 0052bf4c     libucrt:winapi_thunks.obj
 0002:00003f98       ___newctype                0052bf98     libucrt:ctype.obj
 0002:00004298       ___newclmap                0052c298     libucrt:ctype.obj
 0002:00004418       ___newcumap                0052c418     libucrt:ctype.obj
 0002:00004598       __wctype                   0052c598     libucrt:ctype.obj
 0002:0000479c       ?ccs@?1???$__acrt_stdio_parse_mode@D@@YA?AU__acrt_stdio_stream_mode@@QBD@Z@4QBDB 0052c79c     libucrt:openfile.obj
 0002:000047a0       ?utf8_encoding@?1???$__acrt_stdio_parse_mode@D@@YA?AU__acrt_stdio_stream_mode@@QBD@Z@4QBDB 0052c7a0     libucrt:openfile.obj
 0002:000047a8       ?utf16_encoding@?1???$__acrt_stdio_parse_mode@D@@YA?AU__acrt_stdio_stream_mode@@QBD@Z@4QBDB 0052c7a8     libucrt:openfile.obj
 0002:000047b0       ?unicode_encoding@?1???$__acrt_stdio_parse_mode@D@@YA?AU__acrt_stdio_stream_mode@@QBD@Z@4QBDB 0052c7b0     libucrt:openfile.obj
 0002:000048a0       ??_C@_03KHJOGHMM@exp@      0052c8a0     libucrt:fpexcept.obj
 0002:000048a4       ??_C@_03JGHBODFD@pow@      0052c8a4     libucrt:fpexcept.obj
 0002:000048a8       ??_C@_03MGHMBJCF@log@      0052c8a8     libucrt:fpexcept.obj
 0002:000048ac       ??_C@_05HGHHAHAP@log10@    0052c8ac     libucrt:fpexcept.obj
 0002:000048b4       ??_C@_04COOMCNPB@sinh@     0052c8b4     libucrt:fpexcept.obj
 0002:000048bc       ??_C@_04HPJJNFIM@cosh@     0052c8bc     libucrt:fpexcept.obj
 0002:000048c4       ??_C@_04FJHINJAO@tanh@     0052c8c4     libucrt:fpexcept.obj
 0002:000048cc       ??_C@_04FIHNOPOL@asin@     0052c8cc     libucrt:fpexcept.obj
 0002:000048d4       ??_C@_04PDIFKINK@acos@     0052c8d4     libucrt:fpexcept.obj
 0002:000048dc       ??_C@_04MLLJIGOK@atan@     0052c8dc     libucrt:fpexcept.obj
 0002:000048e4       ??_C@_05KNGEOGJB@atan2@    0052c8e4     libucrt:fpexcept.obj
 0002:000048ec       ??_C@_04EIAKFFMI@sqrt@     0052c8ec     libucrt:fpexcept.obj
 0002:000048f4       ??_C@_03BLEJJJBH@sin@      0052c8f4     libucrt:fpexcept.obj
 0002:000048f8       ??_C@_03LALBNOCG@cos@      0052c8f8     libucrt:fpexcept.obj
 0002:000048fc       ??_C@_03IIINPABG@tan@      0052c8fc     libucrt:fpexcept.obj
 0002:00004900       ??_C@_04ODHECPBC@fabs@     0052c900     libucrt:fpexcept.obj
 0002:00004908       ??_C@_05CEJMAHNP@ldexp@    0052c908     libucrt:fpexcept.obj
 0002:00004910       ??_C@_05KBKMEMPO@_cabs@    0052c910     libucrt:fpexcept.obj
 0002:00004918       ??_C@_06MEIMCGCF@_hypot@   0052c918     libucrt:fpexcept.obj
 0002:00004920       ??_C@_04KEPJIHGP@fmod@     0052c920     libucrt:fpexcept.obj
 0002:00004928       ??_C@_05GKKHEGJL@frexp@    0052c928     libucrt:fpexcept.obj
 0002:00004930       ??_C@_03MJLDFKDL@_y0@      0052c930     libucrt:fpexcept.obj
 0002:00004934       ??_C@_03NAKIGLHK@_y1@      0052c934     libucrt:fpexcept.obj
 0002:00004938       ??_C@_03ONILCKOB@_yn@      0052c938     libucrt:fpexcept.obj
 0002:0000493c       ??_C@_05JGDBENOH@_logb@    0052c93c     libucrt:fpexcept.obj
 0002:00004944       ??_C@_0L@KDOEJCKC@_nextafter@ 0052c944     libucrt:fpexcept.obj
 0002:00004950       __d_inf                    0052c950     libucrt:util.obj
 0002:00004958       __d_ind                    0052c958     libucrt:util.obj
 0002:00004960       __d_max                    0052c960     libucrt:util.obj
 0002:00004968       __d_mzero                  0052c968     libucrt:util.obj
 0002:00004988       ??_C@_15HNJCPLHL@?$AAT?$AAZ@ 0052c988     libucrt:tzset.obj
 0002:00004990       __days                     0052c990     libucrt:days.obj
 0002:000049c4       __lpdays                   0052c9c4     libucrt:days.obj
 0002:000049f8       ??_C@_1M@PBPMMENC@?$AAa?$AAm?$AA?1?$AAp?$AAm@ 0052c9f8     libucrt:wcsftime.obj
 0002:00004a04       ??_C@_17BLFJJHMM@?$AAa?$AA?1?$AAp@ 0052ca04     libucrt:wcsftime.obj
 0002:00004a0c       ??_C@_13HOIJIPNN@?$AA?5@   0052ca0c     libucrt:wcsftime.obj
 0002:00004a10       ??_C@_13LBAGMAIH@?$AA?6@   0052ca10     libucrt:wcsftime.obj
 0002:00004a14       ??_C@_13EBCNDICG@?$AA?3@   0052ca14     libucrt:wcsftime.obj
 0002:00004a18       ??_C@_13KDLDGPGJ@?$AA?7@   0052ca18     libucrt:wcsftime.obj
 0002:00004a1c       ??_C@_13KJIIAINM@?$AA?$CL@ 0052ca1c     libucrt:wcsftime.obj
 0002:00004a20       ??_C@_13EJFHHPOP@?$AA?$CF@ 0052ca20     libucrt:wcsftime.obj
 0002:00004a24       __sys_first_posix_error    0052ca24     libucrt:syserr.obj
 0002:00004a28       __sys_last_posix_error     0052ca28     libucrt:syserr.obj
 0002:00004a30       __sys_posix_errlist        0052ca30     libucrt:syserr.obj
 0002:00004ad8       __sys_errlist              0052cad8     libucrt:syserr.obj
 0002:00004b88       ??_C@_08INEPGKHH@No?5error@ 0052cb88     libucrt:syserr.obj
 0002:00004b94       ??_C@_0BI@BJFCGOHL@Operation?5not?5permitted@ 0052cb94     libucrt:syserr.obj
 0002:00004bac       ??_C@_0BK@FMDHKPNF@No?5such?5file?5or?5directory@ 0052cbac     libucrt:syserr.obj
 0002:00004bc8       ??_C@_0BA@FKIAIBGA@No?5such?5process@ 0052cbc8     libucrt:syserr.obj
 0002:00004bd8       ??_C@_0BK@FJBOAFDK@Interrupted?5function?5call@ 0052cbd8     libucrt:syserr.obj
 0002:00004bf4       ??_C@_0BD@KKNFOBBD@Input?1output?5error@ 0052cbf4     libucrt:syserr.obj
 0002:00004c08       ??_C@_0BK@DPKMCKJ@No?5such?5device?5or?5address@ 0052cc08     libucrt:syserr.obj
 0002:00004c24       ??_C@_0BC@MFFGCDFL@Arg?5list?5too?5long@ 0052cc24     libucrt:syserr.obj
 0002:00004c38       ??_C@_0BC@HKPNECK@Exec?5format?5error@ 0052cc38     libucrt:syserr.obj
 0002:00004c4c       ??_C@_0BE@NFGDDCEF@Bad?5file?5descriptor@ 0052cc4c     libucrt:syserr.obj
 0002:00004c60       ??_C@_0BD@LOHELEP@No?5child?5processes@ 0052cc60     libucrt:syserr.obj
 0002:00004c74       ??_C@_0CB@EPFKGNAK@Resource?5temporarily?5unavailabl@ 0052cc74     libucrt:syserr.obj
 0002:00004c98       ??_C@_0BB@IMDKMPFB@Not?5enough?5space@ 0052cc98     libucrt:syserr.obj
 0002:00004cac       ??_C@_0BC@HFNFNKAI@Permission?5denied@ 0052ccac     libucrt:syserr.obj
 0002:00004cc0       ??_C@_0M@LOEHLCJD@Bad?5address@ 0052ccc0     libucrt:syserr.obj
 0002:00004ccc       ??_C@_0O@NIPGCINC@Unknown?5error@ 0052cccc     libucrt:syserr.obj
 0002:00004cdc       ??_C@_0BA@BIBLIOEK@Resource?5device@ 0052ccdc     libucrt:syserr.obj
 0002:00004cec       ??_C@_0M@NAAJNNGH@File?5exists@ 0052ccec     libucrt:syserr.obj
 0002:00004cf8       ??_C@_0O@OAMDNOCP@Improper?5link@ 0052ccf8     libucrt:syserr.obj
 0002:00004d08       ??_C@_0P@NLEIANHE@No?5such?5device@ 0052cd08     libucrt:syserr.obj
 0002:00004d18       ??_C@_0BA@CJBACOOL@Not?5a?5directory@ 0052cd18     libucrt:syserr.obj
 0002:00004d28       ??_C@_0P@NDHGCGKE@Is?5a?5directory@ 0052cd28     libucrt:syserr.obj
 0002:00004d38       ??_C@_0BB@HMGGCEBG@Invalid?5argument@ 0052cd38     libucrt:syserr.obj
 0002:00004d4c       ??_C@_0BO@IIFBODJE@Too?5many?5open?5files?5in?5system@ 0052cd4c     libucrt:syserr.obj
 0002:00004d6c       ??_C@_0BE@INBJMKGG@Too?5many?5open?5files@ 0052cd6c     libucrt:syserr.obj
 0002:00004d80       ??_C@_0CE@ONOKNLPF@Inappropriate?5I?1O?5control?5opera@ 0052cd80     libucrt:syserr.obj
 0002:00004da4       ??_C@_0P@LFMMIPAE@File?5too?5large@ 0052cda4     libucrt:syserr.obj
 0002:00004db4       ??_C@_0BI@FEALHKLD@No?5space?5left?5on?5device@ 0052cdb4     libucrt:syserr.obj
 0002:00004dcc       ??_C@_0N@FEHLOILP@Invalid?5seek@ 0052cdcc     libucrt:syserr.obj
 0002:00004ddc       ??_C@_0BG@DDBFNKBH@Read?9only?5file?5system@ 0052cddc     libucrt:syserr.obj
 0002:00004df4       ??_C@_0P@PKCJJLLM@Too?5many?5links@ 0052cdf4     libucrt:syserr.obj
 0002:00004e04       ??_C@_0M@LHEPIIOM@Broken?5pipe@ 0052ce04     libucrt:syserr.obj
 0002:00004e10       ??_C@_0N@MMJPGLJK@Domain?5error@ 0052ce10     libucrt:syserr.obj
 0002:00004e20       ??_C@_0BB@FCBJFCAJ@Result?5too?5large@ 0052ce20     libucrt:syserr.obj
 0002:00004e34       ??_C@_0BK@JAEBMJJM@Resource?5deadlock?5avoided@ 0052ce34     libucrt:syserr.obj
 0002:00004e50       ??_C@_0BC@BEDIHIDK@Filename?5too?5long@ 0052ce50     libucrt:syserr.obj
 0002:00004e64       ??_C@_0BD@CLHBCGPB@No?5locks?5available@ 0052ce64     libucrt:syserr.obj
 0002:00004e78       ??_C@_0BJ@IHEHINLI@Function?5not?5implemented@ 0052ce78     libucrt:syserr.obj
 0002:00004e94       ??_C@_0BE@ICMCHPHH@Directory?5not?5empty@ 0052ce94     libucrt:syserr.obj
 0002:00004ea8       ??_C@_0BG@KLEAJEFJ@Illegal?5byte?5sequence@ 0052cea8     libucrt:syserr.obj
 0002:00004ec0       ??_C@_0P@LDMLAFHI@address?5in?5use@ 0052cec0     libucrt:syserr.obj
 0002:00004ed0       ??_C@_0BG@DHPCNBJB@address?5not?5available@ 0052ced0     libucrt:syserr.obj
 0002:00004ee8       ??_C@_0BN@LKKBCCDB@address?5family?5not?5supported@ 0052cee8     libucrt:syserr.obj
 0002:00004f08       ??_C@_0BP@KAIHPOGN@connection?5already?5in?5progress@ 0052cf08     libucrt:syserr.obj
 0002:00004f28       ??_C@_0M@PMMIEFCP@bad?5message@ 0052cf28     libucrt:syserr.obj
 0002:00004f34       ??_C@_0BD@MOLBPMEA@operation?5canceled@ 0052cf34     libucrt:syserr.obj
 0002:00004f48       ??_C@_0BD@MGNDDEGM@connection?5aborted@ 0052cf48     libucrt:syserr.obj
 0002:00004f5c       ??_C@_0BB@IECNJNOI@connection?5reset@ 0052cf5c     libucrt:syserr.obj
 0002:00004f70       ??_C@_0BN@KDMIFEIP@destination?5address?5required@ 0052cf70     libucrt:syserr.obj
 0002:00004f90       ??_C@_0BB@DHFDFGDM@host?5unreachable@ 0052cf90     libucrt:syserr.obj
 0002:00004fa4       ??_C@_0BD@JPHBMONG@identifier?5removed@ 0052cfa4     libucrt:syserr.obj
 0002:00004fb8       ??_C@_0BG@KDKHOPCO@operation?5in?5progress@ 0052cfb8     libucrt:syserr.obj
 0002:00004fd0       ??_C@_0BC@DFIBIBIL@already?5connected@ 0052cfd0     libucrt:syserr.obj
 0002:00004fe4       ??_C@_0BO@EFGOJEF@too?5many?5symbolic?5link?5levels@ 0052cfe4     libucrt:syserr.obj
 0002:00005004       ??_C@_0N@IFLPBIOP@message?5size@ 0052d004     libucrt:syserr.obj
 0002:00005014       ??_C@_0N@KIIEAAIO@network?5down@ 0052d014     libucrt:syserr.obj
 0002:00005024       ??_C@_0O@FNPDBHEE@network?5reset@ 0052d024     libucrt:syserr.obj
 0002:00005034       ??_C@_0BE@IFNCKGE@network?5unreachable@ 0052d034     libucrt:syserr.obj
 0002:00005048       ??_C@_0BA@PFFCAOFK@no?5buffer?5space@ 0052d048     libucrt:syserr.obj
 0002:00005058       ??_C@_0BF@PBGGPKKE@no?5message?5available@ 0052d058     libucrt:syserr.obj
 0002:00005070       ??_C@_07PLECNNKG@no?5link@ 0052d070     libucrt:syserr.obj
 0002:00005078       ??_C@_0L@EDOLMPAK@no?5message@ 0052d078     libucrt:syserr.obj
 0002:00005084       ??_C@_0BD@EAMBFIDF@no?5protocol?5option@ 0052d084     libucrt:syserr.obj
 0002:00005098       ??_C@_0BE@MKFDAFMP@no?5stream?5resources@ 0052d098     libucrt:syserr.obj
 0002:000050ac       ??_C@_0N@LGAPMMPI@not?5a?5stream@ 0052d0ac     libucrt:syserr.obj
 0002:000050bc       ??_C@_0BG@MPLKFPAE@state?5not?5recoverable@ 0052d0bc     libucrt:syserr.obj
 0002:000050d4       ??_C@_0N@POEIPGGF@not?5a?5socket@ 0052d0d4     libucrt:syserr.obj
 0002:000050e4       ??_C@_0O@NHEDABJP@not?5supported@ 0052d0e4     libucrt:syserr.obj
 0002:000050f4       ??_C@_0BI@LNEGIFLN@operation?5not?5supported@ 0052d0f4     libucrt:syserr.obj
 0002:0000510c       ??_C@_0BA@KGKGOOJA@value?5too?5large@ 0052d10c     libucrt:syserr.obj
 0002:0000511c       ??_C@_0L@BLPOFLNJ@owner?5dead@ 0052d11c     libucrt:syserr.obj
 0002:00005128       ??_C@_0P@FNPOCJBE@protocol?5error@ 0052d128     libucrt:syserr.obj
 0002:00005138       ??_C@_0BH@JPPPLHJB@protocol?5not?5supported@ 0052d138     libucrt:syserr.obj
 0002:00005150       ??_C@_0BE@MIEJDDNH@wrong?5protocol?5type@ 0052d150     libucrt:syserr.obj
 0002:00005164       ??_C@_0P@DIIFGFCG@stream?5timeout@ 0052d164     libucrt:syserr.obj
 0002:00005174       ??_C@_09KJPPMAOI@timed?5out@ 0052d174     libucrt:syserr.obj
 0002:00005180       ??_C@_0P@IPFDMIFL@text?5file?5busy@ 0052d180     libucrt:syserr.obj
 0002:00005190       ??_C@_0BG@OEMDKMEE@operation?5would?5block@ 0052d190     libucrt:syserr.obj
 0002:000051a8       __sys_nerr                 0052d1a8     libucrt:syserr.obj
 0002:000051bc       ??_C@_1M@HPNHIDJI@?$AAj?$AAa?$AA?9?$AAJ?$AAP@ 0052d1bc     libucrt:mbctype.obj
 0002:000051c8       ??_C@_1M@BIBDDEMK@?$AAz?$AAh?$AA?9?$AAC?$AAN@ 0052d1c8     libucrt:mbctype.obj
 0002:000051d4       ??_C@_1M@JLOOOEGK@?$AAk?$AAo?$AA?9?$AAK?$AAR@ 0052d1d4     libucrt:mbctype.obj
 0002:000051e0       ??_C@_1M@CLNBBOPM@?$AAz?$AAh?$AA?9?$AAT?$AAW@ 0052d1e0     libucrt:mbctype.obj
 0002:000051f0       ___acrt_rg_language        0052d1f0     libucrt:get_qualified_locale.obj
 0002:000054fc       ___acrt_rg_language_count  0052d4fc     libucrt:get_qualified_locale.obj
 0002:00005500       ___acrt_rg_country         0052d500     libucrt:get_qualified_locale.obj
 0002:00005614       ___acrt_rg_country_count   0052d614     libucrt:get_qualified_locale.obj
 0002:00005618       ??_C@_1BC@LLOKLNP@?$AAa?$AAm?$AAe?$AAr?$AAi?$AAc?$AAa?$AAn@ 0052d618     libucrt:get_qualified_locale.obj
 0002:0000562c       ??_C@_1CC@HEIGCDGG@?$AAa?$AAm?$AAe?$AAr?$AAi?$AAc?$AAa?$AAn?$AA?5?$AAe?$AAn?$AAg?$AAl?$AAi?$AAs@ 0052d62c     libucrt:get_qualified_locale.obj
 0002:00005650       ??_C@_1CC@IHCNOMIN@?$AAa?$AAm?$AAe?$AAr?$AAi?$AAc?$AAa?$AAn?$AA?9?$AAe?$AAn?$AAg?$AAl?$AAi?$AAs@ 0052d650     libucrt:get_qualified_locale.obj
 0002:00005674       ??_C@_1BG@GKAGPCGG@?$AAa?$AAu?$AAs?$AAt?$AAr?$AAa?$AAl?$AAi?$AAa?$AAn@ 0052d674     libucrt:get_qualified_locale.obj
 0002:0000568c       ??_C@_1BA@GMENCENF@?$AAb?$AAe?$AAl?$AAg?$AAi?$AAa?$AAn@ 0052d68c     libucrt:get_qualified_locale.obj
 0002:0000569c       ??_C@_1BC@PJMIIAAN@?$AAc?$AAa?$AAn?$AAa?$AAd?$AAi?$AAa?$AAn@ 0052d69c     libucrt:get_qualified_locale.obj
 0002:000056b0       ??_C@_17NOIMNFBF@?$AAc?$AAh?$AAh@ 0052d6b0     libucrt:get_qualified_locale.obj
 0002:000056b8       ??_C@_17GGDALCHA@?$AAc?$AAh?$AAi@ 0052d6b8     libucrt:get_qualified_locale.obj
 0002:000056c0       ??_C@_1BA@NPNJKIBL@?$AAc?$AAh?$AAi?$AAn?$AAe?$AAs?$AAe@ 0052d6c0     libucrt:get_qualified_locale.obj
 0002:000056d0       ??_C@_1CC@DINBAMMJ@?$AAc?$AAh?$AAi?$AAn?$AAe?$AAs?$AAe?$AA?9?$AAh?$AAo?$AAn?$AAg?$AAk?$AAo?$AAn@ 0052d6d0     libucrt:get_qualified_locale.obj
 0002:000056f4       ??_C@_1CG@IOBJPACO@?$AAc?$AAh?$AAi?$AAn?$AAe?$AAs?$AAe?$AA?9?$AAs?$AAi?$AAm?$AAp?$AAl?$AAi?$AAf@ 0052d6f4     libucrt:get_qualified_locale.obj
 0002:0000571c       ??_C@_1CE@GAJNDCKG@?$AAc?$AAh?$AAi?$AAn?$AAe?$AAs?$AAe?$AA?9?$AAs?$AAi?$AAn?$AAg?$AAa?$AAp?$AAo@ 0052d71c     libucrt:get_qualified_locale.obj
 0002:00005740       ??_C@_1CI@PAJPIOOD@?$AAc?$AAh?$AAi?$AAn?$AAe?$AAs?$AAe?$AA?9?$AAt?$AAr?$AAa?$AAd?$AAi?$AAt?$AAi@ 0052d740     libucrt:get_qualified_locale.obj
 0002:00005768       ??_C@_1BM@NILJBMMD@?$AAd?$AAu?$AAt?$AAc?$AAh?$AA?9?$AAb?$AAe?$AAl?$AAg?$AAi?$AAa?$AAn@ 0052d768     libucrt:get_qualified_locale.obj
 0002:00005784       ??_C@_1CC@OOJPJNEJ@?$AAe?$AAn?$AAg?$AAl?$AAi?$AAs?$AAh?$AA?9?$AAa?$AAm?$AAe?$AAr?$AAi?$AAc?$AAa@ 0052d784     libucrt:get_qualified_locale.obj
 0002:000057a8       ??_C@_1BI@IOLFEEM@?$AAe?$AAn?$AAg?$AAl?$AAi?$AAs?$AAh?$AA?9?$AAa?$AAu?$AAs@ 0052d7a8     libucrt:get_qualified_locale.obj
 0002:000057c0       ??_C@_1BO@HFFNLENJ@?$AAe?$AAn?$AAg?$AAl?$AAi?$AAs?$AAh?$AA?9?$AAb?$AAe?$AAl?$AAi?$AAz?$AAe@ 0052d7c0     libucrt:get_qualified_locale.obj
 0002:000057e0       ??_C@_1BI@HAPKJMPO@?$AAe?$AAn?$AAg?$AAl?$AAi?$AAs?$AAh?$AA?9?$AAc?$AAa?$AAn@ 0052d7e0     libucrt:get_qualified_locale.obj
 0002:000057f8       ??_C@_1CE@HLNDMIOJ@?$AAe?$AAn?$AAg?$AAl?$AAi?$AAs?$AAh?$AA?9?$AAc?$AAa?$AAr?$AAi?$AAb?$AAb?$AAe@ 0052d7f8     libucrt:get_qualified_locale.obj
 0002:0000581c       ??_C@_1BI@LDHJHHAC@?$AAe?$AAn?$AAg?$AAl?$AAi?$AAs?$AAh?$AA?9?$AAi?$AAr?$AAe@ 0052d81c     libucrt:get_qualified_locale.obj
 0002:00005834       ??_C@_1CA@NJMMCFOC@?$AAe?$AAn?$AAg?$AAl?$AAi?$AAs?$AAh?$AA?9?$AAj?$AAa?$AAm?$AAa?$AAi?$AAc?$AAa@ 0052d834     libucrt:get_qualified_locale.obj
 0002:00005854       ??_C@_1BG@BHJEBBGG@?$AAe?$AAn?$AAg?$AAl?$AAi?$AAs?$AAh?$AA?9?$AAn?$AAz@ 0052d854     libucrt:get_qualified_locale.obj
 0002:0000586c       ??_C@_1CK@FGOEJJCO@?$AAe?$AAn?$AAg?$AAl?$AAi?$AAs?$AAh?$AA?9?$AAs?$AAo?$AAu?$AAt?$AAh?$AA?5?$AAa@ 0052d86c     libucrt:get_qualified_locale.obj
 0002:00005898       ??_C@_1DE@PDBJPCJ@?$AAe?$AAn?$AAg?$AAl?$AAi?$AAs?$AAh?$AA?9?$AAt?$AAr?$AAi?$AAn?$AAi?$AAd?$AAa@ 0052d898     libucrt:get_qualified_locale.obj
 0002:000058cc       ??_C@_1BG@JGCANDME@?$AAe?$AAn?$AAg?$AAl?$AAi?$AAs?$AAh?$AA?9?$AAu?$AAk@ 0052d8cc     libucrt:get_qualified_locale.obj
 0002:000058e4       ??_C@_1BG@DINKMLE@?$AAe?$AAn?$AAg?$AAl?$AAi?$AAs?$AAh?$AA?9?$AAu?$AAs@ 0052d8e4     libucrt:get_qualified_locale.obj
 0002:000058fc       ??_C@_1BI@NMFDBHJE@?$AAe?$AAn?$AAg?$AAl?$AAi?$AAs?$AAh?$AA?9?$AAu?$AAs?$AAa@ 0052d8fc     libucrt:get_qualified_locale.obj
 0002:00005914       ??_C@_1BO@OIHKJKII@?$AAf?$AAr?$AAe?$AAn?$AAc?$AAh?$AA?9?$AAb?$AAe?$AAl?$AAg?$AAi?$AAa?$AAn@ 0052d914     libucrt:get_qualified_locale.obj
 0002:00005934       ??_C@_1CA@NKAELJKI@?$AAf?$AAr?$AAe?$AAn?$AAc?$AAh?$AA?9?$AAc?$AAa?$AAn?$AAa?$AAd?$AAi?$AAa?$AAn@ 0052d934     libucrt:get_qualified_locale.obj
 0002:00005954       ??_C@_1CE@MGKCNLGN@?$AAf?$AAr?$AAe?$AAn?$AAc?$AAh?$AA?9?$AAl?$AAu?$AAx?$AAe?$AAm?$AAb?$AAo?$AAu@ 0052d954     libucrt:get_qualified_locale.obj
 0002:00005978       ??_C@_1BK@CEGEAILM@?$AAf?$AAr?$AAe?$AAn?$AAc?$AAh?$AA?9?$AAs?$AAw?$AAi?$AAs?$AAs@ 0052d978     libucrt:get_qualified_locale.obj
 0002:00005994       ??_C@_1CA@PAFKEOCC@?$AAg?$AAe?$AAr?$AAm?$AAa?$AAn?$AA?9?$AAa?$AAu?$AAs?$AAt?$AAr?$AAi?$AAa?$AAn@ 0052d994     libucrt:get_qualified_locale.obj
 0002:000059b4       ??_C@_1CI@HCFHGOFD@?$AAg?$AAe?$AAr?$AAm?$AAa?$AAn?$AA?9?$AAl?$AAi?$AAc?$AAh?$AAt?$AAe?$AAn?$AAs@ 0052d9b4     libucrt:get_qualified_locale.obj
 0002:000059dc       ??_C@_1CE@FEDDNPDG@?$AAg?$AAe?$AAr?$AAm?$AAa?$AAn?$AA?9?$AAl?$AAu?$AAx?$AAe?$AAm?$AAb?$AAo?$AAu@ 0052d9dc     libucrt:get_qualified_locale.obj
 0002:00005a00       ??_C@_1BK@LIMINNMN@?$AAg?$AAe?$AAr?$AAm?$AAa?$AAn?$AA?9?$AAs?$AAw?$AAi?$AAs?$AAs@ 0052da00     libucrt:get_qualified_locale.obj
 0002:00005a1c       ??_C@_1BM@LGMDBEPD@?$AAi?$AAr?$AAi?$AAs?$AAh?$AA?9?$AAe?$AAn?$AAg?$AAl?$AAi?$AAs?$AAh@ 0052da1c     libucrt:get_qualified_locale.obj
 0002:00005a38       ??_C@_1BM@NNCFBAEE@?$AAi?$AAt?$AAa?$AAl?$AAi?$AAa?$AAn?$AA?9?$AAs?$AAw?$AAi?$AAs?$AAs@ 0052da38     libucrt:get_qualified_locale.obj
 0002:00005a54       ??_C@_1BE@FEDJNPIB@?$AAn?$AAo?$AAr?$AAw?$AAe?$AAg?$AAi?$AAa?$AAn@ 0052da54     libucrt:get_qualified_locale.obj
 0002:00005a68       ??_C@_1CC@CILKDEIE@?$AAn?$AAo?$AAr?$AAw?$AAe?$AAg?$AAi?$AAa?$AAn?$AA?9?$AAb?$AAo?$AAk?$AAm?$AAa@ 0052da68     libucrt:get_qualified_locale.obj
 0002:00005a8c       ??_C@_1CE@DHMMHEPL@?$AAn?$AAo?$AAr?$AAw?$AAe?$AAg?$AAi?$AAa?$AAn?$AA?9?$AAn?$AAy?$AAn?$AAo?$AAr@ 0052da8c     libucrt:get_qualified_locale.obj
 0002:00005ab0       ??_C@_1CK@OPNMHECD@?$AAp?$AAo?$AAr?$AAt?$AAu?$AAg?$AAu?$AAe?$AAs?$AAe?$AA?9?$AAb?$AAr?$AAa?$AAz@ 0052dab0     libucrt:get_qualified_locale.obj
 0002:00005adc       ??_C@_1CE@KEEHCDB@?$AAs?$AAp?$AAa?$AAn?$AAi?$AAs?$AAh?$AA?9?$AAa?$AAr?$AAg?$AAe?$AAn?$AAt?$AAi@ 0052dadc     libucrt:get_qualified_locale.obj
 0002:00005b00       ??_C@_1CA@GIAOLHJD@?$AAs?$AAp?$AAa?$AAn?$AAi?$AAs?$AAh?$AA?9?$AAb?$AAo?$AAl?$AAi?$AAv?$AAi?$AAa@ 0052db00     libucrt:get_qualified_locale.obj
 0002:00005b20       ??_C@_1BM@OJNDFNPD@?$AAs?$AAp?$AAa?$AAn?$AAi?$AAs?$AAh?$AA?9?$AAc?$AAh?$AAi?$AAl?$AAe@ 0052db20     libucrt:get_qualified_locale.obj
 0002:00005b3c       ??_C@_1CC@OCOLPALL@?$AAs?$AAp?$AAa?$AAn?$AAi?$AAs?$AAh?$AA?9?$AAc?$AAo?$AAl?$AAo?$AAm?$AAb?$AAi@ 0052db3c     libucrt:get_qualified_locale.obj
 0002:00005b60       ??_C@_1CG@BPOFMKBB@?$AAs?$AAp?$AAa?$AAn?$AAi?$AAs?$AAh?$AA?9?$AAc?$AAo?$AAs?$AAt?$AAa?$AA?5?$AAr@ 0052db60     libucrt:get_qualified_locale.obj
 0002:00005b88       ??_C@_1DG@IGOBAPBB@?$AAs?$AAp?$AAa?$AAn?$AAi?$AAs?$AAh?$AA?9?$AAd?$AAo?$AAm?$AAi?$AAn?$AAi?$AAc@ 0052db88     libucrt:get_qualified_locale.obj
 0002:00005bc0       ??_C@_1CA@JHAPGEGI@?$AAs?$AAp?$AAa?$AAn?$AAi?$AAs?$AAh?$AA?9?$AAe?$AAc?$AAu?$AAa?$AAd?$AAo?$AAr@ 0052dbc0     libucrt:get_qualified_locale.obj
 0002:00005be0       ??_C@_1CI@LAPALJPP@?$AAs?$AAp?$AAa?$AAn?$AAi?$AAs?$AAh?$AA?9?$AAe?$AAl?$AA?5?$AAs?$AAa?$AAl?$AAv@ 0052dbe0     libucrt:get_qualified_locale.obj
 0002:00005c08       ??_C@_1CE@PDGBOFOM@?$AAs?$AAp?$AAa?$AAn?$AAi?$AAs?$AAh?$AA?9?$AAg?$AAu?$AAa?$AAt?$AAe?$AAm?$AAa@ 0052dc08     libucrt:get_qualified_locale.obj
 0002:00005c2c       ??_C@_1CC@NBEBAODI@?$AAs?$AAp?$AAa?$AAn?$AAi?$AAs?$AAh?$AA?9?$AAh?$AAo?$AAn?$AAd?$AAu?$AAr?$AAa@ 0052dc2c     libucrt:get_qualified_locale.obj
 0002:00005c50       ??_C@_1CA@LLKGHBMF@?$AAs?$AAp?$AAa?$AAn?$AAi?$AAs?$AAh?$AA?9?$AAm?$AAe?$AAx?$AAi?$AAc?$AAa?$AAn@ 0052dc50     libucrt:get_qualified_locale.obj
 0002:00005c70       ??_C@_1BO@LKNDOIGD@?$AAs?$AAp?$AAa?$AAn?$AAi?$AAs?$AAh?$AA?9?$AAm?$AAo?$AAd?$AAe?$AAr?$AAn@ 0052dc70     libucrt:get_qualified_locale.obj
 0002:00005c90       ??_C@_1CE@NMDMOEEB@?$AAs?$AAp?$AAa?$AAn?$AAi?$AAs?$AAh?$AA?9?$AAn?$AAi?$AAc?$AAa?$AAr?$AAa?$AAg@ 0052dc90     libucrt:get_qualified_locale.obj
 0002:00005cb4       ??_C@_1BO@LLCBEJGB@?$AAs?$AAp?$AAa?$AAn?$AAi?$AAs?$AAh?$AA?9?$AAp?$AAa?$AAn?$AAa?$AAm?$AAa@ 0052dcb4     libucrt:get_qualified_locale.obj
 0002:00005cd4       ??_C@_1CC@FKPGGIHO@?$AAs?$AAp?$AAa?$AAn?$AAi?$AAs?$AAh?$AA?9?$AAp?$AAa?$AAr?$AAa?$AAg?$AAu?$AAa@ 0052dcd4     libucrt:get_qualified_locale.obj
 0002:00005cf8       ??_C@_1BK@CDEIHOOP@?$AAs?$AAp?$AAa?$AAn?$AAi?$AAs?$AAh?$AA?9?$AAp?$AAe?$AAr?$AAu@ 0052dcf8     libucrt:get_qualified_locale.obj
 0002:00005d14       ??_C@_1CI@GAHAKKGP@?$AAs?$AAp?$AAa?$AAn?$AAi?$AAs?$AAh?$AA?9?$AAp?$AAu?$AAe?$AAr?$AAt?$AAo?$AA?5@ 0052dd14     libucrt:get_qualified_locale.obj
 0002:00005d3c       ??_C@_1CA@NKJBCAGP@?$AAs?$AAp?$AAa?$AAn?$AAi?$AAs?$AAh?$AA?9?$AAu?$AAr?$AAu?$AAg?$AAu?$AAa?$AAy@ 0052dd3c     libucrt:get_qualified_locale.obj
 0002:00005d5c       ??_C@_1CE@ODILCONM@?$AAs?$AAp?$AAa?$AAn?$AAi?$AAs?$AAh?$AA?9?$AAv?$AAe?$AAn?$AAe?$AAz?$AAu?$AAe@ 0052dd5c     libucrt:get_qualified_locale.obj
 0002:00005d80       ??_C@_1CA@OBNMCGFO@?$AAs?$AAw?$AAe?$AAd?$AAi?$AAs?$AAh?$AA?9?$AAf?$AAi?$AAn?$AAl?$AAa?$AAn?$AAd@ 0052dd80     libucrt:get_qualified_locale.obj
 0002:00005da0       ??_C@_1M@PIPDDPPI@?$AAs?$AAw?$AAi?$AAs?$AAs@ 0052dda0     libucrt:get_qualified_locale.obj
 0002:00005dac       ??_C@_15PJPFLCCM@?$AAu?$AAk@ 0052ddac     libucrt:get_qualified_locale.obj
 0002:00005db4       ??_C@_15GMFIMNFM@?$AAu?$AAs@ 0052ddb4     libucrt:get_qualified_locale.obj
 0002:00005dbc       ??_C@_17HAEBFAGL@?$AAu?$AAs?$AAa@ 0052ddbc     libucrt:get_qualified_locale.obj
 0002:00005dc4       ??_C@_1BA@DPFJEPHB@?$AAa?$AAm?$AAe?$AAr?$AAi?$AAc?$AAa@ 0052ddc4     libucrt:get_qualified_locale.obj
 0002:00005dd4       ??_C@_1BA@ELOGGFK@?$AAb?$AAr?$AAi?$AAt?$AAa?$AAi?$AAn@ 0052ddd4     libucrt:get_qualified_locale.obj
 0002:00005de4       ??_C@_1M@GHBGIGDA@?$AAc?$AAh?$AAi?$AAn?$AAa@ 0052dde4     libucrt:get_qualified_locale.obj
 0002:00005df0       ??_C@_1M@NCHEJOPO@?$AAc?$AAz?$AAe?$AAc?$AAh@ 0052ddf0     libucrt:get_qualified_locale.obj
 0002:00005dfc       ??_C@_1BA@BKPAPBLA@?$AAe?$AAn?$AAg?$AAl?$AAa?$AAn?$AAd@ 0052ddfc     libucrt:get_qualified_locale.obj
 0002:00005e0c       ??_C@_1BM@HKBCKIPC@?$AAg?$AAr?$AAe?$AAa?$AAt?$AA?5?$AAb?$AAr?$AAi?$AAt?$AAa?$AAi?$AAn@ 0052de0c     libucrt:get_qualified_locale.obj
 0002:00005e28       ??_C@_1BA@PPCHPGJB@?$AAh?$AAo?$AAl?$AAl?$AAa?$AAn?$AAd@ 0052de28     libucrt:get_qualified_locale.obj
 0002:00005e38       ??_C@_1BE@JBMPEGDG@?$AAh?$AAo?$AAn?$AAg?$AA?9?$AAk?$AAo?$AAn?$AAg@ 0052de38     libucrt:get_qualified_locale.obj
 0002:00005e4c       ??_C@_1BI@KOELBBPJ@?$AAn?$AAe?$AAw?$AA?9?$AAz?$AAe?$AAa?$AAl?$AAa?$AAn?$AAd@ 0052de4c     libucrt:get_qualified_locale.obj
 0002:00005e64       ??_C@_15HIEBHAIO@?$AAn?$AAz@ 0052de64     libucrt:get_qualified_locale.obj
 0002:00005e6c       ??_C@_1BC@CHBCPFPI@?$AAp?$AAr?$AA?5?$AAc?$AAh?$AAi?$AAn?$AAa@ 0052de6c     libucrt:get_qualified_locale.obj
 0002:00005e80       ??_C@_1BC@JAOIIFKD@?$AAp?$AAr?$AA?9?$AAc?$AAh?$AAi?$AAn?$AAa@ 0052de80     libucrt:get_qualified_locale.obj
 0002:00005e94       ??_C@_1BI@BEHPPHKC@?$AAp?$AAu?$AAe?$AAr?$AAt?$AAo?$AA?9?$AAr?$AAi?$AAc?$AAo@ 0052de94     libucrt:get_qualified_locale.obj
 0002:00005eac       ??_C@_1O@PAEOFKDI@?$AAs?$AAl?$AAo?$AAv?$AAa?$AAk@ 0052deac     libucrt:get_qualified_locale.obj
 0002:00005ebc       ??_C@_1BK@FIHMCKAM@?$AAs?$AAo?$AAu?$AAt?$AAh?$AA?5?$AAa?$AAf?$AAr?$AAi?$AAc?$AAa@ 0052debc     libucrt:get_qualified_locale.obj
 0002:00005ed8       ??_C@_1BI@NAEOODKB@?$AAs?$AAo?$AAu?$AAt?$AAh?$AA?5?$AAk?$AAo?$AAr?$AAe?$AAa@ 0052ded8     libucrt:get_qualified_locale.obj
 0002:00005ef0       ??_C@_1BK@FBDGGIFF@?$AAs?$AAo?$AAu?$AAt?$AAh?$AA?9?$AAa?$AAf?$AAr?$AAi?$AAc?$AAa@ 0052def0     libucrt:get_qualified_locale.obj
 0002:00005f0c       ??_C@_1BI@GHLEJDPK@?$AAs?$AAo?$AAu?$AAt?$AAh?$AA?9?$AAk?$AAo?$AAr?$AAe?$AAa@ 0052df0c     libucrt:get_qualified_locale.obj
 0002:00005f24       ??_C@_1CE@PLHLOMJF@?$AAt?$AAr?$AAi?$AAn?$AAi?$AAd?$AAa?$AAd?$AA?5?$AA?$CG?$AA?5?$AAt?$AAo?$AAb?$AAa@ 0052df24     libucrt:get_qualified_locale.obj
 0002:00005f48       ??_C@_1BO@MODIMHHI@?$AAu?$AAn?$AAi?$AAt?$AAe?$AAd?$AA?9?$AAk?$AAi?$AAn?$AAg?$AAd?$AAo?$AAm@ 0052df48     libucrt:get_qualified_locale.obj
 0002:00005f68       ??_C@_1BM@FFHJONBJ@?$AAu?$AAn?$AAi?$AAt?$AAe?$AAd?$AA?9?$AAs?$AAt?$AAa?$AAt?$AAe?$AAs@ 0052df68     libucrt:get_qualified_locale.obj
 0002:00005f84       ??_C@_19MPDNHKDG@?$AAu?$AAt?$AAf?$AA8@ 0052df84     libucrt:get_qualified_locale.obj
 0002:00005f90       ??_C@_17DNCLJFIF@?$AAA?$AAC?$AAP@ 0052df90     libucrt:get_qualified_locale.obj
 0002:00005f98       ??_C@_1M@FPEIIFAM@?$AAu?$AAt?$AAf?$AA?9?$AA8@ 0052df98     libucrt:get_qualified_locale.obj
 0002:00005fa4       ??_C@_17CIKBIHLH@?$AAO?$AAC?$AAP@ 0052dfa4     libucrt:get_qualified_locale.obj
 0002:00005fac       ___rglangidNotDefault      0052dfac     libucrt:getqloc_downlevel.obj
 0002:00005fc0       ??_C@_05DNEBIAHO@1?$CDINF@ 0052dfc0     libucrt:cfout.obj
 0002:00005fc8       ??_C@_06IMKFLFPG@1?$CDQNAN@ 0052dfc8     libucrt:cfout.obj
 0002:00005fd0       ??_C@_06PGGFOGJG@1?$CDSNAN@ 0052dfd0     libucrt:cfout.obj
 0002:00005fd8       ??_C@_05PHHOCPM@1?$CDIND@  0052dfd8     libucrt:cfout.obj
 0002:00006700       ??_C@_15EMKDOKLE@?$AAa?$AAr@ 0052e700     libucrt:lcidtoname_downlevel.obj
 0002:00006708       ??_C@_15KNPADPLH@?$AAb?$AAg@ 0052e708     libucrt:lcidtoname_downlevel.obj
 0002:00006710       ??_C@_15EDMHLDMO@?$AAc?$AAa@ 0052e710     libucrt:lcidtoname_downlevel.obj
 0002:00006718       ??_C@_1O@BPEAJADD@?$AAz?$AAh?$AA?9?$AAC?$AAH?$AAS@ 0052e718     libucrt:lcidtoname_downlevel.obj
 0002:00006728       ??_C@_15LJNHCMNK@?$AAc?$AAs@ 0052e728     libucrt:lcidtoname_downlevel.obj
 0002:00006730       ??_C@_15FOMCIDHG@?$AAd?$AAa@ 0052e730     libucrt:lcidtoname_downlevel.obj
 0002:00006738       ??_C@_15NBKABECB@?$AAd?$AAe@ 0052e738     libucrt:lcidtoname_downlevel.obj
 0002:00006740       ??_C@_15GHPEIIAO@?$AAe?$AAl@ 0052e740     libucrt:lcidtoname_downlevel.obj
 0002:00006748       ??_C@_15MNPNEAIF@?$AAe?$AAn@ 0052e748     libucrt:lcidtoname_downlevel.obj
 0002:00006750       ??_C@_15GPIOMPMH@?$AAe?$AAs@ 0052e750     libucrt:lcidtoname_downlevel.obj
 0002:00006758       ??_C@_15NGLOAKJC@?$AAf?$AAi@ 0052e758     libucrt:lcidtoname_downlevel.obj
 0002:00006760       ??_C@_15FBKGNKAM@?$AAf?$AAr@ 0052e760     libucrt:lcidtoname_downlevel.obj
 0002:00006768       ??_C@_15KGGCNEFK@?$AAh?$AAe@ 0052e768     libucrt:lcidtoname_downlevel.obj
 0002:00006770       ??_C@_15PGHLIDMF@?$AAh?$AAu@ 0052e770     libucrt:lcidtoname_downlevel.obj
 0002:00006778       ??_C@_15BIEMAPLM@?$AAi?$AAs@ 0052e778     libucrt:lcidtoname_downlevel.obj
 0002:00006780       ??_C@_15IFJLDHAF@?$AAi?$AAt@ 0052e780     libucrt:lcidtoname_downlevel.obj
 0002:00006788       ??_C@_15GEMIOCAG@?$AAj?$AAa@ 0052e788     libucrt:lcidtoname_downlevel.obj
 0002:00006790       ??_C@_15EPELEGJA@?$AAk?$AAo@ 0052e790     libucrt:lcidtoname_downlevel.obj
 0002:00006798       ??_C@_15NDDHIMN@?$AAn?$AAl@ 0052e798     libucrt:lcidtoname_downlevel.obj
 0002:000067a0       ??_C@_15BPIGNHCD@?$AAn?$AAo@ 0052e7a0     libucrt:lcidtoname_downlevel.obj
 0002:000067a8       ??_C@_15DEOPBLCG@?$AAp?$AAl@ 0052e7a8     libucrt:lcidtoname_downlevel.obj
 0002:000067b0       ??_C@_15KBECGEFG@?$AAp?$AAt@ 0052e7b0     libucrt:lcidtoname_downlevel.obj
 0002:000067b8       ??_C@_15GLJCBFMD@?$AAr?$AAo@ 0052e7b8     libucrt:lcidtoname_downlevel.obj
 0002:000067c0       ??_C@_15FEDGKCDI@?$AAr?$AAu@ 0052e7c0     libucrt:lcidtoname_downlevel.obj
 0002:000067c8       ??_C@_15GLKMLLHM@?$AAh?$AAr@ 0052e7c8     libucrt:lcidtoname_downlevel.obj
 0002:000067d0       ??_C@_15CPKMFBDB@?$AAs?$AAk@ 0052e7d0     libucrt:lcidtoname_downlevel.obj
 0002:000067d8       ??_C@_15BAAIOGMK@?$AAs?$AAq@ 0052e7d8     libucrt:lcidtoname_downlevel.obj
 0002:000067e0       ??_C@_15INNPNOHD@?$AAs?$AAv@ 0052e7e0     libucrt:lcidtoname_downlevel.obj
 0002:000067e8       ??_C@_15CABMMOGH@?$AAt?$AAh@ 0052e7e8     libucrt:lcidtoname_downlevel.obj
 0002:000067f0       ??_C@_15BPLIHJJM@?$AAt?$AAr@ 0052e7f0     libucrt:lcidtoname_downlevel.obj
 0002:000067f8       ??_C@_15NEOEKKDJ@?$AAu?$AAr@ 0052e7f8     libucrt:lcidtoname_downlevel.obj
 0002:00006800       ??_C@_15NFICGAJK@?$AAi?$AAd@ 0052e800     libucrt:lcidtoname_downlevel.obj
 0002:00006808       ??_C@_15HPJPHDM@?$AAb?$AAe@ 0052e808     libucrt:lcidtoname_downlevel.obj
 0002:00006810       ??_C@_15LCHLGJII@?$AAs?$AAl@ 0052e810     libucrt:lcidtoname_downlevel.obj
 0002:00006818       ??_C@_15PCFJPHHO@?$AAe?$AAt@ 0052e818     libucrt:lcidtoname_downlevel.obj
 0002:00006820       ??_C@_15HPFPGODN@?$AAl?$AAv@ 0052e820     libucrt:lcidtoname_downlevel.obj
 0002:00006828       ??_C@_15NFFGKGLG@?$AAl?$AAt@ 0052e828     libucrt:lcidtoname_downlevel.obj
 0002:00006830       ??_C@_15BDAKCCHN@?$AAf?$AAa@ 0052e830     libucrt:lcidtoname_downlevel.obj
 0002:00006838       ??_C@_15NFGIAIAJ@?$AAv?$AAi@ 0052e838     libucrt:lcidtoname_downlevel.obj
 0002:00006840       ??_C@_15LMKNDMHN@?$AAh?$AAy@ 0052e840     libucrt:lcidtoname_downlevel.obj
 0002:00006848       ??_C@_15IJBHMCFL@?$AAa?$AAz@ 0052e848     libucrt:lcidtoname_downlevel.obj
 0002:00006850       ??_C@_15EKOFJABL@?$AAe?$AAu@ 0052e850     libucrt:lcidtoname_downlevel.obj
 0002:00006858       ??_C@_15BGHADCNK@?$AAm?$AAk@ 0052e858     libucrt:lcidtoname_downlevel.obj
 0002:00006860       ??_C@_15JDNICKHM@?$AAa?$AAf@ 0052e860     libucrt:lcidtoname_downlevel.obj
 0002:00006868       ??_C@_15KPJEDBKD@?$AAk?$AAa@ 0052e868     libucrt:lcidtoname_downlevel.obj
 0002:00006870       ??_C@_15PDNFFFEO@?$AAf?$AAo@ 0052e870     libucrt:lcidtoname_downlevel.obj
 0002:00006878       ??_C@_15OMLEGLOC@?$AAh?$AAi@ 0052e878     libucrt:lcidtoname_downlevel.obj
 0002:00006880       ??_C@_15IDNNENKK@?$AAm?$AAs@ 0052e880     libucrt:lcidtoname_downlevel.obj
 0002:00006888       ??_C@_15MACJNBMH@?$AAk?$AAk@ 0052e888     libucrt:lcidtoname_downlevel.obj
 0002:00006890       ??_C@_15DKDJEOND@?$AAk?$AAy@ 0052e890     libucrt:lcidtoname_downlevel.obj
 0002:00006898       ??_C@_15DFGDLJBG@?$AAs?$AAw@ 0052e898     libucrt:lcidtoname_downlevel.obj
 0002:000068a0       ??_C@_15BBFAICNG@?$AAu?$AAz@ 0052e8a0     libucrt:lcidtoname_downlevel.obj
 0002:000068a8       ??_C@_15DKNDCGEA@?$AAt?$AAt@ 0052e8a8     libucrt:lcidtoname_downlevel.obj
 0002:000068b0       ??_C@_15MGIFMDPL@?$AAp?$AAa@ 0052e8b0     libucrt:lcidtoname_downlevel.obj
 0002:000068b8       ??_C@_15HCNDBBA@?$AAg?$AAu@ 0052e8b8     libucrt:lcidtoname_downlevel.obj
 0002:000068c0       ??_C@_15FNBEIBON@?$AAt?$AAa@ 0052e8c0     libucrt:lcidtoname_downlevel.obj
 0002:000068c8       ??_C@_15NCHGBGLK@?$AAt?$AAe@ 0052e8c8     libucrt:lcidtoname_downlevel.obj
 0002:000068d0       ??_C@_15PHPHCBPF@?$AAk?$AAn@ 0052e8d0     libucrt:lcidtoname_downlevel.obj
 0002:000068d8       ??_C@_15DLGBCKMP@?$AAm?$AAr@ 0052e8d8     libucrt:lcidtoname_downlevel.obj
 0002:000068e0       ??_C@_15EABBLBFF@?$AAs?$AAa@ 0052e8e0     libucrt:lcidtoname_downlevel.obj
 0002:000068e8       ??_C@_15CBKOMCOI@?$AAm?$AAn@ 0052e8e8     libucrt:lcidtoname_downlevel.obj
 0002:000068f0       ??_C@_15CKDMCJAF@?$AAg?$AAl@ 0052e8f0     libucrt:lcidtoname_downlevel.obj
 0002:000068f8       ??_C@_17CNJFBPG@?$AAk?$AAo?$AAk@ 0052e8f8     libucrt:lcidtoname_downlevel.obj
 0002:00006900       ??_C@_17FFBJICPL@?$AAs?$AAy?$AAr@ 0052e900     libucrt:lcidtoname_downlevel.obj
 0002:00006908       ??_C@_17KPNDCPAF@?$AAd?$AAi?$AAv@ 0052e908     libucrt:lcidtoname_downlevel.obj
 0002:00006910       ??_C@_11LOCGONAA@@         0052e910     libucrt:lcidtoname_downlevel.obj
 0002:00006914       ??_C@_1M@OKAHONE@?$AAa?$AAr?$AA?9?$AAS?$AAA@ 0052e914     libucrt:lcidtoname_downlevel.obj
 0002:00006920       ??_C@_1M@FFFIGIGK@?$AAb?$AAg?$AA?9?$AAB?$AAG@ 0052e920     libucrt:lcidtoname_downlevel.obj
 0002:0000692c       ??_C@_1M@BJNKEDC@?$AAc?$AAa?$AA?9?$AAE?$AAS@ 0052e92c     libucrt:lcidtoname_downlevel.obj
 0002:00006938       ??_C@_1M@IJJHFJHA@?$AAc?$AAs?$AA?9?$AAC?$AAZ@ 0052e938     libucrt:lcidtoname_downlevel.obj
 0002:00006944       ??_C@_1M@CLPEOBGI@?$AAd?$AAa?$AA?9?$AAD?$AAK@ 0052e944     libucrt:lcidtoname_downlevel.obj
 0002:00006950       ??_C@_1M@MCMADGCB@?$AAd?$AAe?$AA?9?$AAD?$AAE@ 0052e950     libucrt:lcidtoname_downlevel.obj
 0002:0000695c       ??_C@_1M@OOCKEMAM@?$AAe?$AAl?$AA?9?$AAG?$AAR@ 0052e95c     libucrt:lcidtoname_downlevel.obj
 0002:00006968       ??_C@_1M@DDNJFGID@?$AAf?$AAi?$AA?9?$AAF?$AAI@ 0052e968     libucrt:lcidtoname_downlevel.obj
 0002:00006974       ??_C@_1M@GLIPPMAC@?$AAf?$AAr?$AA?9?$AAF?$AAR@ 0052e974     libucrt:lcidtoname_downlevel.obj
 0002:00006980       ??_C@_1M@GFMCHPE@?$AAh?$AAe?$AA?9?$AAI?$AAL@ 0052e980     libucrt:lcidtoname_downlevel.obj
 0002:0000698c       ??_C@_1M@MHLPGNKM@?$AAh?$AAu?$AA?9?$AAH?$AAU@ 0052e98c     libucrt:lcidtoname_downlevel.obj
 0002:00006998       ??_C@_1M@LPDDNNPN@?$AAi?$AAs?$AA?9?$AAI?$AAS@ 0052e998     libucrt:lcidtoname_downlevel.obj
 0002:000069a4       ??_C@_1M@MADIPODN@?$AAi?$AAt?$AA?9?$AAI?$AAT@ 0052e9a4     libucrt:lcidtoname_downlevel.obj
 0002:000069b0       ??_C@_1M@IHBJJGG@?$AAn?$AAl?$AA?9?$AAN?$AAL@ 0052e9b0     libucrt:lcidtoname_downlevel.obj
 0002:000069bc       ??_C@_1M@EANAGDL@?$AAn?$AAb?$AA?9?$AAN?$AAO@ 0052e9bc     libucrt:lcidtoname_downlevel.obj
 0002:000069c8       ??_C@_1M@NEIEMEGP@?$AAp?$AAl?$AA?9?$AAP?$AAL@ 0052e9c8     libucrt:lcidtoname_downlevel.obj
 0002:000069d4       ??_C@_1M@BOCFIGEP@?$AAp?$AAt?$AA?9?$AAB?$AAR@ 0052e9d4     libucrt:lcidtoname_downlevel.obj
 0002:000069e0       ??_C@_1M@IMPFOPBG@?$AAr?$AAo?$AA?9?$AAR?$AAO@ 0052e9e0     libucrt:lcidtoname_downlevel.obj
 0002:000069ec       ??_C@_1M@IDNNEJMM@?$AAr?$AAu?$AA?9?$AAR?$AAU@ 0052e9ec     libucrt:lcidtoname_downlevel.obj
 0002:000069f8       ??_C@_1M@LILEEOGM@?$AAh?$AAr?$AA?9?$AAH?$AAR@ 0052e9f8     libucrt:lcidtoname_downlevel.obj
 0002:00006a04       ??_C@_1M@FKIFEHPB@?$AAs?$AAk?$AA?9?$AAS?$AAK@ 0052ea04     libucrt:lcidtoname_downlevel.obj
 0002:00006a10       ??_C@_1M@LJMAMNPJ@?$AAs?$AAq?$AA?9?$AAA?$AAL@ 0052ea10     libucrt:lcidtoname_downlevel.obj
 0002:00006a1c       ??_C@_1M@GIAKDKJK@?$AAs?$AAv?$AA?9?$AAS?$AAE@ 0052ea1c     libucrt:lcidtoname_downlevel.obj
 0002:00006a28       ??_C@_1M@MKJKIKCL@?$AAt?$AAh?$AA?9?$AAT?$AAH@ 0052ea28     libucrt:lcidtoname_downlevel.obj
 0002:00006a34       ??_C@_1M@MFLCCMPB@?$AAt?$AAr?$AA?9?$AAT?$AAR@ 0052ea34     libucrt:lcidtoname_downlevel.obj
 0002:00006a40       ??_C@_1M@OIJHDKJN@?$AAu?$AAr?$AA?9?$AAP?$AAK@ 0052ea40     libucrt:lcidtoname_downlevel.obj
 0002:00006a4c       ??_C@_1M@LHIPCIEK@?$AAi?$AAd?$AA?9?$AAI?$AAD@ 0052ea4c     libucrt:lcidtoname_downlevel.obj
 0002:00006a58       ??_C@_1M@MFMOBGI@?$AAu?$AAk?$AA?9?$AAU?$AAA@ 0052ea58     libucrt:lcidtoname_downlevel.obj
 0002:00006a64       ??_C@_1M@OBGLJIPL@?$AAb?$AAe?$AA?9?$AAB?$AAY@ 0052ea64     libucrt:lcidtoname_downlevel.obj
 0002:00006a70       ??_C@_1M@BCFAJEAD@?$AAs?$AAl?$AA?9?$AAS?$AAI@ 0052ea70     libucrt:lcidtoname_downlevel.obj
 0002:00006a7c       ??_C@_1M@FKFFEDDN@?$AAe?$AAt?$AA?9?$AAE?$AAE@ 0052ea7c     libucrt:lcidtoname_downlevel.obj
 0002:00006a88       ??_C@_1M@KGKKAACI@?$AAl?$AAv?$AA?9?$AAL?$AAV@ 0052ea88     libucrt:lcidtoname_downlevel.obj
 0002:00006a94       ??_C@_1M@IFGBIJO@?$AAl?$AAt?$AA?9?$AAL?$AAT@ 0052ea94     libucrt:lcidtoname_downlevel.obj
 0002:00006aa0       ??_C@_1M@FGEAHEDM@?$AAf?$AAa?$AA?9?$AAI?$AAR@ 0052eaa0     libucrt:lcidtoname_downlevel.obj
 0002:00006aac       ??_C@_1M@KBMAIBFN@?$AAv?$AAi?$AA?9?$AAV?$AAN@ 0052eaac     libucrt:lcidtoname_downlevel.obj
 0002:00006ab8       ??_C@_1M@GPCBKDJK@?$AAh?$AAy?$AA?9?$AAA?$AAM@ 0052eab8     libucrt:lcidtoname_downlevel.obj
 0002:00006ac4       ??_C@_1BG@BECMDDJB@?$AAa?$AAz?$AA?9?$AAA?$AAZ?$AA?9?$AAL?$AAa?$AAt?$AAn@ 0052eac4     libucrt:lcidtoname_downlevel.obj
 0002:00006adc       ??_C@_1M@MAOFCAEA@?$AAe?$AAu?$AA?9?$AAE?$AAS@ 0052eadc     libucrt:lcidtoname_downlevel.obj
 0002:00006ae8       ??_C@_1M@IGHABKPI@?$AAm?$AAk?$AA?9?$AAM?$AAK@ 0052eae8     libucrt:lcidtoname_downlevel.obj
 0002:00006af4       ??_C@_1M@IAIGNEJG@?$AAt?$AAn?$AA?9?$AAZ?$AAA@ 0052eaf4     libucrt:lcidtoname_downlevel.obj
 0002:00006b00       ??_C@_1M@IIJCOJFA@?$AAx?$AAh?$AA?9?$AAZ?$AAA@ 0052eb00     libucrt:lcidtoname_downlevel.obj
 0002:00006b0c       ??_C@_1M@LGPJHNJH@?$AAz?$AAu?$AA?9?$AAZ?$AAA@ 0052eb0c     libucrt:lcidtoname_downlevel.obj
 0002:00006b18       ??_C@_1M@HOKAOIO@?$AAa?$AAf?$AA?9?$AAZ?$AAA@ 0052eb18     libucrt:lcidtoname_downlevel.obj
 0002:00006b24       ??_C@_1M@DPCLHLIE@?$AAk?$AAa?$AA?9?$AAG?$AAE@ 0052eb24     libucrt:lcidtoname_downlevel.obj
 0002:00006b30       ??_C@_1M@BLKMHJBI@?$AAf?$AAo?$AA?9?$AAF?$AAO@ 0052eb30     libucrt:lcidtoname_downlevel.obj
 0002:00006b3c       ??_C@_1M@LGGJAPPB@?$AAh?$AAi?$AA?9?$AAI?$AAN@ 0052eb3c     libucrt:lcidtoname_downlevel.obj
 0002:00006b48       ??_C@_1M@FIKPIHFE@?$AAm?$AAt?$AA?9?$AAM?$AAT@ 0052eb48     libucrt:lcidtoname_downlevel.obj
 0002:00006b54       ??_C@_1M@HEGGPBFA@?$AAs?$AAe?$AA?9?$AAN?$AAO@ 0052eb54     libucrt:lcidtoname_downlevel.obj
 0002:00006b60       ??_C@_1M@EIBJEEPA@?$AAm?$AAs?$AA?9?$AAM?$AAY@ 0052eb60     libucrt:lcidtoname_downlevel.obj
 0002:00006b6c       ??_C@_1M@FHLBGMPP@?$AAk?$AAk?$AA?9?$AAK?$AAZ@ 0052eb6c     libucrt:lcidtoname_downlevel.obj
 0002:00006b78       ??_C@_1M@NGJJLCGI@?$AAk?$AAy?$AA?9?$AAK?$AAG@ 0052eb78     libucrt:lcidtoname_downlevel.obj
 0002:00006b84       ??_C@_1M@GIENNBFC@?$AAs?$AAw?$AA?9?$AAK?$AAE@ 0052eb84     libucrt:lcidtoname_downlevel.obj
 0002:00006b90       ??_C@_1BG@NDGMJIMJ@?$AAu?$AAz?$AA?9?$AAU?$AAZ?$AA?9?$AAL?$AAa?$AAt?$AAn@ 0052eb90     libucrt:lcidtoname_downlevel.obj
 0002:00006ba8       ??_C@_1M@IDCCIHBC@?$AAt?$AAt?$AA?9?$AAR?$AAU@ 0052eba8     libucrt:lcidtoname_downlevel.obj
 0002:00006bb4       ??_C@_1M@LOICPMOJ@?$AAb?$AAn?$AA?9?$AAI?$AAN@ 0052ebb4     libucrt:lcidtoname_downlevel.obj
 0002:00006bc0       ??_C@_1M@KPKKNEAH@?$AAp?$AAa?$AA?9?$AAI?$AAN@ 0052ebc0     libucrt:lcidtoname_downlevel.obj
 0002:00006bcc       ??_C@_1M@PJGPPBOG@?$AAg?$AAu?$AA?9?$AAI?$AAN@ 0052ebcc     libucrt:lcidtoname_downlevel.obj
 0002:00006bd8       ??_C@_1M@KMKMOPHI@?$AAt?$AAa?$AA?9?$AAI?$AAN@ 0052ebd8     libucrt:lcidtoname_downlevel.obj
 0002:00006be4       ??_C@_1M@KFEHEPAC@?$AAt?$AAe?$AA?9?$AAI?$AAN@ 0052ebe4     libucrt:lcidtoname_downlevel.obj
 0002:00006bf0       ??_C@_1M@CDCLMGHI@?$AAk?$AAn?$AA?9?$AAI?$AAN@ 0052ebf0     libucrt:lcidtoname_downlevel.obj
 0002:00006bfc       ??_C@_1M@MIODLDKF@?$AAm?$AAl?$AA?9?$AAI?$AAN@ 0052ebfc     libucrt:lcidtoname_downlevel.obj
 0002:00006c08       ??_C@_1M@PBIEACPO@?$AAm?$AAr?$AA?9?$AAI?$AAN@ 0052ec08     libucrt:lcidtoname_downlevel.obj
 0002:00006c14       ??_C@_1M@NIDEAGPH@?$AAs?$AAa?$AA?9?$AAI?$AAN@ 0052ec14     libucrt:lcidtoname_downlevel.obj
 0002:00006c20       ??_C@_1M@FHIHCBIO@?$AAm?$AAn?$AA?9?$AAM?$AAN@ 0052ec20     libucrt:lcidtoname_downlevel.obj
 0002:00006c2c       ??_C@_1M@JAIJPENP@?$AAc?$AAy?$AA?9?$AAG?$AAB@ 0052ec2c     libucrt:lcidtoname_downlevel.obj
 0002:00006c38       ??_C@_1M@PHGFBEPN@?$AAg?$AAl?$AA?9?$AAE?$AAS@ 0052ec38     libucrt:lcidtoname_downlevel.obj
 0002:00006c44       ??_C@_1O@KPIPDNCP@?$AAk?$AAo?$AAk?$AA?9?$AAI?$AAN@ 0052ec44     libucrt:lcidtoname_downlevel.obj
 0002:00006c54       ??_C@_1O@KNHJLDJA@?$AAs?$AAy?$AAr?$AA?9?$AAS?$AAY@ 0052ec54     libucrt:lcidtoname_downlevel.obj
 0002:00006c64       ??_C@_1O@MKEKBLAH@?$AAd?$AAi?$AAv?$AA?9?$AAM?$AAV@ 0052ec64     libucrt:lcidtoname_downlevel.obj
 0002:00006c74       ??_C@_1O@OHDCKDDF@?$AAq?$AAu?$AAz?$AA?9?$AAB?$AAO@ 0052ec74     libucrt:lcidtoname_downlevel.obj
 0002:00006c84       ??_C@_1M@LEPJNLFD@?$AAn?$AAs?$AA?9?$AAZ?$AAA@ 0052ec84     libucrt:lcidtoname_downlevel.obj
 0002:00006c90       ??_C@_1M@OMLEIIJB@?$AAm?$AAi?$AA?9?$AAN?$AAZ@ 0052ec90     libucrt:lcidtoname_downlevel.obj
 0002:00006c9c       ??_C@_1M@PMPEAILG@?$AAa?$AAr?$AA?9?$AAI?$AAQ@ 0052ec9c     libucrt:lcidtoname_downlevel.obj
 0002:00006ca8       ??_C@_1M@CNKPNOEE@?$AAd?$AAe?$AA?9?$AAC?$AAH@ 0052eca8     libucrt:lcidtoname_downlevel.obj
 0002:00006cb4       ??_C@_1M@LKMGMLKO@?$AAe?$AAn?$AA?9?$AAG?$AAB@ 0052ecb4     libucrt:lcidtoname_downlevel.obj
 0002:00006cc0       ??_C@_1M@PGKJFFGL@?$AAe?$AAs?$AA?9?$AAM?$AAX@ 0052ecc0     libucrt:lcidtoname_downlevel.obj
 0002:00006ccc       ??_C@_1M@DNNANBDC@?$AAf?$AAr?$AA?9?$AAB?$AAE@ 0052eccc     libucrt:lcidtoname_downlevel.obj
 0002:00006cd8       ??_C@_1M@HLGMDFHM@?$AAi?$AAt?$AA?9?$AAC?$AAH@ 0052ecd8     libucrt:lcidtoname_downlevel.obj
 0002:00006ce4       ??_C@_1M@CLLBGJH@?$AAn?$AAl?$AA?9?$AAB?$AAE@ 0052ece4     libucrt:lcidtoname_downlevel.obj
 0002:00006cf0       ??_C@_1M@BODBOGLF@?$AAn?$AAn?$AA?9?$AAN?$AAO@ 0052ecf0     libucrt:lcidtoname_downlevel.obj
 0002:00006cfc       ??_C@_1M@HFFAHKAD@?$AAp?$AAt?$AA?9?$AAP?$AAT@ 0052ecfc     libucrt:lcidtoname_downlevel.obj
 0002:00006d08       ??_C@_1BG@LNOAKHIE@?$AAs?$AAr?$AA?9?$AAS?$AAP?$AA?9?$AAL?$AAa?$AAt?$AAn@ 0052ed08     libucrt:lcidtoname_downlevel.obj
 0002:00006d20       ??_C@_1M@HBMHBGAK@?$AAs?$AAv?$AA?9?$AAF?$AAI@ 0052ed20     libucrt:lcidtoname_downlevel.obj
 0002:00006d2c       ??_C@_1BG@DGCJGJBE@?$AAa?$AAz?$AA?9?$AAA?$AAZ?$AA?9?$AAC?$AAy?$AAr?$AAl@ 0052ed2c     libucrt:lcidtoname_downlevel.obj
 0002:00006d44       ??_C@_1M@KEJDAAHB@?$AAs?$AAe?$AA?9?$AAS?$AAE@ 0052ed44     libucrt:lcidtoname_downlevel.obj
 0002:00006d50       ??_C@_1M@HEIBJJAD@?$AAm?$AAs?$AA?9?$AAB?$AAN@ 0052ed50     libucrt:lcidtoname_downlevel.obj
 0002:00006d5c       ??_C@_1BG@PBGJMCEM@?$AAu?$AAz?$AA?9?$AAU?$AAZ?$AA?9?$AAC?$AAy?$AAr?$AAl@ 0052ed5c     libucrt:lcidtoname_downlevel.obj
 0002:00006d74       ??_C@_1O@LAOBCMDF@?$AAq?$AAu?$AAz?$AA?9?$AAE?$AAC@ 0052ed74     libucrt:lcidtoname_downlevel.obj
 0002:00006d84       ??_C@_1M@POEEMAIO@?$AAa?$AAr?$AA?9?$AAE?$AAG@ 0052ed84     libucrt:lcidtoname_downlevel.obj
 0002:00006d90       ??_C@_1M@EFAKDEDL@?$AAz?$AAh?$AA?9?$AAH?$AAK@ 0052ed90     libucrt:lcidtoname_downlevel.obj
 0002:00006d9c       ??_C@_1M@HKKIJHGI@?$AAd?$AAe?$AA?9?$AAA?$AAT@ 0052ed9c     libucrt:lcidtoname_downlevel.obj
 0002:00006da8       ??_C@_1M@KBFBEHJF@?$AAe?$AAn?$AA?9?$AAA?$AAU@ 0052eda8     libucrt:lcidtoname_downlevel.obj
 0002:00006db4       ??_C@_1M@MNPLFAAH@?$AAe?$AAs?$AA?9?$AAE?$AAS@ 0052edb4     libucrt:lcidtoname_downlevel.obj
 0002:00006dc0       ??_C@_1M@HJOOJFMA@?$AAf?$AAr?$AA?9?$AAC?$AAA@ 0052edc0     libucrt:lcidtoname_downlevel.obj
 0002:00006dcc       ??_C@_1BG@JPOFPNAB@?$AAs?$AAr?$AA?9?$AAS?$AAP?$AA?9?$AAC?$AAy?$AAr?$AAl@ 0052edcc     libucrt:lcidtoname_downlevel.obj
 0002:00006de4       ??_C@_1M@LNFOCMOB@?$AAs?$AAe?$AA?9?$AAF?$AAI@ 0052ede4     libucrt:lcidtoname_downlevel.obj
 0002:00006df0       ??_C@_1O@MGJBOAMB@?$AAq?$AAu?$AAz?$AA?9?$AAP?$AAE@ 0052edf0     libucrt:lcidtoname_downlevel.obj
 0002:00006e00       ??_C@_1M@GJINLBOK@?$AAa?$AAr?$AA?9?$AAL?$AAY@ 0052ee00     libucrt:lcidtoname_downlevel.obj
 0002:00006e0c       ??_C@_1M@GGMNHJNL@?$AAz?$AAh?$AA?9?$AAS?$AAG@ 0052ee0c     libucrt:lcidtoname_downlevel.obj
 0002:00006e18       ??_C@_1M@HOIKODND@?$AAd?$AAe?$AA?9?$AAL?$AAU@ 0052ee18     libucrt:lcidtoname_downlevel.obj
 0002:00006e24       ??_C@_1M@DDOCCGFG@?$AAe?$AAn?$AA?9?$AAC?$AAA@ 0052ee24     libucrt:lcidtoname_downlevel.obj
 0002:00006e30       ??_C@_1M@BNOEMJLF@?$AAe?$AAs?$AA?9?$AAG?$AAT@ 0052ee30     libucrt:lcidtoname_downlevel.obj
 0002:00006e3c       ??_C@_1M@EOGNKEK@?$AAf?$AAr?$AA?9?$AAC?$AAH@ 0052ee3c     libucrt:lcidtoname_downlevel.obj
 0002:00006e48       ??_C@_1M@FLIDJFHL@?$AAh?$AAr?$AA?9?$AAB?$AAA@ 0052ee48     libucrt:lcidtoname_downlevel.obj
 0002:00006e54       ??_C@_1O@FMCELNAJ@?$AAs?$AAm?$AAj?$AA?9?$AAN?$AAO@ 0052ee54     libucrt:lcidtoname_downlevel.obj
 0002:00006e64       ??_C@_1M@JHGLJMGJ@?$AAa?$AAr?$AA?9?$AAD?$AAZ@ 0052ee64     libucrt:lcidtoname_downlevel.obj
 0002:00006e70       ??_C@_1M@JKKFDCNP@?$AAz?$AAh?$AA?9?$AAM?$AAO@ 0052ee70     libucrt:lcidtoname_downlevel.obj
 0002:00006e7c       ??_C@_1M@GEEFALPE@?$AAd?$AAe?$AA?9?$AAL?$AAI@ 0052ee7c     libucrt:lcidtoname_downlevel.obj
 0002:00006e88       ??_C@_1M@IGEOFBG@?$AAe?$AAn?$AA?9?$AAN?$AAZ@ 0052ee88     libucrt:lcidtoname_downlevel.obj
 0002:00006e94       ??_C@_1M@KDBONEHP@?$AAe?$AAs?$AA?9?$AAC?$AAR@ 0052ee94     libucrt:lcidtoname_downlevel.obj
 0002:00006ea0       ??_C@_1M@FHMDOHNN@?$AAf?$AAr?$AA?9?$AAL?$AAU@ 0052eea0     libucrt:lcidtoname_downlevel.obj
 0002:00006eac       ??_C@_1BG@NFKKMAFG@?$AAb?$AAs?$AA?9?$AAB?$AAA?$AA?9?$AAL?$AAa?$AAt?$AAn@ 0052eeac     libucrt:lcidtoname_downlevel.obj
 0002:00006ec4       ??_C@_1O@IMNBEMCI@?$AAs?$AAm?$AAj?$AA?9?$AAS?$AAE@ 0052eec4     libucrt:lcidtoname_downlevel.obj
 0002:00006ed4       ??_C@_1M@DHHMBNDP@?$AAa?$AAr?$AA?9?$AAM?$AAA@ 0052eed4     libucrt:lcidtoname_downlevel.obj
 0002:00006ee0       ??_C@_1M@BNBLJCGH@?$AAe?$AAn?$AA?9?$AAI?$AAE@ 0052eee0     libucrt:lcidtoname_downlevel.obj
 0002:00006eec       ??_C@_1M@GEPAFMDL@?$AAe?$AAs?$AA?9?$AAP?$AAA@ 0052eeec     libucrt:lcidtoname_downlevel.obj
 0002:00006ef8       ??_C@_1M@OJONDMDL@?$AAf?$AAr?$AA?9?$AAM?$AAC@ 0052eef8     libucrt:lcidtoname_downlevel.obj
 0002:00006f04       ??_C@_1BG@OBCNFJB@?$AAs?$AAr?$AA?9?$AAB?$AAA?$AA?9?$AAL?$AAa?$AAt?$AAn@ 0052ef04     libucrt:lcidtoname_downlevel.obj
 0002:00006f1c       ??_C@_1O@KEMEEGPO@?$AAs?$AAm?$AAa?$AA?9?$AAN?$AAO@ 0052ef1c     libucrt:lcidtoname_downlevel.obj
 0002:00006f2c       ??_C@_1M@ELMGFODK@?$AAa?$AAr?$AA?9?$AAT?$AAN@ 0052ef2c     libucrt:lcidtoname_downlevel.obj
 0002:00006f38       ??_C@_1M@BHDLHFAF@?$AAe?$AAn?$AA?9?$AAZ?$AAA@ 0052ef38     libucrt:lcidtoname_downlevel.obj
 0002:00006f44       ??_C@_1M@BMGIGLIF@?$AAe?$AAs?$AA?9?$AAD?$AAO@ 0052ef44     libucrt:lcidtoname_downlevel.obj
 0002:00006f50       ??_C@_1BG@CMBHIPBE@?$AAs?$AAr?$AA?9?$AAB?$AAA?$AA?9?$AAC?$AAy?$AAr?$AAl@ 0052ef50     libucrt:lcidtoname_downlevel.obj
 0002:00006f68       ??_C@_1O@HEDBLHNP@?$AAs?$AAm?$AAa?$AA?9?$AAS?$AAE@ 0052ef68     libucrt:lcidtoname_downlevel.obj
 0002:00006f78       ??_C@_1M@DAGCADIM@?$AAa?$AAr?$AA?9?$AAO?$AAM@ 0052ef78     libucrt:lcidtoname_downlevel.obj
 0002:00006f84       ??_C@_1M@FODLMICG@?$AAe?$AAn?$AA?9?$AAJ?$AAM@ 0052ef84     libucrt:lcidtoname_downlevel.obj
 0002:00006f90       ??_C@_1M@DNMLCIHB@?$AAe?$AAs?$AA?9?$AAV?$AAE@ 0052ef90     libucrt:lcidtoname_downlevel.obj
 0002:00006f9c       ??_C@_1O@EOKHMKJK@?$AAs?$AAm?$AAs?$AA?9?$AAF?$AAI@ 0052ef9c     libucrt:lcidtoname_downlevel.obj
 0002:00006fac       ??_C@_1M@CAFJMKOF@?$AAa?$AAr?$AA?9?$AAY?$AAE@ 0052efac     libucrt:lcidtoname_downlevel.obj
 0002:00006fb8       ??_C@_1M@CBFHIJLI@?$AAe?$AAn?$AA?9?$AAC?$AAB@ 0052efb8     libucrt:lcidtoname_downlevel.obj
 0002:00006fc4       ??_C@_1M@BGNFLDN@?$AAe?$AAs?$AA?9?$AAC?$AAO@ 0052efc4     libucrt:lcidtoname_downlevel.obj
 0002:00006fd0       ??_C@_1O@JMPHMAMC@?$AAs?$AAm?$AAn?$AA?9?$AAF?$AAI@ 0052efd0     libucrt:lcidtoname_downlevel.obj
 0002:00006fe0       ??_C@_1M@JLANABKE@?$AAa?$AAr?$AA?9?$AAS?$AAY@ 0052efe0     libucrt:lcidtoname_downlevel.obj
 0002:00006fec       ??_C@_1M@HPKGCFGN@?$AAe?$AAn?$AA?9?$AAB?$AAZ@ 0052efec     libucrt:lcidtoname_downlevel.obj
 0002:00006ff8       ??_C@_1M@OLJCMLGM@?$AAe?$AAs?$AA?9?$AAP?$AAE@ 0052eff8     libucrt:lcidtoname_downlevel.obj
 0002:00007004       ??_C@_1M@MKKGFKLE@?$AAa?$AAr?$AA?9?$AAJ?$AAO@ 0052f004     libucrt:lcidtoname_downlevel.obj
 0002:00007010       ??_C@_1M@EKPGLDNI@?$AAe?$AAn?$AA?9?$AAT?$AAT@ 0052f010     libucrt:lcidtoname_downlevel.obj
 0002:0000701c       ??_C@_1M@OONGHFHE@?$AAe?$AAs?$AA?9?$AAA?$AAR@ 0052f01c     libucrt:lcidtoname_downlevel.obj
 0002:00007028       ??_C@_1M@OOJFGBHE@?$AAa?$AAr?$AA?9?$AAL?$AAB@ 0052f028     libucrt:lcidtoname_downlevel.obj
 0002:00007034       ??_C@_1M@GCEJHNEG@?$AAe?$AAn?$AA?9?$AAZ?$AAW@ 0052f034     libucrt:lcidtoname_downlevel.obj
 0002:00007040       ??_C@_1M@JNOCAHJI@?$AAe?$AAs?$AA?9?$AAE?$AAC@ 0052f040     libucrt:lcidtoname_downlevel.obj
 0002:0000704c       ??_C@_1M@JEFHPGGB@?$AAa?$AAr?$AA?9?$AAK?$AAW@ 0052f04c     libucrt:lcidtoname_downlevel.obj
 0002:00007058       ??_C@_1M@MLKIBJOJ@?$AAe?$AAn?$AA?9?$AAP?$AAH@ 0052f058     libucrt:lcidtoname_downlevel.obj
 0002:00007064       ??_C@_1M@BDNIPEND@?$AAe?$AAs?$AA?9?$AAC?$AAL@ 0052f064     libucrt:lcidtoname_downlevel.obj
 0002:00007070       ??_C@_1M@MPNMEKBD@?$AAa?$AAr?$AA?9?$AAA?$AAE@ 0052f070     libucrt:lcidtoname_downlevel.obj
 0002:0000707c       ??_C@_1M@KBJALCPI@?$AAe?$AAs?$AA?9?$AAU?$AAY@ 0052f07c     libucrt:lcidtoname_downlevel.obj
 0002:00007088       ??_C@_1M@LLCCOAGA@?$AAa?$AAr?$AA?9?$AAB?$AAH@ 0052f088     libucrt:lcidtoname_downlevel.obj
 0002:00007094       ??_C@_1M@PBFNCDEL@?$AAe?$AAs?$AA?9?$AAP?$AAY@ 0052f094     libucrt:lcidtoname_downlevel.obj
 0002:000070a0       ??_C@_1M@EDGINPNP@?$AAa?$AAr?$AA?9?$AAQ?$AAA@ 0052f0a0     libucrt:lcidtoname_downlevel.obj
 0002:000070ac       ??_C@_1M@MKDBIIJI@?$AAe?$AAs?$AA?9?$AAB?$AAO@ 0052f0ac     libucrt:lcidtoname_downlevel.obj
 0002:000070b8       ??_C@_1M@CPKKEBLD@?$AAe?$AAs?$AA?9?$AAS?$AAV@ 0052f0b8     libucrt:lcidtoname_downlevel.obj
 0002:000070c4       ??_C@_1M@NDBGMMJL@?$AAe?$AAs?$AA?9?$AAH?$AAN@ 0052f0c4     libucrt:lcidtoname_downlevel.obj
 0002:000070d0       ??_C@_1M@JIJIBHDP@?$AAe?$AAs?$AA?9?$AAN?$AAI@ 0052f0d0     libucrt:lcidtoname_downlevel.obj
 0002:000070dc       ??_C@_1M@CGFMKEEK@?$AAe?$AAs?$AA?9?$AAP?$AAR@ 0052f0dc     libucrt:lcidtoname_downlevel.obj
 0002:000070e8       ??_C@_1O@ICJHKIIK@?$AAz?$AAh?$AA?9?$AAC?$AAH?$AAT@ 0052f0e8     libucrt:lcidtoname_downlevel.obj
 0002:000070f8       ??_C@_15CLNEJCE@?$AAs?$AAr@ 0052f0f8     libucrt:lcidtoname_downlevel.obj
 0002:00007820       ??_C@_1M@KAHEKEIG@?$AAa?$AAf?$AA?9?$AAz?$AAa@ 0052f820     libucrt:lcidtoname_downlevel.obj
 0002:0000782c       ??_C@_1M@GIECOABL@?$AAa?$AAr?$AA?9?$AAa?$AAe@ 0052f82c     libucrt:lcidtoname_downlevel.obj
 0002:00007838       ??_C@_1M@BMLMEKGI@?$AAa?$AAr?$AA?9?$AAb?$AAh@ 0052f838     libucrt:lcidtoname_downlevel.obj
 0002:00007844       ??_C@_1M@DAPFDGGB@?$AAa?$AAr?$AA?9?$AAd?$AAz@ 0052f844     libucrt:lcidtoname_downlevel.obj
 0002:00007850       ??_C@_1M@FJNKGKIG@?$AAa?$AAr?$AA?9?$AAe?$AAg@ 0052f850     libucrt:lcidtoname_downlevel.obj
 0002:0000785c       ??_C@_1M@FLGKKCLO@?$AAa?$AAr?$AA?9?$AAi?$AAq@ 0052f85c     libucrt:lcidtoname_downlevel.obj
 0002:00007868       ??_C@_1M@GNDIPALM@?$AAa?$AAr?$AA?9?$AAj?$AAo@ 0052f868     libucrt:lcidtoname_downlevel.obj
 0002:00007874       ??_C@_1M@DDMJFMGJ@?$AAa?$AAr?$AA?9?$AAk?$AAw@ 0052f874     libucrt:lcidtoname_downlevel.obj
 0002:00007880       ??_C@_1M@EJALMLHM@?$AAa?$AAr?$AA?9?$AAl?$AAb@ 0052f880     libucrt:lcidtoname_downlevel.obj
 0002:0000788c       ??_C@_1M@MOBDBLOC@?$AAa?$AAr?$AA?9?$AAl?$AAy@ 0052f88c     libucrt:lcidtoname_downlevel.obj
 0002:00007898       ??_C@_1M@JAOCLHDH@?$AAa?$AAr?$AA?9?$AAm?$AAa@ 0052f898     libucrt:lcidtoname_downlevel.obj
 0002:000078a4       ??_C@_1M@JHPMKJIE@?$AAa?$AAr?$AA?9?$AAo?$AAm@ 0052f8a4     libucrt:lcidtoname_downlevel.obj
 0002:000078b0       ??_C@_1M@OEPGHFNH@?$AAa?$AAr?$AA?9?$AAq?$AAa@ 0052f8b0     libucrt:lcidtoname_downlevel.obj
 0002:000078bc       ??_C@_1M@KJDONENM@?$AAa?$AAr?$AA?9?$AAs?$AAa@ 0052f8bc     libucrt:lcidtoname_downlevel.obj
 0002:000078c8       ??_C@_1M@DMJDKLKM@?$AAa?$AAr?$AA?9?$AAs?$AAy@ 0052f8c8     libucrt:lcidtoname_downlevel.obj
 0002:000078d4       ??_C@_1M@OMFIPEDC@?$AAa?$AAr?$AA?9?$AAt?$AAn@ 0052f8d4     libucrt:lcidtoname_downlevel.obj
 0002:000078e0       ??_C@_1M@IHMHGAON@?$AAa?$AAr?$AA?9?$AAy?$AAe@ 0052f8e0     libucrt:lcidtoname_downlevel.obj
 0002:000078ec       ??_C@_1BG@KDCPGJGB@?$AAa?$AAz?$AA?9?$AAa?$AAz?$AA?9?$AAc?$AAy?$AAr?$AAl@ 0052f8ec     libucrt:lcidtoname_downlevel.obj
 0002:00007904       ??_C@_1BG@IBCKDDOE@?$AAa?$AAz?$AA?9?$AAa?$AAz?$AA?9?$AAl?$AAa?$AAt?$AAn@ 0052f904     libucrt:lcidtoname_downlevel.obj
 0002:0000791c       ??_C@_1M@EGPFDCPD@?$AAb?$AAe?$AA?9?$AAb?$AAy@ 0052f91c     libucrt:lcidtoname_downlevel.obj
 0002:00007928       ??_C@_1M@PCMGMCGC@?$AAb?$AAg?$AA?9?$AAb?$AAg@ 0052f928     libucrt:lcidtoname_downlevel.obj
 0002:00007934       ??_C@_1M@BJBMFGOB@?$AAb?$AAn?$AA?9?$AAi?$AAn@ 0052f934     libucrt:lcidtoname_downlevel.obj
 0002:00007940       ??_C@_1BG@EAKMMACD@?$AAb?$AAs?$AA?9?$AAb?$AAa?$AA?9?$AAl?$AAa?$AAt?$AAn@ 0052f940     libucrt:lcidtoname_downlevel.obj
 0002:00007958       ??_C@_1M@KGADAODK@?$AAc?$AAa?$AA?9?$AAe?$AAs@ 0052f958     libucrt:lcidtoname_downlevel.obj
 0002:00007964       ??_C@_1M@COAJPDHI@?$AAc?$AAs?$AA?9?$AAc?$AAz@ 0052f964     libucrt:lcidtoname_downlevel.obj
 0002:00007970       ??_C@_1M@DHBHFONH@?$AAc?$AAy?$AA?9?$AAg?$AAb@ 0052f970     libucrt:lcidtoname_downlevel.obj
 0002:0000797c       ??_C@_1M@IMGKELGA@?$AAd?$AAa?$AA?9?$AAd?$AAk@ 0052f97c     libucrt:lcidtoname_downlevel.obj
 0002:00007988       ??_C@_1M@NNDGDNGA@?$AAd?$AAe?$AA?9?$AAa?$AAt@ 0052f988     libucrt:lcidtoname_downlevel.obj
 0002:00007994       ??_C@_1M@IKDBHEEM@?$AAd?$AAe?$AA?9?$AAc?$AAh@ 0052f994     libucrt:lcidtoname_downlevel.obj
 0002:000079a0       ??_C@_1M@GFFOJMCJ@?$AAd?$AAe?$AA?9?$AAd?$AAe@ 0052f9a0     libucrt:lcidtoname_downlevel.obj
 0002:000079ac       ??_C@_1M@MDNLKBPM@?$AAd?$AAe?$AA?9?$AAl?$AAi@ 0052f9ac     libucrt:lcidtoname_downlevel.obj
 0002:000079b8       ??_C@_1M@NJBEEJNL@?$AAd?$AAe?$AA?9?$AAl?$AAu@ 0052f9b8     libucrt:lcidtoname_downlevel.obj
 0002:000079c4       ??_C@_1O@GNNELBAP@?$AAd?$AAi?$AAv?$AA?9?$AAm?$AAv@ 0052f9c4     libucrt:lcidtoname_downlevel.obj
 0002:000079d4       ??_C@_1M@EJLEOGAE@?$AAe?$AAl?$AA?9?$AAg?$AAr@ 0052f9d4     libucrt:lcidtoname_downlevel.obj
 0002:000079e0       ??_C@_1M@GMPONJN@?$AAe?$AAn?$AA?9?$AAa?$AAu@ 0052f9e0     libucrt:lcidtoname_downlevel.obj
 0002:000079ec       ??_C@_1M@NIDIIPGF@?$AAe?$AAn?$AA?9?$AAb?$AAz@ 0052f9ec     libucrt:lcidtoname_downlevel.obj
 0002:000079f8       ??_C@_1M@JEHMIMFO@?$AAe?$AAn?$AA?9?$AAc?$AAa@ 0052f9f8     libucrt:lcidtoname_downlevel.obj
 0002:00007a04       ??_C@_1M@IGMJCDLA@?$AAe?$AAn?$AA?9?$AAc?$AAb@ 0052fa04     libucrt:lcidtoname_downlevel.obj
 0002:00007a10       ??_C@_1M@BNFIGBKG@?$AAe?$AAn?$AA?9?$AAg?$AAb@ 0052fa10     libucrt:lcidtoname_downlevel.obj
 0002:00007a1c       ??_C@_1M@LKIFDIGP@?$AAe?$AAn?$AA?9?$AAi?$AAe@ 0052fa1c     libucrt:lcidtoname_downlevel.obj
 0002:00007a28       ??_C@_1M@PJKFGCCO@?$AAe?$AAn?$AA?9?$AAj?$AAm@ 0052fa28     libucrt:lcidtoname_downlevel.obj
 0002:00007a34       ??_C@_1M@KPPKEPBO@?$AAe?$AAn?$AA?9?$AAn?$AAz@ 0052fa34     libucrt:lcidtoname_downlevel.obj
 0002:00007a40       ??_C@_1M@GMDGLDOB@?$AAe?$AAn?$AA?9?$AAp?$AAh@ 0052fa40     libucrt:lcidtoname_downlevel.obj
 0002:00007a4c       ??_C@_1M@ONGIBJNA@?$AAe?$AAn?$AA?9?$AAt?$AAt@ 0052fa4c     libucrt:lcidtoname_downlevel.obj
 0002:00007a58       ??_C@_1M@LLODPCMM@?$AAe?$AAn?$AA?9?$AAu?$AAs@ 0052fa58     libucrt:lcidtoname_downlevel.obj
 0002:00007a64       ??_C@_1M@LAKFNPAN@?$AAe?$AAn?$AA?9?$AAz?$AAa@ 0052fa64     libucrt:lcidtoname_downlevel.obj
 0002:00007a70       ??_C@_1M@MFNHNHEO@?$AAe?$AAn?$AA?9?$AAz?$AAw@ 0052fa70     libucrt:lcidtoname_downlevel.obj
 0002:00007a7c       ??_C@_1M@EJEINPHM@?$AAe?$AAs?$AA?9?$AAa?$AAr@ 0052fa7c     libucrt:lcidtoname_downlevel.obj
 0002:00007a88       ??_C@_1M@GNKPCCJA@?$AAe?$AAs?$AA?9?$AAb?$AAo@ 0052fa88     libucrt:lcidtoname_downlevel.obj
 0002:00007a94       ??_C@_1M@LEEGFONL@?$AAe?$AAs?$AA?9?$AAc?$AAl@ 0052fa94     libucrt:lcidtoname_downlevel.obj
 0002:00007aa0       ??_C@_1M@KGPDPBDF@?$AAe?$AAs?$AA?9?$AAc?$AAo@ 0052faa0     libucrt:lcidtoname_downlevel.obj
 0002:00007aac       ??_C@_1M@EIAHOHH@?$AAe?$AAs?$AA?9?$AAc?$AAr@ 0052faac     libucrt:lcidtoname_downlevel.obj
 0002:00007ab8       ??_C@_1M@LLPGMBIN@?$AAe?$AAs?$AA?9?$AAd?$AAo@ 0052fab8     libucrt:lcidtoname_downlevel.obj
 0002:00007ac4       ??_C@_1M@DKHMKNJA@?$AAe?$AAs?$AA?9?$AAe?$AAc@ 0052fac4     libucrt:lcidtoname_downlevel.obj
 0002:00007ad0       ??_C@_1M@GKGFPKAP@?$AAe?$AAs?$AA?9?$AAe?$AAs@ 0052fad0     libucrt:lcidtoname_downlevel.obj
 0002:00007adc       ??_C@_1M@LKHKGDLN@?$AAe?$AAs?$AA?9?$AAg?$AAt@ 0052fadc     libucrt:lcidtoname_downlevel.obj
 0002:00007ae8       ??_C@_1M@HEIIGGJD@?$AAe?$AAs?$AA?9?$AAh?$AAn@ 0052fae8     libucrt:lcidtoname_downlevel.obj
 0002:00007af4       ??_C@_1M@FBDHPPGD@?$AAe?$AAs?$AA?9?$AAm?$AAx@ 0052faf4     libucrt:lcidtoname_downlevel.obj
 0002:00007b00       ??_C@_1M@DPAGLNDH@?$AAe?$AAs?$AA?9?$AAn?$AAi@ 0052fb00     libucrt:lcidtoname_downlevel.obj
 0002:00007b0c       ??_C@_1M@MDGOPGDD@?$AAe?$AAs?$AA?9?$AAp?$AAa@ 0052fb0c     libucrt:lcidtoname_downlevel.obj
 0002:00007b18       ??_C@_1M@EMAMGBGE@?$AAe?$AAs?$AA?9?$AAp?$AAe@ 0052fb18     libucrt:lcidtoname_downlevel.obj
 0002:00007b24       ??_C@_1M@IBMCAOEC@?$AAe?$AAs?$AA?9?$AAp?$AAr@ 0052fb24     libucrt:lcidtoname_downlevel.obj
 0002:00007b30       ??_C@_1M@FGMDIJED@?$AAe?$AAs?$AA?9?$AAp?$AAy@ 0052fb30     libucrt:lcidtoname_downlevel.obj
 0002:00007b3c       ??_C@_1M@IIDEOLLL@?$AAe?$AAs?$AA?9?$AAs?$AAv@ 0052fb3c     libucrt:lcidtoname_downlevel.obj
 0002:00007b48       ??_C@_1M@GAOBIPA@?$AAe?$AAs?$AA?9?$AAu?$AAy@ 0052fb48     libucrt:lcidtoname_downlevel.obj
 0002:00007b54       ??_C@_1M@JKFFICHJ@?$AAe?$AAs?$AA?9?$AAv?$AAe@ 0052fb54     libucrt:lcidtoname_downlevel.obj
 0002:00007b60       ??_C@_1M@PNMLOJDF@?$AAe?$AAt?$AA?9?$AAe?$AAe@ 0052fb60     libucrt:lcidtoname_downlevel.obj
 0002:00007b6c       ??_C@_1M@GHHLIKEI@?$AAe?$AAu?$AA?9?$AAe?$AAs@ 0052fb6c     libucrt:lcidtoname_downlevel.obj
 0002:00007b78       ??_C@_1M@PBNONODE@?$AAf?$AAa?$AA?9?$AAi?$AAr@ 0052fb78     libucrt:lcidtoname_downlevel.obj
 0002:00007b84       ??_C@_1M@JEEHPMIL@?$AAf?$AAi?$AA?9?$AAf?$AAi@ 0052fb84     libucrt:lcidtoname_downlevel.obj
 0002:00007b90       ??_C@_1M@LMDCNDBA@?$AAf?$AAo?$AA?9?$AAf?$AAo@ 0052fb90     libucrt:lcidtoname_downlevel.obj
 0002:00007b9c       ??_C@_1M@JKEOHLDK@?$AAf?$AAr?$AA?9?$AAb?$AAe@ 0052fb9c     libucrt:lcidtoname_downlevel.obj
 0002:00007ba8       ??_C@_1M@NOHADPMI@?$AAf?$AAr?$AA?9?$AAc?$AAa@ 0052fba8     libucrt:lcidtoname_downlevel.obj
 0002:00007bb4       ??_C@_1M@KDHIHAEC@?$AAf?$AAr?$AA?9?$AAc?$AAh@ 0052fbb4     libucrt:lcidtoname_downlevel.obj
 0002:00007bc0       ??_C@_1M@MMBBFGAK@?$AAf?$AAr?$AA?9?$AAf?$AAr@ 0052fbc0     libucrt:lcidtoname_downlevel.obj
 0002:00007bcc       ??_C@_1M@PAFNENNF@?$AAf?$AAr?$AA?9?$AAl?$AAu@ 0052fbcc     libucrt:lcidtoname_downlevel.obj
 0002:00007bd8       ??_C@_1M@EOHDJGDD@?$AAf?$AAr?$AA?9?$AAm?$AAc@ 0052fbd8     libucrt:lcidtoname_downlevel.obj
 0002:00007be4       ??_C@_1M@FAPLLOPF@?$AAg?$AAl?$AA?9?$AAe?$AAs@ 0052fbe4     libucrt:lcidtoname_downlevel.obj
 0002:00007bf0       ??_C@_1M@FOPBFLOO@?$AAg?$AAu?$AA?9?$AAi?$AAn@ 0052fbf0     libucrt:lcidtoname_downlevel.obj
 0002:00007bfc       ??_C@_1M@KBMCINPM@?$AAh?$AAe?$AA?9?$AAi?$AAl@ 0052fbfc     libucrt:lcidtoname_downlevel.obj
 0002:00007c08       ??_C@_1M@BBPHKFPJ@?$AAh?$AAi?$AA?9?$AAi?$AAn@ 0052fc08     libucrt:lcidtoname_downlevel.obj
 0002:00007c14       ??_C@_1M@PMBNDPHD@?$AAh?$AAr?$AA?9?$AAb?$AAa@ 0052fc14     libucrt:lcidtoname_downlevel.obj
 0002:00007c20       ??_C@_1M@BPCKOEGE@?$AAh?$AAr?$AA?9?$AAh?$AAr@ 0052fc20     libucrt:lcidtoname_downlevel.obj
 0002:00007c2c       ??_C@_1M@GACBMHKE@?$AAh?$AAu?$AA?9?$AAh?$AAu@ 0052fc2c     libucrt:lcidtoname_downlevel.obj
 0002:00007c38       ??_C@_1M@MILPAJJC@?$AAh?$AAy?$AA?9?$AAa?$AAm@ 0052fc38     libucrt:lcidtoname_downlevel.obj
 0002:00007c44       ??_C@_1M@BABBICEC@?$AAi?$AAd?$AA?9?$AAi?$AAd@ 0052fc44     libucrt:lcidtoname_downlevel.obj
 0002:00007c50       ??_C@_1M@BIKNHHPF@?$AAi?$AAs?$AA?9?$AAi?$AAs@ 0052fc50     libucrt:lcidtoname_downlevel.obj
 0002:00007c5c       ??_C@_1M@NMPCJPHE@?$AAi?$AAt?$AA?9?$AAc?$AAh@ 0052fc5c     libucrt:lcidtoname_downlevel.obj
 0002:00007c68       ??_C@_1M@GHKGFEDF@?$AAi?$AAt?$AA?9?$AAi?$AAt@ 0052fc68     libucrt:lcidtoname_downlevel.obj
 0002:00007c74       ??_C@_1M@NIEJCJJA@?$AAj?$AAa?$AA?9?$AAj?$AAp@ 0052fc74     libucrt:lcidtoname_downlevel.obj
 0002:00007c80       ??_C@_1M@JILFNBIM@?$AAk?$AAa?$AA?9?$AAg?$AAe@ 0052fc80     libucrt:lcidtoname_downlevel.obj
 0002:00007c8c       ??_C@_1M@PACPMGPH@?$AAk?$AAk?$AA?9?$AAk?$AAz@ 0052fc8c     libucrt:lcidtoname_downlevel.obj
 0002:00007c98       ??_C@_1M@IELFGMHA@?$AAk?$AAn?$AA?9?$AAi?$AAn@ 0052fc98     libucrt:lcidtoname_downlevel.obj
 0002:00007ca4       ??_C@_1O@IBBJHCH@?$AAk?$AAo?$AAk?$AA?9?$AAi?$AAn@ 0052fca4     libucrt:lcidtoname_downlevel.obj
 0002:00007cb4       ??_C@_1M@DMHAEOGC@?$AAk?$AAo?$AA?9?$AAk?$AAr@ 0052fcb4     libucrt:lcidtoname_downlevel.obj
 0002:00007cc0       ??_C@_1M@HBAHBIGA@?$AAk?$AAy?$AA?9?$AAk?$AAg@ 0052fcc0     libucrt:lcidtoname_downlevel.obj
 0002:00007ccc       ??_C@_1M@KPMILCJG@?$AAl?$AAt?$AA?9?$AAl?$AAt@ 0052fccc     libucrt:lcidtoname_downlevel.obj
 0002:00007cd8       ??_C@_1M@BDEKKCA@?$AAl?$AAv?$AA?9?$AAl?$AAv@ 0052fcd8     libucrt:lcidtoname_downlevel.obj
 0002:00007ce4       ??_C@_1M@ELCKCCJJ@?$AAm?$AAi?$AA?9?$AAn?$AAz@ 0052fce4     libucrt:lcidtoname_downlevel.obj
 0002:00007cf0       ??_C@_1M@CBOOLAPA@?$AAm?$AAk?$AA?9?$AAm?$AAk@ 0052fcf0     libucrt:lcidtoname_downlevel.obj
 0002:00007cfc       ??_C@_1M@GPHNBJKN@?$AAm?$AAl?$AA?9?$AAi?$AAn@ 0052fcfc     libucrt:lcidtoname_downlevel.obj
 0002:00007d08       ??_C@_1M@PABJILIG@?$AAm?$AAn?$AA?9?$AAm?$AAn@ 0052fd08     libucrt:lcidtoname_downlevel.obj
 0002:00007d14       ??_C@_1M@FGBKKIPG@?$AAm?$AAr?$AA?9?$AAi?$AAn@ 0052fd14     libucrt:lcidtoname_downlevel.obj
 0002:00007d20       ??_C@_1M@NDBPDDAL@?$AAm?$AAs?$AA?9?$AAb?$AAn@ 0052fd20     libucrt:lcidtoname_downlevel.obj
 0002:00007d2c       ??_C@_1M@OPIHOOPI@?$AAm?$AAs?$AA?9?$AAm?$AAy@ 0052fd2c     libucrt:lcidtoname_downlevel.obj
 0002:00007d38       ??_C@_1M@PPDBCNFM@?$AAm?$AAt?$AA?9?$AAm?$AAt@ 0052fd38     libucrt:lcidtoname_downlevel.obj
 0002:00007d44       ??_C@_1M@KDJDKMDD@?$AAn?$AAb?$AA?9?$AAn?$AAo@ 0052fd44     libucrt:lcidtoname_downlevel.obj
 0002:00007d50       ??_C@_1M@KFCFLMJP@?$AAn?$AAl?$AA?9?$AAb?$AAe@ 0052fd50     libucrt:lcidtoname_downlevel.obj
 0002:00007d5c       ??_C@_1M@KPOPDDGO@?$AAn?$AAl?$AA?9?$AAn?$AAl@ 0052fd5c     libucrt:lcidtoname_downlevel.obj
 0002:00007d68       ??_C@_1M@LJKPEMLN@?$AAn?$AAn?$AA?9?$AAn?$AAo@ 0052fd68     libucrt:lcidtoname_downlevel.obj
 0002:00007d74       ??_C@_1M@BDGHHBFL@?$AAn?$AAs?$AA?9?$AAz?$AAa@ 0052fd74     libucrt:lcidtoname_downlevel.obj
 0002:00007d80       ??_C@_1M@IDEHOAP@?$AAp?$AAa?$AA?9?$AAi?$AAn@ 0052fd80     libucrt:lcidtoname_downlevel.obj
 0002:00007d8c       ??_C@_1M@HDBKGOGH@?$AAp?$AAl?$AA?9?$AAp?$AAl@ 0052fd8c     libucrt:lcidtoname_downlevel.obj
 0002:00007d98       ??_C@_1M@LJLLCMEH@?$AAp?$AAt?$AA?9?$AAb?$AAr@ 0052fd98     libucrt:lcidtoname_downlevel.obj
 0002:00007da4       ??_C@_1M@NCMONAAL@?$AAp?$AAt?$AA?9?$AAp?$AAt@ 0052fda4     libucrt:lcidtoname_downlevel.obj
 0002:00007db0       ??_C@_1O@EAKMAJDN@?$AAq?$AAu?$AAz?$AA?9?$AAb?$AAo@ 0052fdb0     libucrt:lcidtoname_downlevel.obj
 0002:00007dc0       ??_C@_1O@BHHPIGDN@?$AAq?$AAu?$AAz?$AA?9?$AAe?$AAc@ 0052fdc0     libucrt:lcidtoname_downlevel.obj
 0002:00007dd0       ??_C@_1O@GBAPEKMJ@?$AAq?$AAu?$AAz?$AA?9?$AAp?$AAe@ 0052fdd0     libucrt:lcidtoname_downlevel.obj
 0002:00007de0       ??_C@_1M@CLGLEFBO@?$AAr?$AAo?$AA?9?$AAr?$AAo@ 0052fde0     libucrt:lcidtoname_downlevel.obj
 0002:00007dec       ??_C@_1M@CEEDODME@?$AAr?$AAu?$AA?9?$AAr?$AAu@ 0052fdec     libucrt:lcidtoname_downlevel.obj
 0002:00007df8       ??_C@_1M@HPKKKMPP@?$AAs?$AAa?$AA?9?$AAi?$AAn@ 0052fdf8     libucrt:lcidtoname_downlevel.obj
 0002:00007e04       ??_C@_1M@BKMAIGOJ@?$AAs?$AAe?$AA?9?$AAf?$AAi@ 0052fe04     libucrt:lcidtoname_downlevel.obj
 0002:00007e10       ??_C@_1M@NDPIFLFI@?$AAs?$AAe?$AA?9?$AAn?$AAo@ 0052fe10     libucrt:lcidtoname_downlevel.obj
 0002:00007e1c       ??_C@_1M@DANKKHJ@?$AAs?$AAe?$AA?9?$AAs?$AAe@ 0052fe1c     libucrt:lcidtoname_downlevel.obj
 0002:00007e28       ??_C@_1M@PNBLONPJ@?$AAs?$AAk?$AA?9?$AAs?$AAk@ 0052fe28     libucrt:lcidtoname_downlevel.obj
 0002:00007e34       ??_C@_1M@LFMODOAL@?$AAs?$AAl?$AA?9?$AAs?$AAi@ 0052fe34     libucrt:lcidtoname_downlevel.obj
 0002:00007e40       ??_C@_1O@DFKOMPG@?$AAs?$AAm?$AAa?$AA?9?$AAn?$AAo@ 0052fe40     libucrt:lcidtoname_downlevel.obj
 0002:00007e50       ??_C@_1O@NDKPBNNH@?$AAs?$AAm?$AAa?$AA?9?$AAs?$AAe@ 0052fe50     libucrt:lcidtoname_downlevel.obj
 0002:00007e60       ??_C@_1O@PLLKBHAB@?$AAs?$AAm?$AAj?$AA?9?$AAn?$AAo@ 0052fe60     libucrt:lcidtoname_downlevel.obj
 0002:00007e70       ??_C@_1O@CLEPOGCA@?$AAs?$AAm?$AAj?$AA?9?$AAs?$AAe@ 0052fe70     libucrt:lcidtoname_downlevel.obj
 0002:00007e80       ??_C@_1O@DLGJGKMK@?$AAs?$AAm?$AAn?$AA?9?$AAf?$AAi@ 0052fe80     libucrt:lcidtoname_downlevel.obj
 0002:00007e90       ??_C@_1O@OJDJGAJC@?$AAs?$AAm?$AAs?$AA?9?$AAf?$AAi@ 0052fe90     libucrt:lcidtoname_downlevel.obj
 0002:00007ea0       ??_C@_1M@BOFOGHPB@?$AAs?$AAq?$AA?9?$AAa?$AAl@ 0052fea0     libucrt:lcidtoname_downlevel.obj
 0002:00007eac       ??_C@_1BG@LJBBIPGB@?$AAs?$AAr?$AA?9?$AAb?$AAa?$AA?9?$AAc?$AAy?$AAr?$AAl@ 0052feac     libucrt:lcidtoname_downlevel.obj
 0002:00007ec4       ??_C@_1BG@JLBENFOE@?$AAs?$AAr?$AA?9?$AAb?$AAa?$AA?9?$AAl?$AAa?$AAt?$AAn@ 0052fec4     libucrt:lcidtoname_downlevel.obj
 0002:00007edc       ??_C@_1BG@KODPNHE@?$AAs?$AAr?$AA?9?$AAs?$AAp?$AA?9?$AAc?$AAy?$AAr?$AAl@ 0052fedc     libucrt:lcidtoname_downlevel.obj
 0002:00007ef4       ??_C@_1BG@CIOGKHPB@?$AAs?$AAr?$AA?9?$AAs?$AAp?$AA?9?$AAl?$AAa?$AAt?$AAn@ 0052fef4     libucrt:lcidtoname_downlevel.obj
 0002:00007f0c       ??_C@_1M@NGFJLMAC@?$AAs?$AAv?$AA?9?$AAf?$AAi@ 0052ff0c     libucrt:lcidtoname_downlevel.obj
 0002:00007f18       ??_C@_1M@MPJEJAJC@?$AAs?$AAv?$AA?9?$AAs?$AAe@ 0052ff18     libucrt:lcidtoname_downlevel.obj
 0002:00007f24       ??_C@_1M@MPNDHLFK@?$AAs?$AAw?$AA?9?$AAk?$AAe@ 0052ff24     libucrt:lcidtoname_downlevel.obj
 0002:00007f30       ??_C@_1O@KOHBJJI@?$AAs?$AAy?$AAr?$AA?9?$AAs?$AAy@ 0052ff30     libucrt:lcidtoname_downlevel.obj
 0002:00007f40       ??_C@_1M@LDCEFHA@?$AAt?$AAa?$AA?9?$AAi?$AAn@ 0052ff40     libucrt:lcidtoname_downlevel.obj
 0002:00007f4c       ??_C@_1M@CNJOFAK@?$AAt?$AAe?$AA?9?$AAi?$AAn@ 0052ff4c     libucrt:lcidtoname_downlevel.obj
 0002:00007f58       ??_C@_1M@GNAECACD@?$AAt?$AAh?$AA?9?$AAt?$AAh@ 0052ff58     libucrt:lcidtoname_downlevel.obj
 0002:00007f64       ??_C@_1M@CHBIHOJO@?$AAt?$AAn?$AA?9?$AAz?$AAa@ 0052ff64     libucrt:lcidtoname_downlevel.obj
 0002:00007f70       ??_C@_1M@GCCMIGPJ@?$AAt?$AAr?$AA?9?$AAt?$AAr@ 0052ff70     libucrt:lcidtoname_downlevel.obj
 0002:00007f7c       ??_C@_1M@CELMCNBK@?$AAt?$AAt?$AA?9?$AAr?$AAu@ 0052ff7c     libucrt:lcidtoname_downlevel.obj
 0002:00007f88       ??_C@_1M@KLMCELGA@?$AAu?$AAk?$AA?9?$AAu?$AAa@ 0052ff88     libucrt:lcidtoname_downlevel.obj
 0002:00007f94       ??_C@_1M@EPAJJAJF@?$AAu?$AAr?$AA?9?$AAp?$AAk@ 0052ff94     libucrt:lcidtoname_downlevel.obj
 0002:00007fa0       ??_C@_1BG@GEGPMCDJ@?$AAu?$AAz?$AA?9?$AAu?$AAz?$AA?9?$AAc?$AAy?$AAr?$AAl@ 0052ffa0     libucrt:lcidtoname_downlevel.obj
 0002:00007fb8       ??_C@_1BG@EGGKJILM@?$AAu?$AAz?$AA?9?$AAu?$AAz?$AA?9?$AAl?$AAa?$AAt?$AAn@ 0052ffb8     libucrt:lcidtoname_downlevel.obj
 0002:00007fd0       ??_C@_1M@GFOCLFF@?$AAv?$AAi?$AA?9?$AAv?$AAn@ 0052ffd0     libucrt:lcidtoname_downlevel.obj
 0002:00007fdc       ??_C@_1M@CPAMEDFI@?$AAx?$AAh?$AA?9?$AAz?$AAa@ 0052ffdc     libucrt:lcidtoname_downlevel.obj
 0002:00007fe8       ??_C@_1O@EBKIFIGN@?$AAz?$AAh?$AA?9?$AAc?$AAh?$AAs@ 0052ffe8     libucrt:lcidtoname_downlevel.obj
 0002:00007ff8       ??_C@_1O@NMHPGANE@?$AAz?$AAh?$AA?9?$AAc?$AAh?$AAt@ 0052fff8     libucrt:lcidtoname_downlevel.obj
 0002:00008008       ??_C@_1M@LPINJOMC@?$AAz?$AAh?$AA?9?$AAc?$AAn@ 00530008     libucrt:lcidtoname_downlevel.obj
 0002:00008014       ??_C@_1M@OCJEJODD@?$AAz?$AAh?$AA?9?$AAh?$AAk@ 00530014     libucrt:lcidtoname_downlevel.obj
 0002:00008020       ??_C@_1M@DNDLJINH@?$AAz?$AAh?$AA?9?$AAm?$AAo@ 00530020     libucrt:lcidtoname_downlevel.obj
 0002:0000802c       ??_C@_1M@MBFDNDND@?$AAz?$AAh?$AA?9?$AAs?$AAg@ 0053002c     libucrt:lcidtoname_downlevel.obj
 0002:00008038       ??_C@_1M@IMEPLEPE@?$AAz?$AAh?$AA?9?$AAt?$AAw@ 00530038     libucrt:lcidtoname_downlevel.obj
 0002:00008044       ??_C@_1M@BBGHNHJP@?$AAz?$AAu?$AA?9?$AAz?$AAa@ 00530044     libucrt:lcidtoname_downlevel.obj
 0002:000080a8       ??_C@_1BA@BALFACEM@?$AAC?$AAO?$AAN?$AAO?$AAU?$AAT?$AA$@ 005300a8     libucrt:initcon.obj
 0002:000081c0       __infinity                 005301c0     libucrt:87tran.obj
 0002:000081ca       __minfinity                005301ca     libucrt:87tran.obj
 0002:000081d4       __logemax                  005301d4     libucrt:87tran.obj
 0002:000081fa       __OP_EXPjmptab             005301fa     libucrt:87tran.obj
 0002:00008220       __indefinite               00530220     libucrt:87disp.obj
 0002:0000822a       __piby2                    0053022a     libucrt:87disp.obj
 0002:00008234       __piby4                    00530234     libucrt:87disp.obj
 0002:00008268       __DEFAULT_CW_in_mem        00530268     libucrt:common.obj
 0002:0000826a       __pi_by_2_to_61            0053026a     libucrt:common.obj
 0002:000082b0       ___acrt_log10_table_t      005302b0     libucrt:log10_tables.obj
 0002:000086c0       ___acrt_log10_table_cb     005306c0     libucrt:log10_tables.obj
 0002:00008ad0       ??_C@_0M@HFFOIJBL@Fatal?5Error?$AA@ 00530ad0     SDL2main:SDL_windows_main.obj
 0002:00008adc       ??_C@_0BJ@HFNMHALN@Out?5of?5memory?5?9?5aborting?$AA@ 00530adc     SDL2main:SDL_windows_main.obj
 0002:00008af8       ??_C@_05EGJIMALK@UTF?98?$AA@ 00530af8     SDL2main:SDL_windows_main.obj
 0002:00008b00       ??_C@_08NBDJLNFA@UTF?916LE?$AA@ 00530b00     SDL2main:SDL_windows_main.obj
 0002:00008b20       __xmm@00000000000000000000000000000000 00530b20     libvcruntime:wcschr.obj
 0002:00008b30       ??_C@_07BDHOJDLA@showmip@  00530b30     rendercubes.obj
 0002:00008b38       ??_C@_0BF@KPAJLCFO@showfocuscubedetails@ 00530b38     rendercubes.obj
 0002:00008b50       ??_C@_05CEBIDAFG@SOLID@    00530b50     rendercubes.obj
 0002:00008b58       ??_C@_06COLKDEIE@CORNER@   00530b58     rendercubes.obj
 0002:00008b60       ??_C@_03LIGOBDPJ@FHF@      00530b60     rendercubes.obj
 0002:00008b64       ??_C@_03IPLAODML@CHF@      00530b64     rendercubes.obj
 0002:00008b68       ??_C@_05CAEOFMEP@SPACE@    00530b68     rendercubes.obj
 0002:00008b70       ??_C@_07CIFAGBMG@unknown@  00530b70     rendercubes.obj
 0002:00008b78       ??_C@_0CD@GLEENJOM@1x1?12x2?14x4?18x8?3?5?$CFd?5?1?5?$CFd?5?1?5?$CFd?5?1@ 00530b78     rendercubes.obj
 0002:00008b9c       ??_C@_02LCIOCMHO@?$AM4@    00530b9c     rendercubes.obj
 0002:00008ba0       ??_C@_0EG@HBADJACE@?$CFs?3?5?$AMs?$CFs?$CFd?4?4?$CFd?$AMr?5W?3?$CFd?5?$AMs?$CFsU?3?$CFd?5@ 00530ba0     rendercubes.obj
 0002:00008be8       ??_C@_0M@JJANLFDJ@mergestrips@ 00530be8     rendercubes.obj
 0002:00008bf4       ??_C@_0L@IEPABEDF@lighterror@ 00530bf4     rendercubes.obj
 0002:00008bff       ??_C@_00CNPNBAHC@@         00530bff     rendercubes.obj
 0002:00008c00       ??_C@_01LKDEMHDF@s@        00530c00     rendergl.obj
 0002:00008c04       ??_C@_05BKEHHJNJ@glext@    00530c04     rendergl.obj
 0002:00008c0c       ??_C@_0M@FNGKKILB@ati_mda_bug@ 00530c0c     rendergl.obj
 0002:00008c18       ??_C@_0BC@HJILAOAN@Renderer?3?5?$CFs?5?$CI?$CFs?$CJ@ 00530c18     rendergl.obj
 0002:00008c2c       ??_C@_0L@HEPJLAJM@Driver?3?5?$CFs@ 00530c2c     rendergl.obj
 0002:00008c38       ??_C@_0BL@JFMOHFPL@GL_EXT_texture_env_combine@ 00530c38     rendergl.obj
 0002:00008c54       ??_C@_0BL@MKOBGLKK@GL_ARB_texture_env_combine@ 00530c54     rendergl.obj
 0002:00008c70       ??_C@_0ED@FLKBBHPF@WARNING?3?5cannot?5use?5overbright?5@ 00530c70     rendergl.obj
 0002:00008cb4       ??_C@_0BE@MEMOPMEA@GL_ARB_multitexture@ 00530cb4     rendergl.obj
 0002:00008cc8       ??_C@_0BD@IKCKKKNH@glActiveTextureARB@ 00530cc8     rendergl.obj
 0002:00008cdc       ??_C@_0BJ@PBJNGLJH@glClientActiveTextureARB@ 00530cdc     rendergl.obj
 0002:00008cf8       ??_C@_0BF@GFGCIEPA@glMultiTexCoord2fARB@ 00530cf8     rendergl.obj
 0002:00008d10       ??_C@_0BF@KODOFHFF@glMultiTexCoord3fARB@ 00530d10     rendergl.obj
 0002:00008d28       ??_C@_0BJ@BEDGNCEH@GL_EXT_multi_draw_arrays@ 00530d28     rendergl.obj
 0002:00008d44       ??_C@_0BF@MOHHALAE@glMultiDrawArraysEXT@ 00530d44     rendergl.obj
 0002:00008d5c       ??_C@_0BH@CPIJKLBJ@glMultiDrawElementsEXT@ 00530d5c     rendergl.obj
 0002:00008d74       ??_C@_03LHBNGNJL@ATI@      00530d74     rendergl.obj
 0002:00008d78       ??_C@_04LPBHBPME@Mesa@     00530d78     rendergl.obj
 0002:00008d80       ??_C@_0BL@BBECEKLJ@GL_EXT_draw_range_elements@ 00530d80     rendergl.obj
 0002:00008d9c       ??_C@_0BH@GFFILNEF@glDrawRangeElementsEXT@ 00530d9c     rendergl.obj
 0002:00008db4       ??_C@_0BI@CPMDBHLG@GL_EXT_stencil_two_side@ 00530db4     rendergl.obj
 0002:00008dcc       ??_C@_0BH@FDKCPLFK@glActiveStencilFaceEXT@ 00530dcc     rendergl.obj
 0002:00008de4       ??_C@_0BI@MNCDOEAG@GL_ATI_separate_stencil@ 00530de4     rendergl.obj
 0002:00008dfc       ??_C@_0BH@GHDNCHPJ@glStencilOpSeparateATI@ 00530dfc     rendergl.obj
 0002:00008e14       ??_C@_0BJ@JMKOAJAB@glStencilFuncSeparateATI@ 00530e14     rendergl.obj
 0002:00008e30       ??_C@_0BE@LFGLIENC@GL_EXT_stencil_wrap@ 00530e30     rendergl.obj
 0002:00008e44       ??_C@_0CC@BCHFGKCK@GL_EXT_texture_filter_anisotrop@ 00530e44     rendergl.obj
 0002:00008e68       ??_C@_0BI@LELAEDDA@GL_ARB_fragment_program@ 00530e68     rendergl.obj
 0002:00008e80       ??_C@_0M@OCJAPGFL@S3?5Graphics@ 00530e80     rendergl.obj
 0002:00008e8c       ??_C@_0BE@EGBNBGJE@polygonoffsetfactor@ 00530e8c     rendergl.obj
 0002:00008ea0       ??_C@_0BD@EEHLKHGC@polygonoffsetunits@ 00530ea0     rendergl.obj
 0002:00008eb4       ??_C@_0M@BPBBBADP@depthoffset@ 00530eb4     rendergl.obj
 0002:00008ec0       ??_C@_0M@IPIJGGJC@oldselstyle@ 00530ec0     rendergl.obj
 0002:00008ecc       ??_C@_0BC@FJJEOBMH@aboveheadiconsize@ 00530ecc     rendergl.obj
 0002:00008ee0       ??_C@_0BG@FEIKAIGJ@aboveheadiconfadetime@ 00530ee0     rendergl.obj
 0002:00008ef8       ??_C@_0BG@IDEFBMJN@packages?1misc?1com?4png@ 00530ef8     rendergl.obj
 0002:00008f10       ??_C@_03PKBINKFB@fov@      00530f10     rendergl.obj
 0002:00008f14       ??_C@_08INBBIAFL@scopefov@ 00530f14     rendergl.obj
 0002:00008f20       ??_C@_08DJHCHNK@spectfov@  00530f20     rendergl.obj
 0002:00008f2c       ??_C@_0P@IIMOPPDF@spectfovremote@ 00530f2c     rendergl.obj
 0002:00008f3c       ??_C@_03KJMBPJEB@fog@      00530f3c     rendergl.obj
 0002:00008f40       ??_C@_09KKDACDEI@fogcolour@ 00530f40     rendergl.obj
 0002:00008f4c       ??_C@_0M@CAPNIE@reflectsize@ 00530f4c     rendergl.obj
 0002:00008f58       ??_C@_0M@HOMLGBAJ@reflectclip@ 00530f58     rendergl.obj
 0002:00008f64       ??_C@_0N@JLDFKLMO@waterreflect@ 00530f64     rendergl.obj
 0002:00008f74       ??_C@_0N@MLIHBFHK@waterrefract@ 00530f74     rendergl.obj
 0002:00008f84       ??_C@_0P@JFNKNJCG@reflectscissor@ 00530f84     rendergl.obj
 0002:00008f94       ??_C@_09DPIJMJAL@T?5?$CK?5P?5x?52@ 00530f94     rendergl.obj
 0002:00008fa0       ??_C@_0N@PDGDKAHG@clearminimap@ 00530fa0     rendergl.obj
 0002:00008fb0       ??_C@_0L@CCOMABMM@minimapres@ 00530fb0     rendergl.obj
 0002:00008fbc       ??_C@_05EAPDINDK@iiiii@    00530fbc     rendergl.obj
 0002:00008fc4       ??_C@_08EHAOLBMP@drawzone@ 00530fc4     rendergl.obj
 0002:00008fd0       ??_C@_0L@GMNGKCBH@resetzones@ 00530fd0     rendergl.obj
 0002:00008fdc       ??_C@_06OCCCEMNE@hudgun@   00530fdc     rendergl.obj
 0002:00008fe4       ??_C@_0M@NDFHLJAN@specthudgun@ 00530fe4     rendergl.obj
 0002:00008ff0       ??_C@_0BO@DKBELIEO@ignoreoverride_nowaterreflect@ 00530ff0     rendergl.obj
 0002:00009010       ??_C@_0CA@PMKKFJHJ@ignoreoverride_nostencilshadows@ 00531010     rendergl.obj
 0002:00009034       ??_7physent@@6B@           00531034     rendergl.obj
 0002:00009040       ??_C@_0BI@DEADENOC@packages?1misc?1items?4png@ 00531040     renderhud.obj
 0002:00009058       ??_C@_0N@PDCILHDA@radarentsize@ 00531058     renderhud.obj
 0002:00009068       ??_C@_0BN@KDAHALHJ@packages?1misc?1radaricons?4png@ 00531068     renderhud.obj
 0002:00009088       ??_C@_0BL@ELJJDDGP@packages?1misc?1ctficons?4png@ 00531088     renderhud.obj
 0002:000090a4       ??_C@_0BL@KMFAIMMM@packages?1misc?1htficons?4png@ 005310a4     renderhud.obj
 0002:000090c0       ??_C@_0BL@BBJKOAAC@packages?1misc?1ktficons?4png@ 005310c0     renderhud.obj
 0002:000090dc       ??_C@_09FLBLPGFK@votealpha@ 005310dc     renderhud.obj
 0002:000090e8       ??_C@_0BM@BPINFNKL@packages?1misc?1voteicons?4png@ 005310e8     renderhud.obj
 0002:00009104       ??_C@_0O@DOKGGKIC@crosshairsize@ 00531104     renderhud.obj
 0002:00009114       ??_C@_09JDCAJFKD@showstats@ 00531114     renderhud.obj
 0002:00009120       ??_C@_0M@DDOMLNPO@crosshairfx@ 00531120     renderhud.obj
 0002:0000912c       ??_C@_0BC@MPNCLNEH@crosshairteamsign@ 0053112c     renderhud.obj
 0002:00009140       ??_C@_0BE@HDFMHMAH@headshotcrosshairfx@ 00531140     renderhud.obj
 0002:00009154       ??_C@_09KBEKABPB@hideradar@ 00531154     renderhud.obj
 0002:00009160       ??_C@_0M@PAAIOAHP@hidecompass@ 00531160     renderhud.obj
 0002:0000916c       ??_C@_08IPMFHAKB@hideteam@ 0053116c     renderhud.obj
 0002:00009178       ??_C@_0BB@KIKJHEDK@hideteamscorehud@ 00531178     renderhud.obj
 0002:0000918c       ??_C@_0BJ@CIIFNLOA@flagscorehudtransparency@ 0053118c     renderhud.obj
 0002:000091a8       ??_C@_0BC@PKCEIHOB@hideeditinfopanel@ 005311a8     renderhud.obj
 0002:000091bc       ??_C@_08EIIMCIDG@hidevote@ 005311bc     renderhud.obj
 0002:000091c8       ??_C@_0M@DAIMKJOK@hidehudmsgs@ 005311c8     renderhud.obj
 0002:000091d4       ??_C@_0BB@MKBNCDJG@hidehudequipment@ 005311d4     renderhud.obj
 0002:000091e8       ??_C@_0M@NKABMOKI@hideconsole@ 005311e8     renderhud.obj
 0002:000091f4       ??_C@_0N@FFLICBJE@hidespecthud@ 005311f4     renderhud.obj
 0002:00009204       ??_C@_07BNGNMCAI@showmap@  00531204     renderhud.obj
 0002:0000920c       ??_C@_0BE@CIONAJJO@editinfopanelmillis@ 0053120c     renderhud.obj
 0002:00009220       ??_C@_0BI@IOGIHDDL@packages?1misc?1scope?4png@ 00531220     renderhud.obj
 0002:00009238       ??_C@_0BH@BJHMLCAP@packages?1crosshairs?1?$CFs@ 00531238     renderhud.obj
 0002:00009250       ??_C@_0CA@HLDBDPMB@packages?1crosshairs?1default?4png@ 00531250     renderhud.obj
 0002:00009270       ??_C@_05CFMALAOA@reset@    00531270     renderhud.obj
 0002:00009278       ??_C@_0M@FMDCGJEM@default?4png@ 00531278     renderhud.obj
 0002:00009284       ??_C@_0N@DDMPEPL@teammate?4png@ 00531284     renderhud.obj
 0002:00009294       ??_C@_0M@NMOIMBAF@red_dot?4png@ 00531294     renderhud.obj
 0002:000092a0       ??_C@_07DLHCIBDH@default@  005312a0     renderhud.obj
 0002:000092a8       ??_C@_08BMFDPAHG@teammate@ 005312a8     renderhud.obj
 0002:000092b4       ??_C@_05DCCHDMEJ@scope@    005312b4     renderhud.obj
 0002:000092bc       ??_C@_05BIPCPIBA@knife@    005312bc     renderhud.obj
 0002:000092c4       ??_C@_06HBOMKLFK@pistol@   005312c4     renderhud.obj
 0002:000092cc       ??_C@_07FAINIJDJ@carbine@  005312cc     renderhud.obj
 0002:000092d4       ??_C@_07PKBOGMMP@shotgun@  005312d4     renderhud.obj
 0002:000092dc       ??_C@_03MNICIKIC@smg@      005312dc     renderhud.obj
 0002:000092e0       ??_C@_06CBOFCDAC@sniper@   005312e0     renderhud.obj
 0002:000092e8       ??_C@_02FEKCJMIO@ar@       005312e8     renderhud.obj
 0002:000092ec       ??_C@_08HOOJIBOO@grenades@ 005312ec     renderhud.obj
 0002:000092f8       ??_C@_06NJDJMKIN@akimbo@   005312f8     renderhud.obj
 0002:00009300       ??_C@_02FCBLNKNB@ss@       00531300     renderhud.obj
 0002:00009304       ??_C@_0O@DPLKEGFF@loadcrosshair@ 00531304     renderhud.obj
 0002:00009314       ??_C@_0BD@OELKAHCN@testheadshoteffect@ 00531314     renderhud.obj
 0002:00009328       ??_C@_0BG@CFNPOIJN@testnonlethalheadshot@ 00531328     renderhud.obj
 0002:00009340       ??_C@_0P@PDHPDCIC@testkilleffect@ 00531340     renderhud.obj
 0002:00009350       ??_C@_0BE@HMJNKMOH@hidedamageindicator@ 00531350     renderhud.obj
 0002:00009364       ??_C@_0BE@HFKKFMLJ@damageindicatorsize@ 00531364     renderhud.obj
 0002:00009378       ??_C@_0BE@PLGCAPLE@damageindicatordist@ 00531378     renderhud.obj
 0002:0000938c       ??_C@_0BE@NOODDFFM@damageindicatortime@ 0053138c     renderhud.obj
 0002:000093a0       ??_C@_0BF@CPLFKEEF@damageindicatoralpha@ 005313a0     renderhud.obj
 0002:000093b8       ??_C@_0BB@JCMFIGBC@hidektfindicator@ 005313b8     renderhud.obj
 0002:000093cc       ??_C@_0BC@BBDILAMN@ktfindicatoralpha@ 005313cc     renderhud.obj
 0002:000093e0       ??_C@_02DKCKIIND@?$CFs@    005313e0     renderhud.obj
 0002:000093e4       ??_C@_0BA@NDPEDGDH@showmapbackdrop@ 005313e4     renderhud.obj
 0002:000093f4       ??_C@_0BM@EIBJDBFJ@showmapbackdroptransparency@ 005313f4     renderhud.obj
 0002:00009410       ??_C@_0M@HPEEKIIE@radarheight@ 00531410     renderhud.obj
 0002:0000941c       ??_C@_0BP@LLLFPIDH@packages?1misc?1compass?9base?4png@ 0053141c     renderhud.obj
 0002:0000943c       ??_C@_0BP@CPPKIHE@packages?1misc?1compass?9rose?4png@ 0053143c     renderhud.obj
 0002:0000945c       ??_C@_0BM@OKMEIEIJ@packages?1misc?1teamicons?4png@ 0053145c     renderhud.obj
 0002:00009478       ??_C@_0N@OBDCJDCP@damagescreen@ 00531478     renderhud.obj
 0002:00009488       ??_C@_0BD@NNNNGIIB@damagescreenfactor@ 00531488     renderhud.obj
 0002:0000949c       ??_C@_0BC@ECJJCDJN@damagescreenalpha@ 0053149c     renderhud.obj
 0002:000094b0       ??_C@_0BB@PPMFNBML@damagescreenfade@ 005314b0     renderhud.obj
 0002:000094c4       ??_C@_0P@LIPGDGAK@getEngineState@ 005314c4     renderhud.obj
 0002:000094d4       ??_C@_0BA@MCAJIDLF@gametimedisplay@ 005314d4     renderhud.obj
 0002:000094e4       ??_C@_06FPOCELMP@dbgpos@   005314e4     renderhud.obj
 0002:000094ec       ??_C@_0P@DJFNAEEC@showtargetname@ 005314ec     renderhud.obj
 0002:000094fc       ??_C@_09PBKFOJOF@showspeed@ 005314fc     renderhud.obj
 0002:00009508       ??_C@_0M@LKPCHLOI@blankouthud@ 00531508     renderhud.obj
 0002:00009514       ??_C@_0O@KIPHNDD@overviewflags@ 00531514     renderhud.obj
 0002:00009524       ??_C@_04CGFJFPFD@none@     00531524     renderhud.obj
 0002:0000952c       ??_C@_08CEJHENDM@deathcam@ 0053152c     renderhud.obj
 0002:00009538       ??_C@_09MMFECFAH@chase?51st@ 00531538     renderhud.obj
 0002:00009544       ??_C@_0O@KBMOOKGI@chase?53rd?5?$FLO?$FN@ 00531544     renderhud.obj
 0002:00009554       ??_C@_0O@KLFAMHGC@chase?53rd?5?$FLA?$FN@ 00531554     renderhud.obj
 0002:00009564       ??_C@_03HPMGHIMH@fly@      00531564     renderhud.obj
 0002:00009568       ??_C@_08HBKJLJKH@overview@ 00531568     renderhud.obj
 0002:00009574       ??_C@_0BJ@EMNCOFHO@packages?1misc?1damage?4png@ 00531574     renderhud.obj
 0002:00009590       ??_C@_0L@EAGGLJLC@?$CFs?5?$FLcn?3?$CFd?$FN@ 00531590     renderhud.obj
 0002:0000959c       ??_C@_0P@GNCPONOH@?$CFd?5?$CFd?5?$CFd?5?$CFd?5?$CFd@ 0053159c     renderhud.obj
 0002:000095ac       ??_C@_0BA@GMCCLNNO@wallclockformat@ 005315ac     renderhud.obj
 0002:000095bc       ??_C@_03JABFMKFJ@fps@      005315bc     renderhud.obj
 0002:000095c0       ??_C@_03ONFBEKOG@lod@      005315c0     renderhud.obj
 0002:000095c4       ??_C@_03HMPBBEAC@wqd@      005315c4     renderhud.obj
 0002:000095c8       ??_C@_03DDHMBANG@wvt@      005315c8     renderhud.obj
 0002:000095cc       ??_C@_03MJGMIPMC@evt@      005315cc     renderhud.obj
 0002:000095d0       ??_C@_05CGFKEMBG@?$AM?$CFc?$CFd@ 005315d0     renderhud.obj
 0002:000095d8       ??_C@_01HJOKEEBB@U@        005315d8     renderhud.obj
 0002:000095dc       ??_C@_04JLBGMNAJ@mono@     005315dc     renderhud.obj
 0002:000095e4       ??_C@_0L@JBCNABDD@?$CF05?42f?5YAW@ 005315e4     renderhud.obj
 0002:000095f0       ??_C@_0L@MJBLEMMC@?$CF05?42f?5PIT@ 005315f0     renderhud.obj
 0002:000095fc       ??_C@_0L@PKCIHA@?$CF05?42f?5X?5?5@ 005315fc     renderhud.obj
 0002:00009608       ??_C@_0L@LIEGEPBF@?$CF05?42f?5Y?5?5@ 00531608     renderhud.obj
 0002:00009614       ??_C@_0L@KKPDOAPL@?$CF05?42f?5Z?5?5@ 00531614     renderhud.obj
 0002:00009620       ??_C@_06KAIAELBG@fps?5?$CFd@ 00531620     renderhud.obj
 0002:00009628       ??_C@_0BE@BCKCPBDK@updateeditinfopanel@ 00531628     renderhud.obj
 0002:0000963c       ??_C@_09FJLEEAHK@?$CF02d?3?$CF02d@ 0053163c     renderhud.obj
 0002:00009648       ??_C@_0BC@BLLKGPFF@?$CFs?5called?5a?5vote?3@ 00531648     renderhud.obj
 0002:0000965c       ??_C@_04ECGLBLOI@?9?9?9?9@ 0053165c     renderhud.obj
 0002:00009664       ??_C@_0BB@CBPAOOHC@?$CFd?5yes?5vs?4?5?$CFd?5no@ 00531664     renderhud.obj
 0002:00009678       ??_C@_0CA@PMGBNFIH@?$AM3press?5F1?1F2?5to?5vote?5yes?5or?5no@ 00531678     renderhud.obj
 0002:00009698       ??_C@_06MBANMAIC@PASSED@   00531698     renderhud.obj
 0002:000096a0       ??_C@_06OHCJKBJM@FAILED@   005316a0     renderhud.obj
 0002:000096a8       ??_C@_09FNPDJJOB@?$AM3vote?5?$CFs@ 005316a8     renderhud.obj
 0002:000096b4       ??_C@_0BI@FOLAIEME@SCROLL?5to?5change?5player@ 005316b4     renderhud.obj
 0002:000096cc       ??_C@_0BF@DLHCGIBM@SPACE?5to?5change?5view@ 005316cc     renderhud.obj
 0002:000096e4       ??_C@_0N@KMOEHHNI@MATCH?5PAUSED@ 005316e4     renderhud.obj
 0002:000096f4       ??_C@_0M@BCENDMIN@Speed?3?5?$CF?42f@ 005316f4     renderhud.obj
 0002:00009700       ??_C@_05EHLJDHNC@GHOST@    00531700     renderhud.obj
 0002:00009708       ??_C@_05JIKIKHJK@?$FLCLA?$FN@ 00531708     renderhud.obj
 0002:00009710       ??_C@_06BHOOHMHM@?$FLRVSF?$FN@ 00531710     renderhud.obj
 0002:00009718       ??_C@_04GCAJKEBL@?$AMZ?$CFs@ 00531718     renderhud.obj
 0002:00009720       ??_C@_04HALMALPF@?$AMY?$CFs@ 00531720     renderhud.obj
 0002:00009728       ??_C@_0BC@BDMJPGJC@Player?5?$CFs?5?$FLcn?3?$CFd?$FN@ 00531728     renderhud.obj
 0002:0000973c       ??_C@_09FKAEDENP@huddigits@ 0053173c     renderhud.obj
 0002:00009748       ??_C@_02DPKJAMEF@?$CFd@    00531748     renderhud.obj
 0002:0000974c       ??_C@_02OAMOHKJG@31@       0053174c     renderhud.obj
 0002:00009750       ??_C@_02IACPMDCA@55@       00531750     renderhud.obj
 0002:00009754       ??_C@_0BO@MHMGGOBB@packages?1misc?1startscreen?4png@ 00531754     renderhud.obj
 0002:00009778       ??_7?$consolebuffer@Uhudline@@@@6B@ 00531778     renderhud.obj
 0002:00009780       ?ghoststrings@@3PAPBDA     00531780     renderhud.obj
 0002:000097a0       ?mmpath@@3PBDB             005317a0     rendermodel.obj
 0002:000097a4       ?shuffleskillthreshold@@3HA 005317a4     server.obj
 0002:000097a8       ?spk@@3PAEA                005317a8     server.obj
 0002:000097ac       ?servermappath_incom@@3PBDB 005317ac     server.obj
 0002:000097b0       ?modestrings@@3PAPBDA      005317b0     clientgame.obj
 0002:00009808       ?killmessages@@3PAY0L@PBDA 00531808     server.obj
 0002:00009860       ?vskeywords@@3PAPBDA       00531860     server.obj
 0002:000098a4       ?servermappath_serv@@3PBDB 005318a4     server.obj
 0002:000098a8       ?servermappath_local@@3PBDB 005318a8     server.obj
 0002:000098ac       ?servermappath_off@@3PBDB  005318ac     server.obj
 0002:000098b0       ?maprotkeywords@@3PAPBDA   005318b0     server.obj
 0002:000098dc       ?resdata@@3AAU?$hashtable@PADI@@A 005318dc     world.obj
 0002:000098e0       ?entscale@@3PAY06EA        005318e0     server.obj
 0002:00009960       ?entwraparound@@3PAY06FA   00531960     server.obj
 0002:00009a5c       ?fc_als@@3PAPBDA           00531a5c     serverbrowser.obj
 0002:00009a8c       ?weaponchangetime@weapon@@2HB 00531a8c     weapon.obj
 0002:00009ab0       ?hx_names@@3PAPBDA         00531ab0     worldio.obj
 0002:00009ad0       ?entmdlnames@@3PAPBDA      00531ad0     entities.obj
 0002:00009b00       ?updatestxt@@3PBDB         00531b00     autodownload.obj
 0002:00009b04       ?keycmds@@3PAPBDA          00531b04     console.obj
 0002:000248e4       ?crlf@@3PBDB               0054c8e4     http.obj
 0002:00024950       ?mask@jpegenc@@0PAGA       0054c950     main.obj
 0002:00024970       ?zigzag@jpegenc@@0PAEA     0054c970     main.obj
 0002:000249b0       ?menufilesortcmp@@3PAP6AHPAPBD0@ZA 0054c9b0     menus.obj
 0002:000249c0       ?empty@mitemkeyinput@@2PBDB 0054c9c0     menus.obj
 0002:000249c4       ?unknown@mitemkeyinput@@2PBDB 0054c9c4     menus.obj
 0002:000249f0       ?modrev@@3PBDB             0054c9f0     zip.obj
 0002:000249f4       ?previewjpg@@3PBDB         0054c9f4     zip.obj
 0002:000249f8       ?desctxt@@3PBDB            0054c9f8     zip.obj
 0002:000249fc       ?mapsoundfinalpath@@3PBDB  0054c9fc     audiomanager.obj
 0002:00024a00       ?mapsoundbasepath@@3PBDB   0054ca00     audiomanager.obj
 0002:00024a04       ?oggcallbacks@@3Uov_callbacks@@A 0054ca04     oggstream.obj
 0002:00024a14       ?al_rollofffactor@@3HA     0054ca14     openal.obj
 0002:00024a18       ?al_referencedistance@@3HA 0054ca18     openal.obj
 0002:00024da4       ?mmfullnames@@3PAPBDA      0054cda4     protocol1.obj
 0002:00024db0       ?voteerrors@@3PAPBDA       0054cdb0     protocol1.obj
 0002:00024dd8       ?modefullnames@@3PAPBDA    0054cdd8     protocol1.obj
 0002:00024e4c       ??_7hudmessages@@6B@       0054ce4c     renderhud.obj
 0002:00024e54       ??_C@_0BL@GNIBKKNJ@animationinterpolationtime@ 0054ce54     rendermodel.obj
 0002:00024e70       ??_C@_06NJLCHBAN@tsswap@   0054ce70     rendermodel.obj
 0002:00024e78       ??_C@_0O@CPBHFFCH@dynshadowsize@ 0054ce78     rendermodel.obj
 0002:00024e88       ??_C@_0M@ONCOCJAG@aadynshadow@ 0054ce88     rendermodel.obj
 0002:00024e94       ??_C@_0M@KIHCDIGO@saveshadows@ 0054ce94     rendermodel.obj
 0002:00024ea0       ??_C@_0O@EGHAJDLA@dynshadowquad@ 0054cea0     rendermodel.obj
 0002:00024eb0       ??_C@_09IAEGCBN@shadowyaw@ 0054ceb0     rendermodel.obj
 0002:00024ebc       ??_C@_08DIAAAAAA@mdldlist@ 0054cebc     rendermodel.obj
 0002:00024ec8       ??_C@_0CP@EMLFMCEP@mdanim?3?5invalid?5frame?5?$CFd?0?5range@ 0054cec8     rendermodel.obj
 0002:00024ef8       ??_C@_02GMLFBBN@wb@        0054cef8     rendermodel.obj
 0002:00024efc       ??_C@_02JDPG@rb@           0054cefc     rendermodel.obj
 0002:00024f00       ??_C@_0M@GHACGNAG@shadows?4dat@ 0054cf00     rendermodel.obj
 0002:00024f0c       ??_C@_0M@CNPHEGAH@mdldyncache@ 0054cf0c     rendermodel.obj
 0002:00024f18       ??_C@_0N@CBHGNGBE@mdlstatcache@ 0054cf18     rendermodel.obj
 0002:00024f28       ??_C@_0BM@GHKCHKHL@packages?1models?1?$CFs?1tris?4md2@ 0054cf28     rendermodel.obj
 0002:00024f44       ??_C@_0CB@MDONGMDC@could?5not?5load?5model?5skin?5for?5?$CF@ 0054cf44     rendermodel.obj
 0002:00024f68       ??_C@_0BL@DINBKKGD@packages?1models?1?$CFs?1md2?4cfg@ 0054cf68     rendermodel.obj
 0002:00024f84       ??_C@_0BD@HOFNMLNO@not?5loading?5an?5md2@ 0054cf84     rendermodel.obj
 0002:00024f98       ??_C@_0BM@KIFNKFIM@could?5not?5find?5animation?5?$CFs@ 0054cf98     rendermodel.obj
 0002:00024fb4       ??_C@_04LFCABGPK@siif@     0054cfb4     rendermodel.obj
 0002:00024fbc       ??_C@_07PIGGACE@md2anim@   0054cfbc     rendermodel.obj
 0002:00024fc4       ??_C@_0BJ@KHDEIHFN@could?5not?5find?5vertex?5?$CFs@ 0054cfc4     rendermodel.obj
 0002:00024fe0       ??_C@_0BK@PBAEBNMC@could?5not?5generate?5tag?5?$CFs@ 0054cfe0     rendermodel.obj
 0002:00024ffc       ??_C@_05FGNGEIGC@sssss@    0054cffc     rendermodel.obj
 0002:00025004       ??_C@_06EHICMALC@md2tag@   0054d004     rendermodel.obj
 0002:0002500c       ??_C@_0BJ@PMFGGDKA@unknown?5particle?5type?5?$CFs@ 0054d00c     rendermodel.obj
 0002:00025028       ??_C@_0BG@FAFMHGIH@could?5not?5find?5tag?5?$CFs@ 0054d028     rendermodel.obj
 0002:00025040       ??_C@_04NBMLNMO@ssii@      0054d040     rendermodel.obj
 0002:00025048       ??_C@_07HDLDMABC@md2emit@  0054d048     rendermodel.obj
 0002:00025050       ??_C@_04OAJPLGDA@IDP3@     0054d050     rendermodel.obj
 0002:00025058       ??_C@_0BG@EFCKECLA@md3?3?5corrupted?5header@ 0054d058     rendermodel.obj
 0002:00025070       ??_C@_0BD@HIJBPBMD@packages?1models?1?$CFs@ 0054d070     rendermodel.obj
 0002:00025084       ??_C@_0BL@PDINHJMG@packages?1models?1?$CFs?1md3?4cfg@ 0054d084     rendermodel.obj
 0002:000250a0       ??_C@_0BM@HOLJELDK@packages?1models?1?$CFs?1tris?4md3@ 0054d0a0     rendermodel.obj
 0002:000250bc       ??_C@_0BD@GHEGPKJP@not?5loading?5an?5md3@ 0054d0bc     rendermodel.obj
 0002:000250d0       ??_C@_05GFOLEBJA@?$CFs?1?$CFs@ 0054d0d0     rendermodel.obj
 0002:000250d8       ??_C@_0BC@BECPHHLH@could?5not?5load?5?$CFs@ 0054d0d8     rendermodel.obj
 0002:000250ec       ??_C@_07FLCHPKKE@md3load@  0054d0ec     rendermodel.obj
 0002:000250f4       ??_C@_01NBENCBCI@?$CK@     0054d0f4     rendermodel.obj
 0002:000250f8       ??_C@_0BH@MKFKBFPP@?0?5possibilities?5are?3?5?$CK@ 0054d0f8     rendermodel.obj
 0002:00025110       ??_C@_03MFMGJBPJ@?$HM?$CFs@ 0054d110     rendermodel.obj
 0002:00025114       ??_C@_0DG@FNHAPGNA@mesh?5?$CC?$CFs?$CC?5not?5found?5in?5model?5?$CFs@ 0054d114     rendermodel.obj
 0002:0002514c       ??_C@_07MCAJNEJC@md3skin@  0054d14c     rendermodel.obj
 0002:00025154       ??_C@_07MENKLDIB@md3anim@  0054d154     rendermodel.obj
 0002:0002515c       ??_C@_0BJ@MBNLEDHP@no?5models?5loaded?5to?5link@ 0054d15c     rendermodel.obj
 0002:00025178       ??_C@_0BI@EBDAPHJE@could?5not?5link?5model?5?$CFs@ 0054d178     rendermodel.obj
 0002:00025190       ??_C@_03NLIBECPA@iis@      0054d190     rendermodel.obj
 0002:00025194       ??_C@_07PCIIPOIK@md3link@  0054d194     rendermodel.obj
 0002:0002519c       ??_C@_07LIOPBDLH@md3emit@  0054d19c     rendermodel.obj
 0002:000251a4       ??_C@_0BE@BMJMPKHA@not?5loading?5a?5model@ 0054d1a4     rendermodel.obj
 0002:000251b8       ??_C@_01KBJDNOO@i@         0054d1b8     rendermodel.obj
 0002:000251bc       ??_C@_0M@GMIMGGAH@mdlcullface@ 0054d1bc     rendermodel.obj
 0002:000251c8       ??_C@_0P@CFNNHCCM@mdlvertexlight@ 0054d1c8     rendermodel.obj
 0002:000251d8       ??_C@_0P@FCPELAEF@mdltranslucent@ 0054d1d8     rendermodel.obj
 0002:000251e8       ??_C@_0N@IGFDCJAD@mdlalphatest@ 0054d1e8     rendermodel.obj
 0002:000251f8       ??_C@_0O@CEECABCC@mdlalphablend@ 0054d1f8     rendermodel.obj
 0002:00025208       ??_C@_08CFJEEKEA@mdlscale@ 0054d208     rendermodel.obj
 0002:00025214       ??_C@_03LPALPDIP@fff@      0054d214     rendermodel.obj
 0002:00025218       ??_C@_08HKANKFHD@mdltrans@ 0054d218     rendermodel.obj
 0002:00025224       ??_C@_0O@BAJJKBFB@mdlshadowdist@ 0054d224     rendermodel.obj
 0002:00025234       ??_C@_0O@JAABKLMP@mdlcachelimit@ 0054d234     rendermodel.obj
 0002:00025244       ??_C@_08KBIEDDDE@keywords@ 0054d244     rendermodel.obj
 0002:00025250       ??_C@_04EBPADADD@desc@     0054d250     rendermodel.obj
 0002:00025258       ??_C@_08LMJEPNLL@defaults@ 0054d258     rendermodel.obj
 0002:00025264       ??_C@_05HNCIIKBA@usage@    0054d264     rendermodel.obj
 0002:0002526c       ??_C@_06LIPPPFCI@author@   0054d26c     rendermodel.obj
 0002:00025274       ??_C@_07EJMBNAEG@license@  0054d274     rendermodel.obj
 0002:0002527c       ??_C@_0N@LHOGOLPD@distribution@ 0054d27c     rendermodel.obj
 0002:0002528c       ??_C@_07CPCPJPKL@version@  0054d28c     rendermodel.obj
 0002:00025294       ??_C@_08FBECLHOF@requires@ 0054d294     rendermodel.obj
 0002:000252a0       ??_C@_0N@NDNDIGFF@mdlattribute@ 0054d2a0     rendermodel.obj
 0002:000252b0       ??_C@_0BA@KGIDJPIG@mapmodelchanged@ 0054d2b0     rendermodel.obj
 0002:000252c0       ??_C@_0L@ECKDHP@mapmodels?1@ 0054d2c0     rendermodel.obj
 0002:000252cc       ??_C@_01GBGANLPD@0@        0054d2cc     rendermodel.obj
 0002:000252d0       ??_C@_04HDOCAJNK@?$CFs?$CFs@ 0054d2d0     rendermodel.obj
 0002:000252d8       ??_C@_06OMELJBFH@iiisss@   0054d2d8     rendermodel.obj
 0002:000252e0       ??_C@_08NIOLEMIA@mapmodel@ 0054d2e0     rendermodel.obj
 0002:000252ec       ??_C@_0O@OHIPMJPN@mapmodelreset@ 0054d2ec     rendermodel.obj
 0002:000252fc       ??_C@_0BB@ELKMOCOK@mapmodelslotname@ 0054d2fc     rendermodel.obj
 0002:00025310       ??_C@_04HGGBINEM@?$CFs?$CFd@ 0054d310     rendermodel.obj
 0002:00025318       ??_C@_0BD@FCPHBDAK@mapmodelslotbyname@ 0054d318     rendermodel.obj
 0002:0002532c       ??_C@_0BC@GCHNGFAK@mapmodelslotusage@ 0054d32c     rendermodel.obj
 0002:00025340       ??_C@_0BD@BDBDNANE@deletemapmodelslot@ 0054d340     rendermodel.obj
 0002:00025354       ??_C@_05OAAJBGHC@purge@    0054d354     rendermodel.obj
 0002:0002535c       ??_C@_0CK@MMJPDBNK@mapmodel?5slot?5?$CD?$CFd?5is?5in?5use?3?5ca@ 0054d35c     rendermodel.obj
 0002:00025388       ??_C@_0BH@HLLOAJCI@?5?$CI?$CFd?5mapmodels?5purged?$CJ@ 0054d388     rendermodel.obj
 0002:000253a0       ??_C@_0BM@MGINDCJO@mapmodel?5slot?5?$CD?$CFd?5deleted?$CFs@ 0054d3a0     rendermodel.obj
 0002:000253bc       ??_C@_02EDKKPMHH@is@       0054d3bc     rendermodel.obj
 0002:000253c0       ??_C@_0BB@NCOPDHK@editmapmodelslot@ 0054d3c0     rendermodel.obj
 0002:000253d4       ??_C@_0BB@NHAEHOA@?$CFd?5?$CFd?5?$CFd?5?$CFs?5?$CC?$CFs?$CC@ 0054d3d4     rendermodel.obj
 0002:000253e8       ??_C@_06GEFGDPIJ@isssss@   0054d3e8     rendermodel.obj
 0002:000253f0       ??_C@_07FDNOGAPK@nomerge@  0054d3f0     rendermodel.obj
 0002:000253f8       ??_C@_06IBKJNHDA@nosort@   0054d3f8     rendermodel.obj
 0002:00025400       ??_C@_09NBPAGBGI@mergeused@ 0054d400     rendermodel.obj
 0002:0002540c       ??_C@_0CJ@CHEKLNLK@sortmapmodelslots?3?5unknown?5argu@ 0054d40c     rendermodel.obj
 0002:00025438       ??_C@_0BC@JNGGHNEA@sortmapmodelslots@ 0054d438     rendermodel.obj
 0002:0002544c       ??_C@_07JGNLMONI@unused?5@ 0054d44c     rendermodel.obj
 0002:00025454       ??_C@_07GPELBGPF@?5sorted@ 0054d454     rendermodel.obj
 0002:0002545c       ??_C@_0CH@EOODNJGC@?$CFd?5mapmodel?5slots?$CFs?0?5?$CFd?5?$CFsslots@ 0054d45c     rendermodel.obj
 0002:00025484       ??_C@_01MHEDDDHA@v@        0054d484     rendermodel.obj
 0002:00025488       ??_C@_0BB@DLBIJDBA@mapmodelregister@ 0054d488     rendermodel.obj
 0002:0002549c       ??_C@_0BG@BPKNPCBK@mapmodelregistryclear@ 0054d49c     rendermodel.obj
 0002:000254b4       ??_C@_0BK@JLDIEGCL@?$AM3failed?5to?5load?5model?5?$CFs@ 0054d4b4     rendermodel.obj
 0002:000254d0       ??_C@_0GK@PBKKAECH@?$AM3mapmodel?5config?5error?3?5disabl@ 0054d4d0     rendermodel.obj
 0002:0002553c       ??_C@_08IPBIFIPM@?5?$CFs?3?$CC?$CFs?$CC@ 0054d53c     rendermodel.obj
 0002:00025548       ??_C@_0BF@BAEHNPKM@?5?$DMno?5attributes?5set?$DO@ 0054d548     rendermodel.obj
 0002:00025560       ??_C@_05CCMOGDN@?$CFs?3?$CFs@ 0054d560     rendermodel.obj
 0002:00025568       ??_C@_0BG@ELIIJBGC@getmapmodelattributes@ 0054d568     rendermodel.obj
 0002:00025580       ??_C@_0BJ@NIKDKPED@mapmodel?50?50?50?50?5?$CC?$CFs?$CC?5?$CFd@ 0054d580     rendermodel.obj
 0002:0002559c       ??_C@_0DF@HFNKGGBD@?5mapmodel?5?$CFs?5added?5to?5config?0?5b@ 0054d59c     rendermodel.obj
 0002:000255d4       ??_C@_0BL@MBMFBPDE@updatemapmodeldependencies@ 0054d5d4     rendermodel.obj
 0002:000255f0       ??_C@_01NOFIACDB@w@        0054d5f0     rendermodel.obj
 0002:000255f4       ??_C@_0BO@IHBPJHJF@config?2mapmodelattributes?4cfg@ 0054d5f4     rendermodel.obj
 0002:00025618       ??_C@_0IB@JHLDIJLB@?1?1?5automatically?5written?5on?5exi@ 0054d618     rendermodel.obj
 0002:0002569c       ??_C@_0BF@EAGHLFMJ@?6mapmodelregister?5?$CFs@ 0054d69c     rendermodel.obj
 0002:000256b4       ??_C@_03EEBNCBOD@?5?$CFs@  0054d6b4     rendermodel.obj
 0002:000256b8       ??_C@_02PHMGELLB@?6?6@     0054d6b8     rendermodel.obj
 0002:000256bc       ??_C@_07GAOCNCAC@sortby?3@ 0054d6bc     rendermodel.obj
 0002:000256c4       ??_C@_0BA@NCNICDGC@explodekeywords@ 0054d6c4     rendermodel.obj
 0002:000256d4       ??_C@_0BK@LGMGGJIO@listallmapmodelattributes@ 0054d6d4     rendermodel.obj
 0002:000256f0       ??_C@_09FHNMOOIA@dynshadow@ 0054d6f0     rendermodel.obj
 0002:000256fc       ??_C@_0P@KKODAPGK@dynshadowdecay@ 0054d6fc     rendermodel.obj
 0002:0002570c       ??_C@_0P@PDADMLHO@popdeadplayers@ 0054d70c     rendermodel.obj
 0002:0002571c       ??_C@_04EAPMNACM@idle@     0054d71c     rendermodel.obj
 0002:00025724       ??_C@_03LGMJKEGG@run@      0054d724     rendermodel.obj
 0002:00025728       ??_C@_06JMLBDJHL@attack@   0054d728     rendermodel.obj
 0002:00025730       ??_C@_04PPONMOMN@pain@     0054d730     rendermodel.obj
 0002:00025738       ??_C@_04NJIOBGCF@jump@     0054d738     rendermodel.obj
 0002:00025740       ??_C@_04KFFNEKEB@land@     0054d740     rendermodel.obj
 0002:00025748       ??_C@_07KNOINIA@flipoff@   0054d748     rendermodel.obj
 0002:00025750       ??_C@_06DHOKKDEE@salute@   0054d750     rendermodel.obj
 0002:00025758       ??_C@_05CPCHEFAA@taunt@    0054d758     rendermodel.obj
 0002:00025760       ??_C@_04LJEDCPFL@wave@     0054d760     rendermodel.obj
 0002:00025768       ??_C@_05BBEJFBFA@point@    0054d768     rendermodel.obj
 0002:00025770       ??_C@_0M@HPMAMNBP@crouch?5idle@ 0054d770     rendermodel.obj
 0002:0002577c       ??_C@_0M@JENDJEA@crouch?5walk@ 0054d77c     rendermodel.obj
 0002:00025788       ??_C@_0O@LNMAPKO@crouch?5attack@ 0054d788     rendermodel.obj
 0002:00025798       ??_C@_0M@MANBNDPO@crouch?5pain@ 0054d798     rendermodel.obj
 0002:000257a4       ??_C@_0N@EOCDAHGD@crouch?5death@ 0054d7a4     rendermodel.obj
 0002:000257b4       ??_C@_05PBMMFKGI@death@    0054d7b4     rendermodel.obj
 0002:000257bc       ??_C@_0L@JADIMPJN@lying?5dead@ 0054d7bc     rendermodel.obj
 0002:000257c8       ??_C@_04DNPGJOMD@flag@     0054d7c8     rendermodel.obj
 0002:000257d0       ??_C@_08GAEAHCII@gun?5idle@ 0054d7d0     rendermodel.obj
 0002:000257dc       ??_C@_09NAMPBBFG@gun?5shoot@ 0054d7dc     rendermodel.obj
 0002:000257e8       ??_C@_0L@MEONJGFC@gun?5reload@ 0054d7e8     rendermodel.obj
 0002:000257f4       ??_C@_09EEJEPNGP@gun?5throw@ 0054d7f4     rendermodel.obj
 0002:00025800       ??_C@_07DIDNFGDE@trigger@  0054d800     rendermodel.obj
 0002:00025808       ??_C@_05BCPBNAGI@decay@    0054d808     rendermodel.obj
 0002:00025810       ??_C@_03NFKEKGGK@all@      0054d810     rendermodel.obj
 0002:00025814       ??_C@_0BM@JOELLGPD@packages?1models?1?$CFs?1skin?4jpg@ 0054d814     rendermodel.obj
 0002:00025830       ??_C@_03NNHBJLDF@png@      0054d830     rendermodel.obj
 0002:00025834       ??_C@_0N@DCPGAPLL@playermodels@ 0054d834     rendermodel.obj
 0002:00025844       ??_C@_0BB@EOJBCMII@weapons?1?$CFs?1world@ 0054d844     rendermodel.obj
 0002:00025858       ??_C@_0L@HOLPFMNP@misc?1gib01@ 0054d858     rendermodel.obj
 0002:00025864       ??_C@_0L@FFJCAPBM@misc?1gib02@ 0054d864     rendermodel.obj
 0002:00025870       ??_C@_0L@EMIJDOFN@misc?1gib03@ 0054d870     rendermodel.obj
 0002:0002587c       ??_C@_0BH@MEEDOPBE@weapons?1grenade?1static@ 0054d87c     rendermodel.obj
 0002:00025894       ??_C@_0L@FGMMEJDC@tag_weapon@ 0054d894     rendermodel.obj
 0002:000258a0       ??_C@_08PGAPCFON@tag_head@ 0054d8a0     rendermodel.obj
 0002:000258ac       ??_C@_0BA@PKMGALM@teamdisplaymode@ 0054d8ac     rendermodel.obj
 0002:000258bc       ??_C@_0BA@LPEKDAN@hidecustomskins@ 0054d8bc     rendermodel.obj
 0002:000258cc       ??_C@_03PEGNKCLE@jpg@      0054d8cc     rendermodel.obj
 0002:000258d0       ??_C@_0CE@KPCNFCPJ@packages?1models?1playermodels?1cu@ 0054d8d0     rendermodel.obj
 0002:000258f4       ??_C@_04KNGPBFFD@_ffa@     0054d8f4     rendermodel.obj
 0002:000258fc       ??_C@_04JHCGGALH@_cla@     0054d8fc     rendermodel.obj
 0002:00025904       ??_C@_05BLLDLCLJ@_rvsf@    0054d904     rendermodel.obj
 0002:0002590c       ??_C@_0BN@BBFAFFHM@packages?1models?1playermodels@ 0054d90c     rendermodel.obj
 0002:0002592c       ??_C@_05PMPFOIAI@SPECT@    0054d92c     rendermodel.obj
 0002:00025934       ??_C@_0BB@GFDEAOFO@?$CFs?1custom?1?$CFs?4jpg@ 0054d934     rendermodel.obj
 0002:00025948       ??_C@_0P@HNHPMKIA@?$CFs?1?$CFs?1?$CF02d?4jpg@ 0054d948     rendermodel.obj
 0002:00025958       ??_C@_04OBGPFBCN@blue@     0054d958     rendermodel.obj
 0002:00025960       ??_C@_03FAAAOPJM@red@      0054d960     rendermodel.obj
 0002:00025964       ??_C@_0BG@PBHOCNHA@?$CFs?1?$CFs?1?$CF02d_?$CFsvest?4jpg@ 0054d964     rendermodel.obj
 0002:0002597c       ??_C@_0N@BMHCFEJG@?$CFs?1?$CFs?1?$CFs?4jpg@ 0054d97c     rendermodel.obj
 0002:0002598c       ??_C@_0BK@PEILCLCN@packages?1models?1mapmodels@ 0054d98c     rendermodel.obj
 0002:000259a8       ??_C@_06IILMCCFO@loaded@   0054d9a8     rendermodel.obj
 0002:000259b0       ??_C@_0P@KDDBDKEH@failed?5to?5load@ 0054d9b0     rendermodel.obj
 0002:000259c0       ??_C@_0BD@NPFEEJDB@loadallmaps?3?5?$CFs?5?$CFs@ 0054d9c0     rendermodel.obj
 0002:000259d4       ??_C@_0BB@FIAGLGOE@loadallmapmodels@ 0054d9d4     rendermodel.obj
 0002:00025a00       ??_C@_01CLKCMJKC@?5@       0054da00     rendermodel.obj
 0002:00025a08       ??_7md3part@md3@@6B@       0054da08     rendermodel.obj
 0002:00025a1c       ??_7md3@@6B@               0054da1c     rendermodel.obj
 0002:00025a50       ??_7md2part@md2@@6B@       0054da50     rendermodel.obj
 0002:00025a60       ?m@?1??identity@glmatrixf@@QAEXXZ@4QBMB 0054da60     rendermodel.obj
 0002:00025aa0       ?range@?1??getdefaultanim@md2part@md2@@UAEXAAUanimstate@@HH@Z@4PAHA 0054daa0     rendermodel.obj
 0002:00025b08       ?frame@?1??getdefaultanim@md2part@md2@@UAEXAAUanimstate@@HH@Z@4PAHA 0054db08     rendermodel.obj
 0002:00025b70       ?animfr@?1??getdefaultanim@md2part@md2@@UAEXAAUanimstate@@HH@Z@4PAHA 0054db70     rendermodel.obj
 0002:00025bc0       ??_7md2@@6B@               0054dbc0     rendermodel.obj
 0002:00025bf4       ??_7vertmodel@@6B@         0054dbf4     rendermodel.obj
 0002:00025c28       ??_7model@@6B@             0054dc28     rendermodel.obj
 0002:00025c5c       ??_7part@vertmodel@@6B@    0054dc5c     rendermodel.obj
 0002:00025c6c       ??_C@_0M@FJNEDJNC@mtexplosion@ 0054dc6c     renderparticles.obj
 0002:00025c78       ??_C@_04MOGELCJE@?$DN?5Ca@ 0054dc78     renderparticles.obj
 0002:00025c80       ??_C@_05CPCFJIHA@C?5?$CK?5T@ 0054dc80     renderparticles.obj
 0002:00025c88       ??_C@_0M@HAOAEAOE@Pa?5?$CK?5Ta?5x?54@ 0054dc88     renderparticles.obj
 0002:00025c94       ??_C@_0L@LFCNPJLH@P?5?$CK?5Ta?5x?54@ 0054dc94     renderparticles.obj
 0002:00025ca0       ??_C@_0BH@MMDKCGEB@packages?1misc?1base?4png@ 0054dca0     renderparticles.obj
 0002:00025cb8       ??_C@_0BI@CDHDGAJN@packages?1misc?1smoke?4png@ 0054dcb8     renderparticles.obj
 0002:00025cd0       ??_C@_0BM@MKOPMACE@packages?1misc?1explosion?4png@ 0054dcd0     renderparticles.obj
 0002:00025cec       ??_C@_0CE@LIGBPCMM@?$DMdecal?$DOpackages?1misc?1bullethole@ 0054dcec     renderparticles.obj
 0002:00025d10       ??_C@_0BI@MDHHGJLO@packages?1misc?1blood?4png@ 0054dd10     renderparticles.obj
 0002:00025d28       ??_C@_0BJ@FLPJMNII@packages?1misc?1scorch?4png@ 0054dd28     renderparticles.obj
 0002:00025d44       ??_C@_0BO@HKGMBDJP@packages?1misc?1muzzleflash?4jpg@ 0054dd44     renderparticles.obj
 0002:00025d64       ??_C@_05KDCJLIIG@SPARK@    0054dd64     renderparticles.obj
 0002:00025d6c       ??_C@_05FGPCCJPH@SMOKE@    0054dd6c     renderparticles.obj
 0002:00025d74       ??_C@_08DEBANKAO@ECLOSEST@ 0054dd74     renderparticles.obj
 0002:00025d80       ??_C@_05LNAKEIOE@BLOOD@    0054dd80     renderparticles.obj
 0002:00025d88       ??_C@_09IIMPOIPC@DEMOTRACK@ 0054dd88     renderparticles.obj
 0002:00025d94       ??_C@_08ENKEGLIH@FIREBALL@ 0054dd94     renderparticles.obj
 0002:00025da0       ??_C@_08BBILJLO@SHOTLINE@  0054dda0     renderparticles.obj
 0002:00025dac       ??_C@_0L@NNKDAALI@BULLETHOLE@ 0054ddac     renderparticles.obj
 0002:00025db8       ??_C@_0L@KKJILMCA@BLOODSTAIN@ 0054ddb8     renderparticles.obj
 0002:00025dc4       ??_C@_06ILJFFEM@SCORCH@    0054ddc4     renderparticles.obj
 0002:00025dcc       ??_C@_0P@EEFMLEMH@HUDMUZZLEFLASH@ 0054ddcc     renderparticles.obj
 0002:00025ddc       ??_C@_0M@DDLEJIHI@MUZZLEFLASH@ 0054dddc     renderparticles.obj
 0002:00025de8       ??_C@_06PPEEKONM@ELIGHT@   0054dde8     renderparticles.obj
 0002:00025df0       ??_C@_06OCAIKKCL@ESPAWN@   0054ddf0     renderparticles.obj
 0002:00025df8       ??_C@_05BCOGHJMD@EAMMO@    0054ddf8     renderparticles.obj
 0002:00025e00       ??_C@_07HDKIBCKG@EPICKUP@  0054de00     renderparticles.obj
 0002:00025e08       ??_C@_06CDCOCMDN@EMODEL@   0054de08     renderparticles.obj
 0002:00025e10       ??_C@_07MMIBFDBN@ECARROT@  0054de10     renderparticles.obj
 0002:00025e18       ??_C@_07PLNGGLMF@ELADDER@  0054de18     renderparticles.obj
 0002:00025e20       ??_C@_05NJLJLBNK@EFLAG@    0054de20     renderparticles.obj
 0002:00025e28       ??_C@_0N@KDFPFDGD@particlesize@ 0054de28     renderparticles.obj
 0002:00025e38       ??_C@_05HGJMKPKK@blood@    0054de38     renderparticles.obj
 0002:00025e40       ??_C@_08HKCEHEGF@bloodttl@ 0054de40     renderparticles.obj
 0002:00025e4c       ??_C@_08GJGJALNB@maxtrail@ 0054de4c     renderparticles.obj
 0002:00025e58       ??_C@_0BC@IMPJDDMN@bulletbouncesound@ 0054de58     renderparticles.obj
 0002:00025e6c       ??_C@_0L@GLMOLCJI@bullethole@ 0054de6c     renderparticles.obj
 0002:00025e78       ??_C@_0O@CHMCBJEC@bulletholettl@ 0054de78     renderparticles.obj
 0002:00025e88       ??_C@_0BF@CAMPENLE@bulletbouncesoundrad@ 0054de88     renderparticles.obj
 0002:00025ea0       ??_C@_0BC@LPKFAJAD@bulletpenetration@ 0054dea0     renderparticles.obj
 0002:00025eb4       ??_C@_06MJCILJO@scorch@    0054deb4     renderparticles.obj
 0002:00025ebc       ??_C@_09EPBGPFPC@scorchttl@ 0054debc     renderparticles.obj
 0002:00025ec8       ??_C@_08HOLEIHJJ@shotline@ 0054dec8     renderparticles.obj
 0002:00025ed4       ??_C@_0M@DEOBCJPE@shotlinettl@ 0054ded4     renderparticles.obj
 0002:00025ee0       ??_C@_0P@LNMOOAFH@bulletairsound@ 0054dee0     renderparticles.obj
 0002:00025ef0       ??_C@_0BC@MCODEDHA@bulletairsoundrad@ 0054def0     renderparticles.obj
 0002:00025f04       ??_C@_0BI@PIHGCBNB@bulletairsoundsourcerad@ 0054df04     renderparticles.obj
 0002:00025f1c       ??_C@_0BG@MMHCJPIG@bulletairsounddestrad@ 0054df1c     renderparticles.obj
 0002:00025f60       ??_C@_0BC@BIEGAKJN@allowblinkingtext@ 0054df60     rendertext.obj
 0002:00025f74       ??_C@_08OCOHFIGC@ssiiiiii@ 0054df74     rendertext.obj
 0002:00025f80       ??_C@_04EFPADHIC@font@     0054df80     rendertext.obj
 0002:00025f88       ??_C@_04BIOIIFBG@iiii@     0054df88     rendertext.obj
 0002:00025f90       ??_C@_08GCLBBF@fontchar@   0054df90     rendertext.obj
 0002:00025f9c       ??_C@_08EOBCLKED@fontskip@ 0054df9c     rendertext.obj
 0002:00025fa8       ??_C@_07INBCKFBA@setfont@  0054dfa8     rendertext.obj
 0002:00025fb0       ??_C@_07EACOOLOI@curfont@  0054dfb0     rendertext.obj
 0002:00025fb8       ??_C@_0L@PPLBLPDP@igraphsize@ 0054dfb8     rendertext.obj
 0002:00025fc4       ??_C@_0BE@OKPHFBPM@igraphsizehardcoded@ 0054dfc4     rendertext.obj
 0002:00025fd8       ??_C@_0O@HGOPGPBL@igraphanimate@ 0054dfd8     rendertext.obj
 0002:00025fe8       ??_C@_0BO@CPBBHGPP@failed?5to?5reload?5font?5texture@ 0054dfe8     rendertext.obj
 0002:00026008       ??_C@_0BH@HAFLDKMH@igraphdefaultframetime@ 0054e008     rendertext.obj
 0002:00026020       ??_C@_0M@FPBMAMH@hideigraphs@ 0054e020     rendertext.obj
 0002:0002602c       ??_C@_01IDAFKMJL@_@        0054e02c     rendertext.obj
 0002:00026030       ??_C@_0BG@GOFGMLOA@packages?2misc?2igraph?2@ 0054e030     rendertext.obj
 0002:00026048       ??_C@_08JOEHPJCJ@?$CFs?$CFs?4png@ 0054e048     rendertext.obj
 0002:00026054       ??_C@_0O@ODMAPDOP@updateigraphs@ 0054e054     rendertext.obj
 0002:00026064       ??_C@_09ODCCEPOD@getigraph@ 0054e064     rendertext.obj
 0002:00026070       ??_C@_04IDIEOEJG@?5?7?6?4@ 0054e070     rendertext.obj
 0002:00026078       ??_C@_0O@DHMEIHOO@stencilshadow@ 0054e078     shadow.obj
 0002:00026088       ??_C@_0L@ICLDMIMJ@shadowclip@ 0054e088     shadow.obj
 0002:00026094       ??_C@_0L@FGNDFHJG@shadowtile@ 0054e094     shadow.obj
 0002:000260a0       ??_C@_0O@KGLAGFPK@shadowcasters@ 0054e0a0     shadow.obj
 0002:000260b0       ??_C@_09OFNCFOGH@hwtexsize@ 0054e0b0     texture.obj
 0002:000260bc       ??_C@_0L@BDEGPDCO@hwmaxaniso@ 0054e0bc     texture.obj
 0002:000260c8       ??_C@_0BA@MPKCMJPH@texture?5quality@ 0054e0c8     texture.obj
 0002:000260d8       ??_C@_0L@NFDDLINJ@maxtexsize@ 0054e0d8     texture.obj
 0002:000260e4       ??_C@_09MLBAMIPG@texreduce@ 0054e0e4     texture.obj
 0002:000260f0       ??_C@_0BC@DJJJFHEO@texture?5filtering@ 0054e0f0     texture.obj
 0002:00026104       ??_C@_09OPCNOONF@trilinear@ 0054e104     texture.obj
 0002:00026110       ??_C@_08LJMMPFJO@bilinear@ 0054e110     texture.obj
 0002:0002611c       ??_C@_05FJGLFCGH@aniso@    0054e11c     texture.obj
 0002:00026124       ??_C@_0P@DGBHLMID@create?5surface@ 0054e124     texture.obj
 0002:00026134       ??_C@_0BD@LPLBALKK@texture?5resolution@ 0054e134     texture.obj
 0002:00026148       ??_C@_0O@CMFABFNA@hirestextures@ 0054e148     texture.obj
 0002:00026158       ??_C@_0BK@FFEJBACN@could?5not?5load?5texture?5?$CFs@ 0054e158     texture.obj
 0002:00026174       ??_C@_0BJ@IIJDHNGD@couldn?8t?5load?5texture?5?$CFs@ 0054e174     texture.obj
 0002:00026190       ??_C@_0M@OHGPHIKK@playermodel@ 0054e190     texture.obj
 0002:0002619c       ??_C@_04NHPAFEHJ@skin@     0054e19c     texture.obj
 0002:000261a4       ??_C@_06GEPNGEJI@weapon@   0054e1a4     texture.obj
 0002:000261ac       ??_C@_0CJ@IAMDLPGP@texture?5must?5be?58?0?516?0?524?0?5or?53@ 0054e1ac     texture.obj
 0002:000261d8       ??_C@_0CH@JOLLJKJH@texture?5size?5exceeded?5?$CFdx?$CFd?5pix@ 0054e1d8     texture.obj
 0002:00026200       ??_C@_05CFEEDGHM@decal@    0054e200     texture.obj
 0002:00026208       ??_C@_0N@OCBMDGMM@?$CF?47g?5?5?5?5?5?5?5?5@ 0054e208     texture.obj
 0002:00026218       ??_C@_0N@GHEGLPKK@texturereset@ 0054e218     texture.obj
 0002:00026228       ??_C@_01KMDKNFGN@?1@       0054e228     texture.obj
 0002:0002622c       ??_C@_01PPODPGHN@?$DO@     0054e22c     texture.obj
 0002:00026230       ??_C@_0L@CJKOEDEN@map_editor@ 0054e230     texture.obj
 0002:0002623c       ??_C@_0BC@HFAJHCOP@?$AM3bad?5texture?3?5?$CFs@ 0054e23c     texture.obj
 0002:00026250       ??_C@_0ED@CBAIPGNB@?$AM3texture?5slot?5?$CD?$CFd?5?$CC?$CFs?$CC?5error?3?5@ 0054e250     texture.obj
 0002:00026294       ??_C@_02EIPGLLEK@fs@       0054e294     texture.obj
 0002:00026298       ??_C@_07JDHEGGGP@texture@  0054e298     texture.obj
 0002:000262a0       ??_C@_0BA@NDBLELIP@texture?5?$CFs?5?$CC?$CFs?$CC@ 0054e2a0     texture.obj
 0002:000262b0       ??_C@_0BF@LIAGKKNK@packages?1textures?1?$CFs@ 0054e2b0     texture.obj
 0002:000262c8       ??_C@_07MIIENBA@loadsky@   0054e2c8     texture.obj
 0002:000262d0       ??_C@_02HCNENIII@lf@       0054e2d0     texture.obj
 0002:000262d4       ??_C@_02BMJICGCB@rt@       0054e2d4     texture.obj
 0002:000262d8       ??_C@_02HLHCNIN@ft@        0054e2d8     texture.obj
 0002:000262dc       ??_C@_02MNOEILMP@bk@       0054e2dc     texture.obj
 0002:000262e0       ??_C@_02LEBOADDI@dn@       0054e2e0     texture.obj
 0002:000262e4       ??_C@_02HNLLPFKA@up@       0054e2e4     texture.obj
 0002:000262e8       ??_C@_0BC@CCMKOCDD@textures?1skymaps?1@ 0054e2e8     texture.obj
 0002:000262fc       ??_C@_0BF@CMLACFK@packages?1?$CFs?$CFs_?$CFs?4jpg@ 0054e2fc     texture.obj
 0002:00026314       ??_C@_0CJ@HDDAIJCE@could?5not?5load?5alternative?5text@ 0054e314     texture.obj
 0002:00026340       ??_C@_0O@LHEIGOMF@loadnotexture@ 0054e340     texture.obj
 0002:00026350       ??_C@_0N@DIFMGDFN@getnotexture@ 0054e350     texture.obj
 0002:00026360       ??_C@_07NKMFDOIM@skyclip@  0054e360     texture.obj
 0002:00026368       ??_C@_07IILFLEFO@maxtmus@  0054e368     texture.obj
 0002:00026370       ??_C@_0CG@JJDCCOAC@packages?1textures?1map_editor?1wa@ 0054e370     texture.obj
 0002:00026398       ??_C@_0CH@BBHBMJI@packages?1textures?1map_editor?1fl@ 0054e398     texture.obj
 0002:000263c0       ??_C@_0CG@LOGMBMCC@packages?1textures?1map_editor?1ce@ 0054e3c0     texture.obj
 0002:000263e8       ??_C@_0M@HNEDOICN@Guide?3?5?$AM0on@ 0054e3e8     texture.obj
 0002:000263f4       ??_C@_0N@PLAEDBKL@Guide?3?5?$AMBoff@ 0054e3f4     texture.obj
 0002:00026404       ??_C@_0CN@CEFAHMLD@?$AMBGuide?5view?5is?5only?5available?5@ 0054e404     texture.obj
 0002:00026434       ??_C@_0M@NGMCJDJN@guidetoggle@ 0054e434     texture.obj
 0002:00026440       ??_C@_04GNPKBLNA@?4jpg@    0054e440     texture.obj
 0002:00026448       ??_C@_0BC@OCMDOOPK@packages?1textures@ 0054e448     texture.obj
 0002:0002645c       ??_C@_0BD@EPJGOAIB@packages?1textures?1@ 0054e45c     texture.obj
 0002:00026470       ??_C@_09DPACILDJ@?$CC?$CFs?$CC?5?$CC?$CFs?$CC@ 0054e470     texture.obj
 0002:0002647c       ??_C@_05JEHJOICL@?5?$CC?$CFs?$CC@ 0054e47c     texture.obj
 0002:00026484       ??_C@_03PFJENDKN@sss@      0054e484     texture.obj
 0002:00026488       ??_C@_0P@NEIBONC@gettexturelist@ 0054e488     texture.obj
 0002:00026498       ??_C@_0BA@PAOGKBOP@onlymostvisible@ 0054e498     texture.obj
 0002:000264a8       ??_C@_0N@DNGDHAOA@onlygeometry@ 0054e4a8     texture.obj
 0002:000264b8       ??_C@_0L@KHGELOEC@onlymodels@ 0054e4b8     texture.obj
